
67f7d1a5-dba8-48bc-9e79-79aa289e7d74.elf:     file format elf64-littleaarch64
67f7d1a5-dba8-48bc-9e79-79aa289e7d74.elf
architecture: aarch64, flags 0x00000150:
HAS_SYMS, DYNAMIC, D_PAGED
start address 0x000000000000034c

Program Header:
    LOAD off    0x0000000000001000 vaddr 0x0000000000000000 paddr 0x0000000000000000 align 2**12
         filesz 0x0000000000011838 memsz 0x0000000000011838 flags r-x
    LOAD off    0x0000000000013000 vaddr 0x0000000000012000 paddr 0x0000000000012000 align 2**12
         filesz 0x000000000000060c memsz 0x000000000000beb0 flags rw-
 DYNAMIC off    0x0000000000013000 vaddr 0x0000000000012000 paddr 0x0000000000012000 align 2**3
         filesz 0x0000000000000110 memsz 0x0000000000000110 flags rw-
   STACK off    0x0000000000000000 vaddr 0x0000000000000000 paddr 0x0000000000000000 align 2**4
         filesz 0x0000000000000000 memsz 0x0000000000000000 flags rw-

Dynamic Section:
  HASH                 0x00000000000114c0
  GNU_HASH             0x0000000000011388
  STRTAB               0x0000000000011488
  SYMTAB               0x00000000000113e0
  STRSZ                0x0000000000000036
  SYMENT               0x0000000000000018
  DEBUG                0x0000000000000000
  RELA                 0x00000000000114f0
  RELASZ               0x0000000000000558
  RELAENT              0x0000000000000018
  FLAGS_1              0x0000000008000000
  RELACOUNT            0x0000000000000023
private flags = 0x0:

Sections:
Idx Name          Size      VMA               LMA               File off  Algn
  0 .text         0000d168  0000000000000000  0000000000000000  00001000  2**4
                  CONTENTS, ALLOC, LOAD, READONLY, CODE
  1 .eh_frame     00002e2c  000000000000d168  000000000000d168  0000e168  2**3
                  CONTENTS, ALLOC, LOAD, READONLY, DATA
  2 .rodata       000013f0  000000000000ff98  000000000000ff98  00010f98  2**3
                  CONTENTS, ALLOC, LOAD, READONLY, DATA
  3 .gnu.hash     00000034  0000000000011388  0000000000011388  00012388  2**3
                  CONTENTS, ALLOC, LOAD, READONLY, DATA
  4 .ta_head      00000020  00000000000113c0  00000000000113c0  000123c0  2**3
                  CONTENTS, ALLOC, LOAD, READONLY, DATA
  5 .dynsym       000000a8  00000000000113e0  00000000000113e0  000123e0  2**3
                  CONTENTS, ALLOC, LOAD, READONLY, DATA
  6 .dynstr       00000036  0000000000011488  0000000000011488  00012488  2**0
                  CONTENTS, ALLOC, LOAD, READONLY, DATA
  7 .hash         00000030  00000000000114c0  00000000000114c0  000124c0  2**3
                  CONTENTS, ALLOC, LOAD, READONLY, DATA
  8 .rela.dyn     00000348  00000000000114f0  00000000000114f0  000124f0  2**3
                  CONTENTS, ALLOC, LOAD, READONLY, DATA
  9 .dynamic      00000110  0000000000012000  0000000000012000  00013000  2**3
                  CONTENTS, ALLOC, LOAD, DATA
 10 .got          000000d0  0000000000012110  0000000000012110  00013110  2**3
                  CONTENTS, ALLOC, LOAD, DATA
 11 .rela.got     00000210  00000000000121e0  00000000000121e0  000131e0  2**3
                  CONTENTS, ALLOC, LOAD, READONLY, DATA
 12 .data         0000021c  00000000000123f0  00000000000123f0  000133f0  2**3
                  CONTENTS, ALLOC, LOAD, DATA
 13 .bss          0000b8a0  0000000000012610  0000000000012610  0001360c  2**3
                  ALLOC
 14 .debug_info   0001bb13  0000000000000000  0000000000000000  0001360c  2**0
                  CONTENTS, READONLY, DEBUGGING, OCTETS
 15 .debug_abbrev 0000493e  0000000000000000  0000000000000000  0002f11f  2**0
                  CONTENTS, READONLY, DEBUGGING, OCTETS
 16 .debug_loclists 0000fdb0  0000000000000000  0000000000000000  00033a5d  2**0
                  CONTENTS, READONLY, DEBUGGING, OCTETS
 17 .debug_aranges 000009b0  0000000000000000  0000000000000000  00043810  2**4
                  CONTENTS, READONLY, DEBUGGING, OCTETS
 18 .debug_rnglists 000009a9  0000000000000000  0000000000000000  000441c0  2**0
                  CONTENTS, READONLY, DEBUGGING, OCTETS
 19 .debug_macro  0001ad4c  0000000000000000  0000000000000000  00044b69  2**0
                  CONTENTS, READONLY, DEBUGGING, OCTETS
 20 .debug_line   0000bf21  0000000000000000  0000000000000000  0005f8b5  2**0
                  CONTENTS, READONLY, DEBUGGING, OCTETS
 21 .debug_str    0001c281  0000000000000000  0000000000000000  0006b7d6  2**0
                  CONTENTS, READONLY, DEBUGGING, OCTETS
 22 .debug_line_str 00000a78  0000000000000000  0000000000000000  00087a57  2**0
                  CONTENTS, READONLY, DEBUGGING, OCTETS
 23 .comment      00000033  0000000000000000  0000000000000000  000884cf  2**0
                  CONTENTS, READONLY
SYMBOL TABLE:
0000000000000000 l    d  .text	0000000000000000 .text
000000000000d168 l    d  .eh_frame	0000000000000000 .eh_frame
000000000000ff98 l    d  .rodata	0000000000000000 .rodata
0000000000011388 l    d  .gnu.hash	0000000000000000 .gnu.hash
00000000000113c0 l    d  .ta_head	0000000000000000 .ta_head
00000000000113e0 l    d  .dynsym	0000000000000000 .dynsym
0000000000011488 l    d  .dynstr	0000000000000000 .dynstr
00000000000114c0 l    d  .hash	0000000000000000 .hash
00000000000114f0 l    d  .rela.dyn	0000000000000000 .rela.dyn
0000000000012000 l    d  .dynamic	0000000000000000 .dynamic
0000000000012110 l    d  .got	0000000000000000 .got
00000000000121e0 l    d  .rela.got	0000000000000000 .rela.got
00000000000123f0 l    d  .data	0000000000000000 .data
0000000000012610 l    d  .bss	0000000000000000 .bss
0000000000000000 l    d  .debug_info	0000000000000000 .debug_info
0000000000000000 l    d  .debug_abbrev	0000000000000000 .debug_abbrev
0000000000000000 l    d  .debug_loclists	0000000000000000 .debug_loclists
0000000000000000 l    d  .debug_aranges	0000000000000000 .debug_aranges
0000000000000000 l    d  .debug_rnglists	0000000000000000 .debug_rnglists
0000000000000000 l    d  .debug_macro	0000000000000000 .debug_macro
0000000000000000 l    d  .debug_line	0000000000000000 .debug_line
0000000000000000 l    d  .debug_str	0000000000000000 .debug_str
0000000000000000 l    d  .debug_line_str	0000000000000000 .debug_line_str
0000000000000000 l    d  .comment	0000000000000000 .comment
0000000000000000 l    df *ABS*	0000000000000000 memcpy.c
0000000000000000 l    df *ABS*	0000000000000000 test_performance_ta.c
00000000000104c8 l     O .rodata	0000000000000014 __func__.6
00000000000104dc l     O .rodata	0000000000000015 __func__.5
00000000000104f1 l     O .rodata	0000000000000020 __func__.4
0000000000010511 l     O .rodata	000000000000001a __func__.3
000000000001052b l     O .rodata	0000000000000022 __func__.2
000000000001054d l     O .rodata	000000000000000a __func__.1
0000000000010557 l     O .rodata	000000000000000a __func__.0
0000000000000000 l    df *ABS*	0000000000000000 user_ta_header.c
000000000000ffa0 l     O .rodata	0000000000000004 __compound_literal.7
000000000000ffa4 l     O .rodata	0000000000000001 __compound_literal.6
000000000000ffa8 l     O .rodata	0000000000000004 __compound_literal.5
000000000000ffac l     O .rodata	0000000000000004 __compound_literal.4
000000000000ffb0 l     O .rodata	0000000000000004 __compound_literal.3
000000000000ffb4 l     O .rodata	0000000000000001 __compound_literal.2
000000000000ffb5 l     O .rodata	0000000000000001 __compound_literal.1
000000000000ffb6 l     O .rodata	0000000000000001 __compound_literal.0
0000000000000000 l    df *ABS*	0000000000000000 trace.c
00000000000106da l     O .rodata	0000000000000005 lvl_strs.0
0000000000000000 l    df *ABS*	0000000000000000 stack_check.c
0000000000000000 l    df *ABS*	0000000000000000 snprintk.c
00000000000008cc l     F .text	0000000000000bc4 kprintf.constprop.0
000000000001007a l     O .rodata	0000000000000011 hexdigits
000000000001008b l     O .rodata	0000000000000011 HEXDIGITS
0000000000000000 l    df *ABS*	0000000000000000 memchr.c
0000000000000000 l    df *ABS*	0000000000000000 strlen.c
0000000000000000 l    df *ABS*	0000000000000000 trace_ext.c
0000000000000000 l    df *ABS*	0000000000000000 user_ta_entry.c
0000000000001704 l     F .text	00000000000000b0 _get_fn_array
00000000000017b4 l     F .text	0000000000000090 _fini_iterate_phdr_cb
0000000000001844 l     F .text	0000000000000028 ta_header_get_session
000000000000186c l     F .text	0000000000000070 to_utee_params
00000000000018dc l     F .text	000000000000005c from_utee_params
0000000000001938 l     F .text	0000000000000094 _init_iterate_phdr_cb
0000000000001b28 l     F .text	0000000000000094 ta_header_remove_session
000000000001077e l     O .rodata	0000000000000016 __func__.0
0000000000012610 l     O .bss	0000000000000008 _num_mod_init
0000000000012618 l     O .bss	0000000000000001 init_done
0000000000012500 l     O .data	0000000000000010 ta_sessions
0000000000012510 l     O .data	0000000000000010 __phdr_info_head
0000000000000000 l    df *ABS*	0000000000000000 user_ta_entry_compat.c
0000000000001e44 l     F .text	0000000000000064 to_gp11_param
0000000000001ea8 l     F .text	0000000000000064 from_gp11_param
0000000000000000 l    df *ABS*	0000000000000000 utee_syscalls_a64.o
0000000000000000 l    df *ABS*	0000000000000000 abort.c
0000000000000000 l    df *ABS*	0000000000000000 tee_api.c
0000000000002324 l     F .text	000000000000006c copy_param
0000000000002390 l     F .text	0000000000000070 copy_gp11_param
0000000000002400 l     F .text	0000000000000098 check_mem_access_rights_params
0000000000002498 l     F .text	0000000000000044 buf_overlaps_no_share_heap
00000000000024dc l     F .text	00000000000000a8 check_invoke_param
0000000000002584 l     F .text	00000000000000a4 update_out_param
0000000000002628 l     F .text	00000000000000a8 update_out_gp11_param
00000000000028a0 l     F .text	000000000000019c map_tmp_param
0000000000012680 l     O .bss	0000000000000008 tee_api_instance_data
000000000000ffd8 l     O .rodata	000000000000000b __func__.0
0000000000000000 l    df *ABS*	0000000000000000 tee_api_arith_mpi.c
0000000000003400 l     F .text	0000000000000030 api_panic
0000000000003430 l     F .text	0000000000000030 mpi_panic
0000000000003460 l     F .text	0000000000000098 get_mpi
00000000000034f8 l     F .text	0000000000000064 copy_mpi_to_bigint
000000000000355c l     F .text	000000000000014c bigint_binary
00000000000036a8 l     F .text	0000000000000020 mpi_is_odd
00000000000036c8 l     F .text	0000000000000028 rng_read
00000000000036f0 l     F .text	0000000000000574 mpi_egcd
0000000000012690 l     O .bss	0000000000003800 data.18
000000000000419c l     F .text	00000000000001d0 bigint_binary_mod
0000000000010875 l     O .rodata	0000000000000008 __func__.15
000000000001087d l     O .rodata	000000000000000e __func__.11
000000000001088b l     O .rodata	0000000000000009 __func__.2
0000000000010894 l     O .rodata	0000000000000012 __func__.17
00000000000108a6 l     O .rodata	000000000000000f __func__.16
00000000000108b5 l     O .rodata	000000000000001f __func__.14
00000000000108d4 l     O .rodata	0000000000000019 __func__.13
00000000000108ed l     O .rodata	0000000000000012 __func__.7
00000000000108ff l     O .rodata	0000000000000015 __func__.12
0000000000010914 l     O .rodata	000000000000000e __func__.10
0000000000010922 l     O .rodata	000000000000000e __func__.9
0000000000010930 l     O .rodata	000000000000000e __func__.8
000000000001093e l     O .rodata	0000000000000011 __func__.6
000000000001094f l     O .rodata	0000000000000018 __func__.5
0000000000010967 l     O .rodata	0000000000000011 __func__.4
0000000000010978 l     O .rodata	000000000000001d __func__.3
0000000000010995 l     O .rodata	0000000000000019 __func__.1
00000000000109ae l     O .rodata	0000000000000015 __func__.0
0000000000000000 l    df *ABS*	0000000000000000 tee_api_panic.c
0000000000005568 l     F .text	000000000000001c check_access
000000000000558c l     F .text	0000000000000010 check_res.constprop.0
000000000000571c l     F .text	0000000000000024 __utee_check_attr_in_annotation.localalias
0000000000000000 l    df *ABS*	0000000000000000 tee_api_property.c
0000000000005764 l     F .text	000000000000006c propset_get
00000000000057d0 l     F .text	000000000000002c is_propset_pseudo_handle
00000000000057fc l     F .text	0000000000000140 propget_get_ext_prop
000000000000593c l     F .text	00000000000001f8 propget_get_property
00000000000100ac l     O .rodata	0000000000000004 __compound_literal.3
00000000000100b0 l     O .rodata	0000000000000004 __compound_literal.2
00000000000100b4 l     O .rodata	0000000000000004 __compound_literal.1
00000000000100b8 l     O .rodata	0000000000000004 __compound_literal.0
0000000000000000 l    df *ABS*	0000000000000000 tee_system_pta.c
0000000000006734 l     F .text	0000000000000084 invoke_system_pta
00000000000100bc l     O .rodata	0000000000000010 uuid.2
00000000000100cc l     O .rodata	000000000000000a __func__.1
00000000000100d6 l     O .rodata	0000000000000017 __func__.0
0000000000015e90 l     O .bss	0000000000000008 sess.3
0000000000000000 l    df *ABS*	0000000000000000 tcb.c
0000000000010b25 l     O .rodata	0000000000000010 __func__.1
0000000000010b35 l     O .rodata	0000000000000010 __func__.0
0000000000015e98 l     O .bss	0000000000000008 _tls_size
0000000000015ea0 l     O .bss	0000000000000008 _tcb
0000000000000000 l    df *ABS*	0000000000000000 assert.c
0000000000000000 l    df *ABS*	0000000000000000 base64.c
00000000000100f4 l     O .rodata	0000000000000041 base64_table
0000000000000000 l    df *ABS*	0000000000000000 bignum.c
0000000000006fe4 l     F .text	0000000000000064 mpi_get_digit
0000000000007048 l     F .text	0000000000000068 mpi_select
00000000000070b0 l     F .text	000000000000001c mpi_montmul.isra.0
00000000000070cc l     F .text	0000000000000078 mpi_montred
00000000000072d4 l     F .text	000000000000006c mbedtls_mpi_resize_clear
0000000000007d50 l     F .text	00000000000000a4 add_sub_mpi
0000000000008ccc l     F .text	00000000000000c4 mpi_check_small_factors
00000000000096a0 l     F .text	00000000000002a4 mpi_miller_rabin
0000000000010138 l     O .rodata	00000000000002a0 small_prime
00000000000103d8 l     O .rodata	0000000000000024 gcd_pairs
0000000000000000 l    df *ABS*	0000000000000000 bignum_core.c
0000000000000000 l    df *ABS*	0000000000000000 constant_time.c
000000000000b4f0 l     F .text	0000000000000020 mbedtls_ct_uchar_mask_of_range
0000000000000000 l    df *ABS*	0000000000000000 platform_util.c
000000000000bcd0 l     F .text	000000000000005c mbedtls_get_unaligned_uint32.localalias
000000000000bd2c l     F .text	0000000000000020 mbedtls_put_unaligned_uint32.localalias
0000000000012580 l     O .data	0000000000000008 memset_func
0000000000000000 l    df *ABS*	0000000000000000 bget_malloc.c
000000000000be80 l     F .text	0000000000000010 _assert_trap
000000000000be90 l     F .text	0000000000000028 bget_buf_size.part.0
000000000000beb8 l     F .text	0000000000000038 raw_malloc_return_hook.constprop.0
000000000001127b l     O .rodata	000000000000000e __func__.2
0000000000011289 l     O .rodata	0000000000000005 __func__.8
000000000001128e l     O .rodata	0000000000000006 __func__.7
0000000000011294 l     O .rodata	0000000000000005 __func__.5
0000000000011299 l     O .rodata	0000000000000006 __func__.6
000000000001129f l     O .rodata	0000000000000006 __func__.4
00000000000112a5 l     O .rodata	0000000000000007 __func__.3
00000000000112ac l     O .rodata	0000000000000014 __func__.1
00000000000112c0 l     O .rodata	0000000000000013 __func__.0
0000000000012588 l     O .data	0000000000000080 malloc_ctx
0000000000000000 l    df *ABS*	0000000000000000 snprintf.c
0000000000000000 l    df *ABS*	0000000000000000 memmove.c
0000000000000000 l    df *ABS*	0000000000000000 memset.c
0000000000000000 l    df *ABS*	0000000000000000 strcmp.c
0000000000000000 l    df *ABS*	0000000000000000 strlcpy.c
0000000000000000 l    df *ABS*	0000000000000000 mempool.c
000000000001135c l     O .rodata	0000000000000013 __func__.2
000000000001136f l     O .rodata	000000000000000b __func__.1
000000000001137a l     O .rodata	000000000000000e __func__.0
0000000000000000 l    df *ABS*	0000000000000000 consttime_memcmp.c
0000000000000000 l    df *ABS*	0000000000000000 
0000000000012000 l     O *ABS*	0000000000000000 _DYNAMIC
0000000000012128 l     O *ABS*	0000000000000000 _GLOBAL_OFFSET_TABLE_
0000000000001694 g     F .text	0000000000000070 putchar
0000000000003de4 g     F .text	0000000000000008 __GP11_TEE_BigIntConvertFromOctetString
000000000000abcc g     F .text	0000000000000070 mbedtls_mpi_core_add_if
0000000000005344 g     F .text	0000000000000004 TEE_BigIntConvertToFMM
0000000000004b98 g     F .text	000000000000000c TEE_BigIntSquareMod
000000000000436c g     F .text	00000000000001a0 TEE_BigIntShiftRight
000000000000ca34 g     F .text	00000000000000d4 raw_malloc_add_pool
0000000000006908 g     F .text	00000000000000e8 tee_invoke_supp_plugin
000000000000afe0 g     F .text	00000000000000b0 mbedtls_mpi_core_fill_random
00000000000071ec g     F .text	00000000000000e8 mbedtls_mpi_grow
0000000000006498 g     F .text	0000000000000130 __GP11_TEE_GetPropertyName
00000000000032ec g     F .text	00000000000000f4 TEE_Realloc
000000000000aab4 g     F .text	00000000000000dc mbedtls_mpi_core_shift_r
0000000000005744 g     F .text	0000000000000020 __utee_check_inout_annotation
000000000000c7fc g     F .text	0000000000000010 raw_free
0000000000001554 g     F .text	0000000000000100 printf
0000000000004710 g     F .text	000000000000002c TEE_BigIntAbs
0000000000002070 g     F .text	000000000000000c _utee_log
0000000000002cd8 g     F .text	0000000000000184 TEE_InvokeTACommand
000000000000559c g     F .text	000000000000004c __utee_check_outbuf_annotation
000000000000a9fc g     F .text	00000000000000b8 mbedtls_mpi_core_write_be
0000000000007158 g     F .text	0000000000000028 mbedtls_mpi_init_mempool
00000000000021f0 g     F .text	000000000000000c _utee_cryp_random_number_generate
0000000000007810 g     F .text	0000000000000010 mbedtls_mpi_write_binary
00000000000007a4 g     F .text	0000000000000058 vsnprintk
0000000000007e7c g     F .text	0000000000000078 mbedtls_mpi_sub_int
000000000000ce8c g     F .text	000000000000005c memmove
000000000000cd60 g     F .text	00000000000000d4 snprintf
000000000000411c g     F .text	0000000000000080 TEE_BigIntCmpS32
0000000000002ff8 g     F .text	0000000000000008 __GP11_TEE_MemMove
00000000000124f8 g     O .data	0000000000000008 __stack_chk_guard
000000000000ba60 g     F .text	0000000000000204 mbedtls_ct_rsaes_pkcs1_v15_unpadding
0000000000007340 g     F .text	0000000000000118 mbedtls_mpi_shrink
0000000000003010 g     F .text	0000000000000008 __GP11_TEE_MemFill
000000000000473c g     F .text	000000000000000c TEE_BigIntAdd
0000000000002190 g     F .text	000000000000000c _utee_cryp_obj_restrict_usage
000000000000ffc0 g     O .rodata	0000000000000008 ta_heap_size
0000000000002238 g     F .text	000000000000000c _utee_asymm_operate
0000000000006d94 g     F .text	0000000000000018 _base64_enc_len
0000000000008164 g     F .text	000000000000020c mbedtls_mpi_read_string
000000000000ac80 g     F .text	00000000000001cc mbedtls_mpi_core_mla
0000000000004754 g     F .text	00000000000000e4 TEE_BigIntNeg
000000000000228c g     F .text	000000000000000c _utee_storage_free_enum
0000000000000000 g       .text	0000000000000000 __text_start
0000000000006654 g     F .text	00000000000000e0 TEE_GetNextProperty
0000000000007930 g     F .text	0000000000000030 mbedtls_mpi_shift_r
000000000000cd4c g     F .text	0000000000000014 malloc_buffer_overlaps_heap
000000000000213c g     F .text	000000000000000c _utee_hash_init
0000000000004b80 g     F .text	000000000000000c TEE_BigIntSubMod
0000000000009f14 g     F .text	000000000000034c mbedtls_mpi_gen_prime
00000000000061c4 g     F .text	000000000000009c TEE_GetPropertyAsBinaryBlock
0000000000007618 g     F .text	000000000000002c mbedtls_mpi_get_bit
000000000000b090 g     F .text	00000000000000f8 mbedtls_mpi_core_random
000000000000ffb8 g     O .rodata	0000000000000008 __ta_no_share_heap_size
00000000000077a4 g     F .text	000000000000005c mbedtls_mpi_read_binary
00000000000005c8 g     F .text	00000000000000e4 trace_printf
0000000000008db8 g     F .text	000000000000000c mbedtls_mpi_montmul
00000000000022f8 g     F .text	000000000000000c _utee_cache_operation
0000000000000000 g     F .text	00000000000000ec memcpy
000000000000b1b0 g     F .text	0000000000000260 mbedtls_mpi_core_exp_mod
0000000000005348 g     F .text	00000000000000d4 TEE_BigIntConvertFromFMM
0000000000005584 g     F .text	0000000000000008 TEE_Panic
0000000000001654 g     F .text	0000000000000040 puts
000000000000541c g     F .text	000000000000014c TEE_BigIntComputeFMM
000000000000cd14 g     F .text	0000000000000010 malloc_get_stats
0000000000003138 g     F .text	0000000000000028 TEE_GetREETime
000000000000ccd8 g     F .text	000000000000003c raw_malloc_get_stats
00000000000123f0 g     O .data	0000000000000108 ta_props
0000000000003284 g     F .text	0000000000000008 __GP11_TEE_Malloc
0000000000002b90 g     F .text	0000000000000148 __GP11_TEE_OpenTASession
0000000000005634 g     F .text	0000000000000030 __utee_check_instring_annotation
000000000000c970 g     F .text	0000000000000018 malloc
0000000000006484 g     F .text	0000000000000004 TEE_FreePropertyEnumerator
000000000000b554 g     F .text	0000000000000010 mbedtls_ct_mpi_uint_mask
000000000000ce34 g     F .text	0000000000000058 vsnprintf
0000000000012608 g     O .data	0000000000000004 trace_level
0000000000004084 g     F .text	0000000000000098 TEE_BigIntCmp
000000000000ff98 g     O .rodata	0000000000000008 ta_num_props
000000000000c51c g     F .text	00000000000000d0 bgetr
0000000000002250 g     F .text	000000000000000c _utee_storage_obj_open
0000000000003004 g     F .text	0000000000000008 __GP11_TEE_MemCompare
000000000000d0dc g     F .text	000000000000001c mempool_free
0000000000002148 g     F .text	000000000000000c _utee_hash_update
0000000000003dec g     F .text	00000000000000c8 TEE_BigIntConvertToOctetString
0000000000007724 g     F .text	0000000000000008 mbedtls_mpi_bitlen
0000000000004514 g     F .text	0000000000000084 TEE_BigIntGetBit
000000000000ffc8 g     O .rodata	0000000000000003 trace_ext_prefix
00000000000022b0 g     F .text	000000000000000c _utee_storage_next_enum
000000000000c7ec g     F .text	0000000000000010 raw_malloc
000000000000c1d0 g     F .text	0000000000000088 bgetz
000000000000b564 g     F .text	0000000000000018 mbedtls_ct_size_bool_eq
0000000000002fe8 g     F .text	000000000000000c TEE_GetInstanceData
0000000000003040 g     F .text	000000000000003c TEE_Wait
0000000000007ef4 g     F .text	00000000000001bc mbedtls_mpi_mul_mpi
000000000000450c g     F .text	0000000000000008 __GP11_TEE_BigIntShiftRight
000000000000bda8 g     F .text	0000000000000020 mbedtls_put_unaligned_uint64
00000000000033f0 g     F .text	0000000000000008 TEE_CacheFlush
00000000000003ac g     F .text	000000000000021c trace_vprintf
0000000000000120 g     F .text	0000000000000024 TA_DestroyEntryPoint
0000000000007144 g     F .text	0000000000000014 mbedtls_mpi_init
0000000000002268 g     F .text	000000000000000c _utee_storage_obj_del
00000000000076d0 g     F .text	0000000000000054 mbedtls_mpi_lsb
0000000000006d3c g     F .text	0000000000000044 _assert_log
0000000000002124 g     F .text	000000000000000c _utee_cryp_state_copy
0000000000005324 g     F .text	0000000000000008 TEE_BigIntFMMContextSizeInU32
000000000000684c g     F .text	00000000000000bc tee_unmap
000000000000b598 g     F .text	0000000000000030 mbedtls_ct_uint_if
0000000000003c64 g     F .text	0000000000000050 _TEE_MathAPI_Init
000000000000bdc8 g     F .text	0000000000000098 mbedtls_xor
00000000000069f0 g     F .text	0000000000000240 __utee_tcb_init
0000000000007df4 g     F .text	0000000000000008 mbedtls_mpi_add_mpi
0000000000002304 g     F .text	0000000000000020 abort
0000000000009944 g     F .text	0000000000000094 mbedtls_mpi_random
00000000000006b0 g     F .text	0000000000000030 __stack_chk_fail
00000000000056fc g     F .text	0000000000000020 __utee_check_out_annotation
0000000000015eb0 g     O .bss	0000000000008000 ta_heap
0000000000004ba4 g     F .text	0000000000000150 TEE_BigIntInvMod
00000000000019cc g     F .text	000000000000014c __utee_call_elf_init_fn
00000000000001b4 g     F .text	0000000000000024 TA_CloseSessionEntryPoint
00000000000001d8 g     F .text	0000000000000174 __GP11_TA_InvokeCommandEntryPoint
00000000000020ac g     F .text	000000000000000c _utee_close_ta_session
00000000000052ec g     F .text	0000000000000008 __GP11_TEE_BigIntInitFMMContext
000000000000b440 g     F .text	0000000000000028 mbedtls_mpi_core_check_zero_ct
0000000000007dfc g     F .text	0000000000000008 mbedtls_mpi_sub_mpi
000000000000d0f8 g     F .text	0000000000000070 consttime_memcmp
0000000000002064 g     F .text	000000000000000c _utee_return
000000000000207c g     F .text	000000000000000c __utee_panic
000000000000b510 g     F .text	0000000000000034 mbedtls_ct_memcmp
0000000000006c30 g     F .text	000000000000001c __tls_get_addr
0000000000000374 g     F .text	000000000000000c TA_InvokeCommandEntryPoint
0000000000001b18 g     F .text	0000000000000010 __utee_call_elf_fini_fn
000000000000ca00 g     F .text	0000000000000010 free_wipe
000000000000d028 g     F .text	0000000000000064 mempool_alloc
0000000000002058 g     F .text	000000000000000c _utee_panic
000000000000ca18 g     F .text	000000000000001c raw_malloc_init_ctx
000000000000d08c g     F .text	0000000000000050 mempool_calloc
00000000000022ec g     F .text	000000000000000c _utee_cryp_obj_generate_key
00000000000022d4 g     F .text	000000000000000c _utee_storage_obj_trunc
0000000000012520 g     O .data	0000000000000060 tee_props
00000000000020dc g     F .text	000000000000000c _utee_unmask_cancellation
0000000000006430 g     F .text	000000000000000c TEE_ResetPropertyEnumerator
000000000000c988 g     F .text	000000000000001c calloc
0000000000003160 g     F .text	0000000000000124 TEE_Malloc
0000000000002818 g     F .text	0000000000000088 TEE_CheckMemoryAccessRights
000000000000bcd0 g     F .text	000000000000005c mbedtls_get_unaligned_uint32
0000000000006260 g     F .text	00000000000000e8 TEE_GetPropertyAsUUID
0000000000002088 g     F .text	000000000000000c _utee_get_property
0000000000004610 g     F .text	00000000000000b0 TEE_BigIntSetBit
00000000000075b0 g     F .text	0000000000000068 mbedtls_mpi_lset
0000000000000368 g     F .text	000000000000000c TA_OpenSessionEntryPoint
000000000000b410 g     F .text	0000000000000030 mbedtls_mpi_core_sub_int
0000000000000144 g     F .text	0000000000000070 __GP11_TA_OpenSessionEntryPoint
0000000000006c4c g     F .text	00000000000000f0 dl_iterate_phdr
000000000001deb0 g       .bss	0000000000000000 __ftrace_buf_end
0000000000012678 g     O .bss	0000000000000004 ta_param_types
0000000000008890 g     F .text	0000000000000078 mbedtls_mpi_div_int
000000000000a950 g     F .text	00000000000000ac mbedtls_mpi_core_write_le
0000000000009e30 g     F .text	00000000000000e4 mbedtls_mpi_is_prime_ext
0000000000005244 g     F .text	0000000000000098 TEE_BigIntIsProbablePrime
000000000000bd2c g     F .text	0000000000000020 mbedtls_put_unaligned_uint32
00000000000080b0 g     F .text	00000000000000b4 mbedtls_mpi_mul_int
0000000000008dc8 g     F .text	0000000000000698 mbedtls_mpi_exp_mod
000000000000b774 g     F .text	00000000000000bc mbedtls_mpi_safe_cond_assign
0000000000005b34 g     F .text	0000000000000264 TEE_GetPropertyAsString
000000000000b968 g     F .text	00000000000000f8 mbedtls_mpi_lt_mpi_ct
0000000000003cb4 g     F .text	0000000000000060 TEE_BigIntInit
0000000000003eb4 g     F .text	0000000000000064 __GP11_TEE_BigIntConvertToOctetString
00000000000046c0 g     F .text	0000000000000050 TEE_BigIntAssign
0000000000005664 g     F .text	000000000000004c __utee_check_outstring_annotation
0000000000002ff4 g     F .text	0000000000000004 TEE_MemMove
000000000000be60 g     F .text	0000000000000020 mbedtls_platform_zeroize
0000000000003d1c g     F .text	00000000000000c8 TEE_BigIntConvertFromOctetString
000000000000222c g     F .text	000000000000000c _utee_authenc_dec_final
0000000000007960 g     F .text	000000000000009c mbedtls_mpi_cmp_abs
00000000000022bc g     F .text	000000000000000c _utee_storage_obj_read
00000000000014dc g     F .text	000000000000002c memchr
0000000000002758 g     F .text	0000000000000060 TEE_UnmaskCancellation
000000000000a260 g     F .text	0000000000000420 mbedtls_mpi_self_test
00000000000055e8 g     F .text	000000000000004c __utee_check_gp11_outbuf_annotation
00000000000022e0 g     F .text	000000000000000c _utee_storage_obj_seek
000000000000a7b8 g     F .text	000000000000007c mbedtls_mpi_core_cond_swap
00000000000020d0 g     F .text	000000000000000c _utee_check_access_rights
000000000000a8c0 g     F .text	0000000000000090 mbedtls_mpi_core_read_be
0000000000002e5c g     F .text	0000000000000178 __GP11_TEE_InvokeTACommand
0000000000007acc g     F .text	0000000000000078 mbedtls_mpi_cmp_int
0000000000006ec0 g     F .text	0000000000000124 _base64_dec
0000000000002298 g     F .text	000000000000000c _utee_storage_reset_enum
000000000000b6b8 g     F .text	00000000000000bc mbedtls_ct_base64_dec_value
000000000000571c g     F .text	0000000000000024 __utee_check_attr_in_annotation
0000000000002214 g     F .text	000000000000000c _utee_authenc_update_payload
0000000000004b08 g     F .text	000000000000006c TEE_BigIntMod
00000000000089bc g     F .text	000000000000009c mbedtls_mpi_mod_int
0000000000007748 g     F .text	000000000000005c mbedtls_mpi_read_binary_le
0000000000004954 g     F .text	00000000000001b4 TEE_BigIntDiv
00000000000021a8 g     F .text	000000000000000c _utee_cryp_obj_alloc
000000000001deb0 g       .bss	0000000000000000 __ftrace_buf_start
000000000000cf28 g     F .text	0000000000000038 strlcpy
000000000000b604 g     F .text	00000000000000b4 mbedtls_ct_base64_enc_char
0000000000007458 g     F .text	00000000000000cc mbedtls_mpi_copy
000000000000a680 g     F .text	0000000000000028 mbedtls_mpi_core_clz
000000000000c750 g     F .text	0000000000000018 malloc_reset_stats
0000000000006348 g     F .text	00000000000000e8 TEE_GetPropertyAsIdentity
0000000000001490 g     F .text	000000000000004c __vsprintf
0000000000005ff4 g     F .text	00000000000000e8 TEE_GetPropertyAsU64
000000000000210c g     F .text	000000000000000c _utee_set_ta_time
00000000000020b8 g     F .text	000000000000000c _utee_invoke_ta_command
000000000000bcb8 g     F .text	0000000000000018 mbedtls_put_unaligned_uint16
000000000000c9a4 g     F .text	0000000000000018 realloc
0000000000007524 g     F .text	000000000000008c mbedtls_mpi_swap
000000000000cf60 g     F .text	00000000000000c8 mempool_alloc_pool
0000000000004838 g     F .text	0000000000000114 TEE_BigIntMul
000000000000ca10 g     F .text	0000000000000008 raw_malloc_get_ctx_size
0000000000007820 g     F .text	0000000000000110 mbedtls_mpi_shift_l
00000000000079fc g     F .text	00000000000000d0 mbedtls_mpi_cmp_mpi
000000000000300c g     F .text	0000000000000004 TEE_MemFill
000000000000cd24 g     F .text	0000000000000014 malloc_add_pool
000000000000039c g     F .text	0000000000000010 trace_get_level
0000000000007b44 g     F .text	00000000000000f8 mbedtls_mpi_add_abs
00000000000052fc g     F .text	0000000000000010 TEE_BigIntFMMSizeInU32
0000000000005e34 g     F .text	00000000000000d8 TEE_GetPropertyAsBool
000000000000c87c g     F .text	00000000000000f4 raw_realloc
00000000000052dc g     F .text	0000000000000004 TEE_BigIntInitFMM
0000000000002160 g     F .text	000000000000000c _utee_cipher_init
0000000000001bbc g     F .text	0000000000000288 __utee_entry
0000000000005f0c g     F .text	00000000000000e8 TEE_GetPropertyAsU32
000000000000d168 g       .text	0000000000000000 __text_end
0000000000004cf4 g     F .text	0000000000000108 TEE_BigIntRelativePrime
0000000000008908 g     F .text	00000000000000b4 mbedtls_mpi_mod_mpi
000000000000b8e8 g     F .text	0000000000000080 mbedtls_mpi_core_lt_ct
0000000000002184 g     F .text	000000000000000c _utee_cryp_obj_get_info
000000000000ac3c g     F .text	0000000000000044 mbedtls_mpi_core_sub
000000000000c5ec g     F .text	00000000000000d0 bpool
000000000000643c g     F .text	0000000000000048 TEE_AllocatePropertyEnumerator
0000000000002118 g     F .text	000000000000000c _utee_cryp_state_alloc
00000000000026f8 g     F .text	0000000000000060 TEE_GetCancellationFlag
000000000000bc64 g     F .text	0000000000000054 mbedtls_get_unaligned_uint16
0000000000009460 g     F .text	00000000000001d8 mbedtls_mpi_gcd
00000000000030f4 g     F .text	0000000000000044 TEE_SetTAPersistentTime
0000000000007800 g     F .text	0000000000000010 mbedtls_mpi_write_binary_le
000000000000cee8 g     F .text	000000000000001c memset
000000000000c768 g     F .text	0000000000000084 raw_memalign
000000000000307c g     F .text	0000000000000078 TEE_GetTAPersistentTime
000000000000bd4c g     F .text	000000000000005c mbedtls_get_unaligned_uint64
00000000000006ac g     F .text	0000000000000004 dhex_dump
000000000000a6fc g     F .text	0000000000000034 mbedtls_mpi_core_bigendian_to_host
00000000000027b8 g     F .text	0000000000000060 TEE_MaskCancellation
000000000000219c g     F .text	000000000000000c _utee_cryp_obj_get_attr
0000000000002178 g     F .text	000000000000000c _utee_cipher_final
0000000000000380 g     F .text	000000000000001c trace_set_level
000000000000b468 g     F .text	000000000000001c mbedtls_mpi_core_to_mont_rep
000000000000b57c g     F .text	000000000000001c mbedtls_ct_mpi_uint_lt
0000000000002130 g     F .text	000000000000000c _utee_cryp_state_free
000000000000cf04 g     F .text	0000000000000024 strcmp
00000000000020a0 g     F .text	000000000000000c _utee_open_ta_session
0000000000003fcc g     F .text	00000000000000b8 TEE_BigIntConvertToS32
0000000000004748 g     F .text	000000000000000c TEE_BigIntSub
0000000000000360 g     F .text	0000000000000008 tahead_get_trace_level
00000000000022a4 g     F .text	000000000000000c _utee_storage_start_enum
00000000000067b8 g     F .text	0000000000000094 tee_map_zi
0000000000008dc4 g     F .text	0000000000000004 mbedtls_mpi_montred
000000000000c9bc g     F .text	000000000000001c memalign
000000000000b544 g     F .text	0000000000000010 mbedtls_ct_uint_mask
0000000000003d14 g     F .text	0000000000000008 __GP11_TEE_BigIntInit
0000000000003f18 g     F .text	00000000000000b4 TEE_BigIntConvertFromS32
0000000000007e04 g     F .text	0000000000000078 mbedtls_mpi_add_int
0000000000002220 g     F .text	000000000000000c _utee_authenc_enc_final
000000000000cd38 g     F .text	0000000000000014 malloc_buffer_is_within_alloced
00000000000021b4 g     F .text	000000000000000c _utee_cryp_obj_close
00000000000052e8 g     F .text	0000000000000004 TEE_BigIntInitFMMContext
00000000000020e8 g     F .text	000000000000000c _utee_mask_cancellation
0000000000012630 g     O .bss	0000000000000008 __ta_no_share_malloc_ctx
0000000000002274 g     F .text	000000000000000c _utee_storage_obj_rename
0000000000002fd4 g     F .text	0000000000000008 __GP11_TEE_CheckMemoryAccessRights
000000000000494c g     F .text	0000000000000008 TEE_BigIntSquare
00000000000022c8 g     F .text	000000000000000c _utee_storage_obj_write
000000000000a6a8 g     F .text	0000000000000054 mbedtls_mpi_core_bitlen
00000000000000ec g     F .text	0000000000000034 TA_CreateEntryPoint
000000000000034c g     F .text	0000000000000014 __ta_entry
0000000000015eb0 g     O .bss	0000000000000000 __ta_no_share_heap
0000000000002208 g     F .text	000000000000000c _utee_authenc_update_aad
0000000000008d90 g     F .text	0000000000000028 mbedtls_mpi_montg_init
00000000000007fc g     F .text	00000000000000d0 snprintk
0000000000004598 g     F .text	0000000000000078 TEE_BigIntGetBitCount
00000000000021d8 g     F .text	000000000000000c _utee_cryp_obj_copy
0000000000004b8c g     F .text	000000000000000c TEE_BigIntMulMod
00000000000099d8 g     F .text	0000000000000458 mbedtls_mpi_inv_mod
0000000000005740 g     F .text	0000000000000004 __utee_check_gp11_attr_in_annotation
0000000000012638 g     O .bss	0000000000000040 ta_params
0000000000008370 g     F .text	0000000000000520 mbedtls_mpi_div_mpi
00000000000056b0 g     F .text	000000000000004c __utee_check_gp11_outstring_annotation
000000000000772c g     F .text	000000000000001c mbedtls_mpi_size
000000000000bef0 g     F .text	00000000000002e0 bget
000000000000532c g     F .text	0000000000000018 __GP11_TEE_BigIntFMMContextSizeInU32
0000000000006488 g     F .text	0000000000000010 TEE_StartPropertyEnumerator
00000000000020f4 g     F .text	000000000000000c _utee_wait
0000000000007644 g     F .text	000000000000008c mbedtls_mpi_set_bit
000000000000a730 g     F .text	0000000000000064 mbedtls_mpi_core_uint_le_mpi
000000000000328c g     F .text	0000000000000060 TEE_Free
00000000000033f8 g     F .text	0000000000000008 TEE_CacheInvalidate
0000000000006d80 g     F .text	0000000000000014 _assert_break
000000000000b188 g     F .text	0000000000000028 mbedtls_mpi_core_exp_mod_working_limbs
0000000000004b74 g     F .text	000000000000000c TEE_BigIntAddMod
000000000000b5c8 g     F .text	000000000000003c mbedtls_ct_mpi_uint_cond_assign
00000000000052e0 g     F .text	0000000000000008 __GP11_TEE_BigIntInitFMM
0000000000002100 g     F .text	000000000000000c _utee_get_time
000000000000ab90 g     F .text	000000000000003c mbedtls_mpi_core_add
00000000000065c8 g     F .text	000000000000008c TEE_GetPropertyName
00000000000033e0 g     F .text	0000000000000008 __GP11_TEE_Realloc
00000000000021cc g     F .text	000000000000000c _utee_cryp_obj_populate
000000000000a834 g     F .text	000000000000008c mbedtls_mpi_core_read_le
0000000000003000 g     F .text	0000000000000004 TEE_MemCompare
000000000000216c g     F .text	000000000000000c _utee_cipher_update
00000000000006e0 g     F .text	00000000000000c4 __vsnprintf
0000000000012620 g     O .bss	0000000000000010 __elf_phdr_info
0000000000002a3c g     F .text	0000000000000154 TEE_OpenTASession
000000000000b484 g     F .text	000000000000006c mbedtls_mpi_core_from_mont_rep
0000000000001524 g     F .text	0000000000000028 trace_ext_puts
0000000000005d98 g     F .text	000000000000009c __GP11_TEE_GetPropertyAsString
000000000000cb88 g     F .text	0000000000000150 raw_malloc_buffer_is_within_alloced
000000000000154c g     F .text	0000000000000008 trace_ext_get_thread_id
000000000000cb08 g     F .text	0000000000000080 raw_malloc_buffer_overlaps_heap
00000000000021e4 g     F .text	000000000000000c _utee_cryp_derive_key
0000000000007180 g     F .text	000000000000006c mbedtls_mpi_free
00000000000021c0 g     F .text	000000000000000c _utee_cryp_obj_reset
00000000000033e8 g     F .text	0000000000000008 TEE_CacheClean
0000000000002094 g     F .text	000000000000000c _utee_get_property_name_to_index
000000000000ae80 g     F .text	00000000000000f8 mbedtls_mpi_core_montmul
000000000000c80c g     F .text	0000000000000070 raw_calloc
0000000000006dac g     F .text	0000000000000114 _base64_enc
000000000000b830 g     F .text	00000000000000b8 mbedtls_mpi_safe_cond_swap
00000000000021fc g     F .text	000000000000000c _utee_authenc_init
0000000000001508 g     F .text	000000000000001c strlen
0000000000004fd4 g     F .text	0000000000000270 TEE_BigIntComputeExtendedGcd
0000000000002280 g     F .text	000000000000000c _utee_storage_alloc_enum
0000000000004dfc g     F .text	00000000000001d8 TEE_BigIntExpMod
0000000000003018 g     F .text	0000000000000028 TEE_GetSystemTime
0000000000002244 g     F .text	000000000000000c _utee_asymm_verify
00000000000113c0 g     O .ta_head	0000000000000020 ta_head
000000000000c258 g     F .text	00000000000002c4 brel
0000000000001fa8 g     F .text	00000000000000b0 __ta_invoke_cmd
00000000000060dc g     F .text	00000000000000e8 __GP11_TEE_GetPropertyAsBinaryBlock
0000000000007c3c g     F .text	0000000000000114 mbedtls_mpi_sub_abs
0000000000009638 g     F .text	0000000000000068 mbedtls_mpi_fill_random
0000000000001f0c g     F .text	000000000000009c __ta_open_sess
0000000000002fdc g     F .text	000000000000000c TEE_SetInstanceData
00000000000020c4 g     F .text	000000000000000c _utee_get_cancellation_flag
000000000000a794 g     F .text	0000000000000024 mbedtls_mpi_core_cond_assign
0000000000008a58 g     F .text	0000000000000274 mbedtls_mpi_write_string
000000000000c9d8 g     F .text	0000000000000018 aligned_alloc
000000000000ae4c g     F .text	0000000000000034 mbedtls_mpi_core_montmul_init
00000000000052f4 g     F .text	0000000000000008 TEE_BigIntInitFMMContext1
000000000000af78 g     F .text	0000000000000068 mbedtls_mpi_core_get_mont_r2_unsafe
00000000000026d0 g     F .text	0000000000000028 TEE_CloseTASession
000000000000225c g     F .text	000000000000000c _utee_storage_obj_create
000000000000530c g     F .text	0000000000000018 __GP11_TEE_BigIntFMMSizeInU32
000000000000c9f0 g     F .text	0000000000000010 free
000000000000c6bc g     F .text	0000000000000094 bstats
0000000000015ea8 g     O .bss	0000000000000008 mbedtls_mpi_mempool
0000000000002154 g     F .text	000000000000000c _utee_hash_final



Disassembly of section .text:

0000000000000000 <memcpy>:
memcpy():
/home/build/bsp/optee_os/lib/libutils/isoc/newlib/memcpy.c:106
       0:	f1007c5f 	cmp	x2, #0x1f
       4:	54000629 	b.ls	c8 <memcpy+0xc8>  // b.plast
/home/build/bsp/optee_os/lib/libutils/isoc/newlib/memcpy.c:106 (discriminator 1)
       8:	aa010005 	orr	x5, x0, x1
       c:	f24008a5 	ands	x5, x5, #0x7
      10:	54000641 	b.ne	d8 <memcpy+0xd8>  // b.any
      14:	d1008048 	sub	x8, x2, #0x20
/home/build/bsp/optee_os/lib/libutils/isoc/newlib/memcpy.c:108
      18:	aa0103e3 	mov	x3, x1
      1c:	927be908 	and	x8, x8, #0xffffffffffffffe0
/home/build/bsp/optee_os/lib/libutils/isoc/newlib/memcpy.c:107
      20:	aa0003e4 	mov	x4, x0
      24:	91008108 	add	x8, x8, #0x20
      28:	8b080007 	add	x7, x0, x8
      2c:	d503201f 	nop
/home/build/bsp/optee_os/lib/libutils/isoc/newlib/memcpy.c:112
      30:	f9400066 	ldr	x6, [x3]
      34:	f9000086 	str	x6, [x4]
/home/build/bsp/optee_os/lib/libutils/isoc/newlib/memcpy.c:113
      38:	91008063 	add	x3, x3, #0x20
      3c:	91008084 	add	x4, x4, #0x20
      40:	f85e8066 	ldur	x6, [x3, #-24]
      44:	f81e8086 	stur	x6, [x4, #-24]
/home/build/bsp/optee_os/lib/libutils/isoc/newlib/memcpy.c:114
      48:	f85f0066 	ldur	x6, [x3, #-16]
      4c:	f81f0086 	stur	x6, [x4, #-16]
/home/build/bsp/optee_os/lib/libutils/isoc/newlib/memcpy.c:115
      50:	f85f8066 	ldur	x6, [x3, #-8]
      54:	f81f8086 	stur	x6, [x4, #-8]
/home/build/bsp/optee_os/lib/libutils/isoc/newlib/memcpy.c:111
      58:	eb0400ff 	cmp	x7, x4
      5c:	54fffea1 	b.ne	30 <memcpy+0x30>  // b.any
/home/build/bsp/optee_os/lib/libutils/isoc/newlib/memcpy.c:115
      60:	8b080021 	add	x1, x1, x8
/home/build/bsp/optee_os/lib/libutils/isoc/newlib/memcpy.c:116
      64:	92401043 	and	x3, x2, #0x1f
/home/build/bsp/optee_os/lib/libutils/isoc/newlib/memcpy.c:120
      68:	f27d045f 	tst	x2, #0x18
      6c:	540003c0 	b.eq	e4 <memcpy+0xe4>  // b.none
/home/build/bsp/optee_os/lib/libutils/isoc/newlib/memcpy.c:121
      70:	f8656826 	ldr	x6, [x1, x5]
      74:	f8256886 	str	x6, [x4, x5]
/home/build/bsp/optee_os/lib/libutils/isoc/newlib/memcpy.c:120
      78:	910020a5 	add	x5, x5, #0x8
      7c:	cb050066 	sub	x6, x3, x5
      80:	f1001cdf 	cmp	x6, #0x7
      84:	54ffff68 	b.hi	70 <memcpy+0x70>  // b.pmore
      88:	d1002063 	sub	x3, x3, #0x8
/home/build/bsp/optee_os/lib/libutils/isoc/newlib/memcpy.c:122
      8c:	92400842 	and	x2, x2, #0x7
      90:	927df063 	and	x3, x3, #0xfffffffffffffff8
/home/build/bsp/optee_os/lib/libutils/isoc/newlib/memcpy.c:130
      94:	d1000446 	sub	x6, x2, #0x1
      98:	91002063 	add	x3, x3, #0x8
/home/build/bsp/optee_os/lib/libutils/isoc/newlib/memcpy.c:121
      9c:	8b030084 	add	x4, x4, x3
      a0:	8b030021 	add	x1, x1, x3
/home/build/bsp/optee_os/lib/libutils/isoc/newlib/memcpy.c:130
      a4:	b4000102 	cbz	x2, c4 <memcpy+0xc4>
/home/build/bsp/optee_os/lib/libutils/isoc/newlib/memcpy.c:99
      a8:	d2800002 	mov	x2, #0x0                   	// #0
      ac:	d503201f 	nop
/home/build/bsp/optee_os/lib/libutils/isoc/newlib/memcpy.c:131
      b0:	38626825 	ldrb	w5, [x1, x2]
/home/build/bsp/optee_os/lib/libutils/isoc/newlib/memcpy.c:130
      b4:	eb0200df 	cmp	x6, x2
/home/build/bsp/optee_os/lib/libutils/isoc/newlib/memcpy.c:131
      b8:	38226885 	strb	w5, [x4, x2]
/home/build/bsp/optee_os/lib/libutils/isoc/newlib/memcpy.c:130
      bc:	91000442 	add	x2, x2, #0x1
      c0:	54ffff81 	b.ne	b0 <memcpy+0xb0>  // b.any
/home/build/bsp/optee_os/lib/libutils/isoc/newlib/memcpy.c:135
      c4:	d65f03c0 	ret
/home/build/bsp/optee_os/lib/libutils/isoc/newlib/memcpy.c:99
      c8:	aa0003e4 	mov	x4, x0
/home/build/bsp/optee_os/lib/libutils/isoc/newlib/memcpy.c:130
      cc:	d1000446 	sub	x6, x2, #0x1
      d0:	b5fffec2 	cbnz	x2, a8 <memcpy+0xa8>
/home/build/bsp/optee_os/lib/libutils/isoc/newlib/memcpy.c:135
      d4:	d65f03c0 	ret
/home/build/bsp/optee_os/lib/libutils/isoc/newlib/memcpy.c:130
      d8:	d1000446 	sub	x6, x2, #0x1
/home/build/bsp/optee_os/lib/libutils/isoc/newlib/memcpy.c:99
      dc:	aa0003e4 	mov	x4, x0
      e0:	17fffff2 	b	a8 <memcpy+0xa8>
/home/build/bsp/optee_os/lib/libutils/isoc/newlib/memcpy.c:120
      e4:	aa0303e2 	mov	x2, x3
      e8:	17fffff9 	b	cc <memcpy+0xcc>

00000000000000ec <TA_CreateEntryPoint>:
TA_CreateEntryPoint():
/home/build/bsp/optee_examples/test_performance/ta/test_performance_ta.c:38
      ec:	a9bf7bfd 	stp	x29, x30, [sp, #-16]!
/home/build/bsp/optee_examples/test_performance/ta/test_performance_ta.c:39
      f0:	52800023 	mov	w3, #0x1                   	// #1
      f4:	52800062 	mov	w2, #0x3                   	// #3
/home/build/bsp/optee_examples/test_performance/ta/test_performance_ta.c:38
      f8:	910003fd 	mov	x29, sp
/home/build/bsp/optee_examples/test_performance/ta/test_performance_ta.c:39
      fc:	528004e1 	mov	w1, #0x27                  	// #39
     100:	90000084 	adrp	x4, 10000 <__func__.0+0x28>
     104:	90000080 	adrp	x0, 10000 <__func__.0+0x28>
     108:	910ff084 	add	x4, x4, #0x3fc
     10c:	91132000 	add	x0, x0, #0x4c8
     110:	9400012e 	bl	5c8 <trace_printf>
/home/build/bsp/optee_examples/test_performance/ta/test_performance_ta.c:42
     114:	52800000 	mov	w0, #0x0                   	// #0
     118:	a8c17bfd 	ldp	x29, x30, [sp], #16
     11c:	d65f03c0 	ret

0000000000000120 <TA_DestroyEntryPoint>:
TA_DestroyEntryPoint():
/home/build/bsp/optee_examples/test_performance/ta/test_performance_ta.c:50
     120:	90000080 	adrp	x0, 10000 <__func__.0+0x28>
     124:	91132000 	add	x0, x0, #0x4c8
     128:	91005000 	add	x0, x0, #0x14
     12c:	90000084 	adrp	x4, 10000 <__func__.0+0x28>
     130:	52800023 	mov	w3, #0x1                   	// #1
     134:	910ff084 	add	x4, x4, #0x3fc
     138:	52800062 	mov	w2, #0x3                   	// #3
     13c:	52800641 	mov	w1, #0x32                  	// #50
     140:	14000122 	b	5c8 <trace_printf>

0000000000000144 <__GP11_TA_OpenSessionEntryPoint>:
__GP11_TA_OpenSessionEntryPoint():
/home/build/bsp/optee_examples/test_performance/ta/test_performance_ta.c:62
     144:	a9be7bfd 	stp	x29, x30, [sp, #-32]!
/home/build/bsp/optee_examples/test_performance/ta/test_performance_ta.c:68
     148:	90000084 	adrp	x4, 10000 <__func__.0+0x28>
     14c:	52800023 	mov	w3, #0x1                   	// #1
/home/build/bsp/optee_examples/test_performance/ta/test_performance_ta.c:62
     150:	910003fd 	mov	x29, sp
     154:	a90153f3 	stp	x19, x20, [sp, #16]
/home/build/bsp/optee_examples/test_performance/ta/test_performance_ta.c:68
     158:	90000093 	adrp	x19, 10000 <__func__.0+0x28>
     15c:	91132273 	add	x19, x19, #0x4c8
     160:	9100a673 	add	x19, x19, #0x29
/home/build/bsp/optee_examples/test_performance/ta/test_performance_ta.c:62
     164:	2a0003f4 	mov	w20, w0
/home/build/bsp/optee_examples/test_performance/ta/test_performance_ta.c:68
     168:	910ff084 	add	x4, x4, #0x3fc
     16c:	aa1303e0 	mov	x0, x19
     170:	52800062 	mov	w2, #0x3                   	// #3
     174:	52800881 	mov	w1, #0x44                  	// #68
     178:	94000114 	bl	5c8 <trace_printf>
/home/build/bsp/optee_examples/test_performance/ta/test_performance_ta.c:70
     17c:	35000194 	cbnz	w20, 1ac <__GP11_TA_OpenSessionEntryPoint+0x68>
/home/build/bsp/optee_examples/test_performance/ta/test_performance_ta.c:81
     180:	90000084 	adrp	x4, 10000 <__func__.0+0x28>
     184:	aa1303e0 	mov	x0, x19
     188:	91103084 	add	x4, x4, #0x40c
     18c:	52800023 	mov	w3, #0x1                   	// #1
     190:	52800042 	mov	w2, #0x2                   	// #2
     194:	52800a21 	mov	w1, #0x51                  	// #81
     198:	9400010c 	bl	5c8 <trace_printf>
/home/build/bsp/optee_examples/test_performance/ta/test_performance_ta.c:85
     19c:	2a1403e0 	mov	w0, w20
     1a0:	a94153f3 	ldp	x19, x20, [sp, #16]
     1a4:	a8c27bfd 	ldp	x29, x30, [sp], #32
     1a8:	d65f03c0 	ret
/home/build/bsp/optee_examples/test_performance/ta/test_performance_ta.c:71
     1ac:	129fff34 	mov	w20, #0xffff0006            	// #-65530
     1b0:	17fffffb 	b	19c <__GP11_TA_OpenSessionEntryPoint+0x58>

00000000000001b4 <TA_CloseSessionEntryPoint>:
TA_CloseSessionEntryPoint():
/home/build/bsp/optee_examples/test_performance/ta/test_performance_ta.c:94
     1b4:	90000080 	adrp	x0, 10000 <__func__.0+0x28>
     1b8:	91132000 	add	x0, x0, #0x4c8
     1bc:	91012400 	add	x0, x0, #0x49
     1c0:	90000084 	adrp	x4, 10000 <__func__.0+0x28>
     1c4:	52800023 	mov	w3, #0x1                   	// #1
     1c8:	91106884 	add	x4, x4, #0x41a
     1cc:	52800042 	mov	w2, #0x2                   	// #2
     1d0:	52800bc1 	mov	w1, #0x5e                  	// #94
     1d4:	140000fd 	b	5c8 <trace_printf>

00000000000001d8 <__GP11_TA_InvokeCommandEntryPoint>:
__GP11_TA_InvokeCommandEntryPoint():
/home/build/bsp/optee_examples/test_performance/ta/test_performance_ta.c:144
     1d8:	a9bd7bfd 	stp	x29, x30, [sp, #-48]!
     1dc:	910003fd 	mov	x29, sp
     1e0:	a90153f3 	stp	x19, x20, [sp, #16]
     1e4:	2a0103f3 	mov	w19, w1
     1e8:	a9025bf5 	stp	x21, x22, [sp, #32]
     1ec:	2a0203f6 	mov	w22, w2
     1f0:	aa0303f5 	mov	x21, x3
/home/build/bsp/optee_examples/test_performance/ta/test_performance_ta.c:147
     1f4:	34000121 	cbz	w1, 218 <__GP11_TA_InvokeCommandEntryPoint+0x40>
     1f8:	7100043f 	cmp	w1, #0x1
     1fc:	540005a0 	b.eq	2b0 <__GP11_TA_InvokeCommandEntryPoint+0xd8>  // b.none
inc_value():
/home/build/bsp/optee_examples/test_performance/ta/test_performance_ta.c:108
     200:	129fff33 	mov	w19, #0xffff0006            	// #-65530
__GP11_TA_InvokeCommandEntryPoint():
/home/build/bsp/optee_examples/test_performance/ta/test_performance_ta.c:157
     204:	2a1303e0 	mov	w0, w19
     208:	a94153f3 	ldp	x19, x20, [sp, #16]
     20c:	a9425bf5 	ldp	x21, x22, [sp, #32]
     210:	a8c37bfd 	ldp	x29, x30, [sp], #48
     214:	d65f03c0 	ret
/home/build/bsp/optee_examples/test_performance/ta/test_performance_ta.c:149
     218:	90000094 	adrp	x20, 10000 <__func__.0+0x28>
     21c:	91132294 	add	x20, x20, #0x4c8
     220:	91018e80 	add	x0, x20, #0x63
     224:	52800023 	mov	w3, #0x1                   	// #1
     228:	52800042 	mov	w2, #0x2                   	// #2
     22c:	528012a1 	mov	w1, #0x95                  	// #149
inc_value():
/home/build/bsp/optee_examples/test_performance/ta/test_performance_ta.c:105
     230:	91021694 	add	x20, x20, #0x85
__GP11_TA_InvokeCommandEntryPoint():
/home/build/bsp/optee_examples/test_performance/ta/test_performance_ta.c:149
     234:	90000084 	adrp	x4, 10000 <__func__.0+0x28>
     238:	91109084 	add	x4, x4, #0x424
     23c:	940000e3 	bl	5c8 <trace_printf>
inc_value():
/home/build/bsp/optee_examples/test_performance/ta/test_performance_ta.c:105
     240:	90000084 	adrp	x4, 10000 <__func__.0+0x28>
     244:	aa1403e0 	mov	x0, x20
     248:	910ff084 	add	x4, x4, #0x3fc
     24c:	52800023 	mov	w3, #0x1                   	// #1
     250:	52800062 	mov	w2, #0x3                   	// #3
     254:	52800d21 	mov	w1, #0x69                  	// #105
     258:	940000dc 	bl	5c8 <trace_printf>
/home/build/bsp/optee_examples/test_performance/ta/test_performance_ta.c:107
     25c:	71000edf 	cmp	w22, #0x3
     260:	54fffd01 	b.ne	200 <__GP11_TA_InvokeCommandEntryPoint+0x28>  // b.any
/home/build/bsp/optee_examples/test_performance/ta/test_performance_ta.c:110
     264:	b94002a5 	ldr	w5, [x21]
     268:	aa1403e0 	mov	x0, x20
     26c:	52800023 	mov	w3, #0x1                   	// #1
     270:	52800042 	mov	w2, #0x2                   	// #2
     274:	52800dc1 	mov	w1, #0x6e                  	// #110
     278:	90000084 	adrp	x4, 10000 <__func__.0+0x28>
     27c:	91115484 	add	x4, x4, #0x455
     280:	940000d2 	bl	5c8 <trace_printf>
/home/build/bsp/optee_examples/test_performance/ta/test_performance_ta.c:111
     284:	b94002a5 	ldr	w5, [x21]
/home/build/bsp/optee_examples/test_performance/ta/test_performance_ta.c:112
     288:	aa1403e0 	mov	x0, x20
     28c:	90000084 	adrp	x4, 10000 <__func__.0+0x28>
     290:	52800023 	mov	w3, #0x1                   	// #1
/home/build/bsp/optee_examples/test_performance/ta/test_performance_ta.c:111
     294:	110004a5 	add	w5, w5, #0x1
     298:	b90002a5 	str	w5, [x21]
/home/build/bsp/optee_examples/test_performance/ta/test_performance_ta.c:112
     29c:	9111ac84 	add	x4, x4, #0x46b
     2a0:	52800042 	mov	w2, #0x2                   	// #2
     2a4:	52800e01 	mov	w1, #0x70                  	// #112
     2a8:	940000c8 	bl	5c8 <trace_printf>
/home/build/bsp/optee_examples/test_performance/ta/test_performance_ta.c:114
     2ac:	17ffffd6 	b	204 <__GP11_TA_InvokeCommandEntryPoint+0x2c>
__GP11_TA_InvokeCommandEntryPoint():
/home/build/bsp/optee_examples/test_performance/ta/test_performance_ta.c:152
     2b0:	90000094 	adrp	x20, 10000 <__func__.0+0x28>
     2b4:	91132294 	add	x20, x20, #0x4c8
     2b8:	2a0103e3 	mov	w3, w1
     2bc:	91018e80 	add	x0, x20, #0x63
     2c0:	52800042 	mov	w2, #0x2                   	// #2
     2c4:	52801301 	mov	w1, #0x98                  	// #152
dec_value():
/home/build/bsp/optee_examples/test_performance/ta/test_performance_ta.c:125
     2c8:	91023e94 	add	x20, x20, #0x8f
__GP11_TA_InvokeCommandEntryPoint():
/home/build/bsp/optee_examples/test_performance/ta/test_performance_ta.c:152
     2cc:	90000084 	adrp	x4, 10000 <__func__.0+0x28>
     2d0:	91120484 	add	x4, x4, #0x481
     2d4:	940000bd 	bl	5c8 <trace_printf>
dec_value():
/home/build/bsp/optee_examples/test_performance/ta/test_performance_ta.c:125
     2d8:	90000084 	adrp	x4, 10000 <__func__.0+0x28>
     2dc:	2a1303e3 	mov	w3, w19
     2e0:	910ff084 	add	x4, x4, #0x3fc
     2e4:	aa1403e0 	mov	x0, x20
     2e8:	52800062 	mov	w2, #0x3                   	// #3
     2ec:	52800fa1 	mov	w1, #0x7d                  	// #125
     2f0:	940000b6 	bl	5c8 <trace_printf>
/home/build/bsp/optee_examples/test_performance/ta/test_performance_ta.c:127
     2f4:	71000edf 	cmp	w22, #0x3
     2f8:	54fff841 	b.ne	200 <__GP11_TA_InvokeCommandEntryPoint+0x28>  // b.any
/home/build/bsp/optee_examples/test_performance/ta/test_performance_ta.c:130
     2fc:	b94002a5 	ldr	w5, [x21]
     300:	2a1303e3 	mov	w3, w19
     304:	aa1403e0 	mov	x0, x20
     308:	52800042 	mov	w2, #0x2                   	// #2
     30c:	52801041 	mov	w1, #0x82                  	// #130
     310:	90000084 	adrp	x4, 10000 <__func__.0+0x28>
     314:	91115484 	add	x4, x4, #0x455
     318:	940000ac 	bl	5c8 <trace_printf>
/home/build/bsp/optee_examples/test_performance/ta/test_performance_ta.c:131
     31c:	b94002a5 	ldr	w5, [x21]
/home/build/bsp/optee_examples/test_performance/ta/test_performance_ta.c:132
     320:	2a1303e3 	mov	w3, w19
     324:	aa1403e0 	mov	x0, x20
     328:	90000084 	adrp	x4, 10000 <__func__.0+0x28>
/home/build/bsp/optee_examples/test_performance/ta/test_performance_ta.c:131
     32c:	510004a5 	sub	w5, w5, #0x1
     330:	b90002a5 	str	w5, [x21]
/home/build/bsp/optee_examples/test_performance/ta/test_performance_ta.c:132
     334:	9112c884 	add	x4, x4, #0x4b2
     338:	52800042 	mov	w2, #0x2                   	// #2
     33c:	52801081 	mov	w1, #0x84                  	// #132
/home/build/bsp/optee_examples/test_performance/ta/test_performance_ta.c:134
     340:	52800013 	mov	w19, #0x0                   	// #0
/home/build/bsp/optee_examples/test_performance/ta/test_performance_ta.c:132
     344:	940000a1 	bl	5c8 <trace_printf>
/home/build/bsp/optee_examples/test_performance/ta/test_performance_ta.c:134
     348:	17ffffaf 	b	204 <__GP11_TA_InvokeCommandEntryPoint+0x2c>

000000000000034c <__ta_entry>:
__ta_entry():
/home/build/bsp/optee_os/out/arm-plat-k3/export-ta_arm64/src/user_ta_header.c:51
     34c:	a9bf7bfd 	stp	x29, x30, [sp, #-16]!
     350:	910003fd 	mov	x29, sp
/home/build/bsp/optee_os/out/arm-plat-k3/export-ta_arm64/src/user_ta_header.c:70
     354:	9400061a 	bl	1bbc <__utee_entry>
/home/build/bsp/optee_os/out/arm-plat-k3/export-ta_arm64/src/user_ta_header.c:81
     358:	2a0003e0 	mov	w0, w0
     35c:	94000742 	bl	2064 <_utee_return>

0000000000000360 <tahead_get_trace_level>:
tahead_get_trace_level():
/home/build/bsp/optee_os/out/arm-plat-k3/export-ta_arm64/src/user_ta_header.c:193
     360:	52800080 	mov	w0, #0x4                   	// #4
     364:	d65f03c0 	ret

0000000000000368 <TA_OpenSessionEntryPoint>:
TA_OpenSessionEntryPoint():
/home/build/bsp/optee_os/out/arm-plat-k3/export-ta_arm64/src/user_ta_header.c:203
     368:	d0000083 	adrp	x3, 12000 <_DYNAMIC>
     36c:	f940cc63 	ldr	x3, [x3, #408]
     370:	140006e7 	b	1f0c <__ta_open_sess>

0000000000000374 <TA_InvokeCommandEntryPoint>:
TA_InvokeCommandEntryPoint():
/home/build/bsp/optee_os/out/arm-plat-k3/export-ta_arm64/src/user_ta_header.c:211
     374:	d0000084 	adrp	x4, 12000 <_DYNAMIC>
     378:	f940c084 	ldr	x4, [x4, #384]
     37c:	1400070b 	b	1fa8 <__ta_invoke_cmd>

0000000000000380 <trace_set_level>:
trace_set_level():
/home/build/bsp/optee_os/lib/libutils/ext/trace.c:29
     380:	7100141f 	cmp	w0, #0x5
     384:	52800081 	mov	w1, #0x4                   	// #4
     388:	1a813000 	csel	w0, w0, w1, cc  // cc = lo, ul, last
     38c:	d0000081 	adrp	x1, 12000 <_DYNAMIC>
     390:	f940a821 	ldr	x1, [x1, #336]
     394:	b9000020 	str	w0, [x1]
/home/build/bsp/optee_os/lib/libutils/ext/trace.c:30
     398:	d65f03c0 	ret

000000000000039c <trace_get_level>:
trace_get_level():
/home/build/bsp/optee_os/lib/libutils/ext/trace.c:34
     39c:	d0000080 	adrp	x0, 12000 <_DYNAMIC>
/home/build/bsp/optee_os/lib/libutils/ext/trace.c:35
     3a0:	f940a800 	ldr	x0, [x0, #336]
     3a4:	b9400000 	ldr	w0, [x0]
     3a8:	d65f03c0 	ret

00000000000003ac <trace_vprintf>:
trace_vprintf():
/home/build/bsp/optee_os/lib/libutils/ext/trace.c:129
     3ac:	a9a77bfd 	stp	x29, x30, [sp, #-400]!
     3b0:	910003fd 	mov	x29, sp
     3b4:	a9046bf9 	stp	x25, x26, [sp, #64]
     3b8:	2a0103f9 	mov	w25, w1
     3bc:	d0000081 	adrp	x1, 12000 <_DYNAMIC>
     3c0:	a9025bf5 	stp	x21, x22, [sp, #32]
     3c4:	aa0003f6 	mov	x22, x0
     3c8:	aa0103f5 	mov	x21, x1
     3cc:	f9409820 	ldr	x0, [x1, #304]
     3d0:	a90153f3 	stp	x19, x20, [sp, #16]
     3d4:	2a0203f3 	mov	w19, w2
     3d8:	a90363f7 	stp	x23, x24, [sp, #48]
     3dc:	aa0403f7 	mov	x23, x4
     3e0:	aa0503f8 	mov	x24, x5
     3e4:	a90573fb 	stp	x27, x28, [sp, #80]
/home/build/bsp/optee_os/lib/libutils/ext/trace.c:134
     3e8:	72001c7b 	ands	w27, w3, #0xff
/home/build/bsp/optee_os/lib/libutils/ext/trace.c:129
     3ec:	f9400002 	ldr	x2, [x0]
     3f0:	f900c7e2 	str	x2, [sp, #392]
     3f4:	d2800002 	mov	x2, #0x0                   	// #0
/home/build/bsp/optee_os/lib/libutils/ext/trace.c:134
     3f8:	54000b20 	b.eq	55c <trace_vprintf+0x1b0>  // b.none
/home/build/bsp/optee_os/lib/libutils/ext/trace.c:134 (discriminator 1)
     3fc:	f940a820 	ldr	x0, [x1, #336]
     400:	b9400000 	ldr	w0, [x0]
     404:	6b13001f 	cmp	w0, w19
     408:	540009cb 	b.lt	540 <trace_vprintf+0x194>  // b.tstop
trace_level_to_string():
/home/build/bsp/optee_os/lib/libutils/ext/trace.c:52
     40c:	7100127f 	cmp	w19, #0x4
/home/build/bsp/optee_os/lib/libutils/ext/trace.c:55
     410:	90000080 	adrp	x0, 10000 <__func__.0+0x28>
/home/build/bsp/optee_os/lib/libutils/ext/trace.c:52
     414:	1a9f9261 	csel	w1, w19, wzr, ls  // ls = plast
/home/build/bsp/optee_os/lib/libutils/ext/trace.c:55
     418:	911b6800 	add	x0, x0, #0x6da
     41c:	3861c803 	ldrb	w3, [x0, w1, sxtw]
trace_vprintf():
/home/build/bsp/optee_os/lib/libutils/ext/trace.c:138
     420:	910223f4 	add	x20, sp, #0x88
     424:	90000082 	adrp	x2, 10000 <__func__.0+0x28>
     428:	aa1403e0 	mov	x0, x20
     42c:	911b0042 	add	x2, x2, #0x6c0
     430:	d2802001 	mov	x1, #0x100                 	// #256
     434:	940000f2 	bl	7fc <snprintk>
/home/build/bsp/optee_os/lib/libutils/ext/trace.c:140
     438:	37f80840 	tbnz	w0, #31, 540 <trace_vprintf+0x194>
/home/build/bsp/optee_os/lib/libutils/ext/trace.c:145
     43c:	f940b2a3 	ldr	x3, [x21, #352]
     440:	d280201c 	mov	x28, #0x100                 	// #256
/home/build/bsp/optee_os/lib/libutils/ext/trace.c:142
     444:	93407c1a 	sxtw	x26, w0
/home/build/bsp/optee_os/lib/libutils/ext/trace.c:145
     448:	cb20c381 	sub	x1, x28, w0, sxtw
     44c:	90000082 	adrp	x2, 10000 <__func__.0+0x28>
     450:	8b20c280 	add	x0, x20, w0, sxtw
     454:	911b1042 	add	x2, x2, #0x6c4
     458:	940000e9 	bl	7fc <snprintk>
/home/build/bsp/optee_os/lib/libutils/ext/trace.c:147
     45c:	37f80720 	tbnz	w0, #31, 540 <trace_vprintf+0x194>
/home/build/bsp/optee_os/lib/libutils/ext/trace.c:149
     460:	8b20c35a 	add	x26, x26, w0, sxtw
/home/build/bsp/optee_os/lib/libutils/ext/trace.c:151
     464:	3400093b 	cbz	w27, 588 <trace_vprintf+0x1dc>
/home/build/bsp/optee_os/lib/libutils/ext/trace.c:151 (discriminator 1)
     468:	52800340 	mov	w0, #0x1a                  	// #26
     46c:	1ad32400 	lsr	w0, w0, w19
     470:	360008c0 	tbz	w0, #0, 588 <trace_vprintf+0x1dc>
print_thread_id():
/home/build/bsp/optee_os/lib/libutils/ext/trace.c:67
     474:	94000436 	bl	154c <trace_ext_get_thread_id>
trace_vprintf():
/home/build/bsp/optee_os/lib/libutils/ext/trace.c:153
     478:	8b1a029b 	add	x27, x20, x26
     47c:	cb1a039c 	sub	x28, x28, x26
print_thread_id():
/home/build/bsp/optee_os/lib/libutils/ext/trace.c:67
     480:	2a0003e4 	mov	w4, w0
/home/build/bsp/optee_os/lib/libutils/ext/trace.c:69
     484:	37f80700 	tbnz	w0, #31, 564 <trace_vprintf+0x1b8>
/home/build/bsp/optee_os/lib/libutils/ext/trace.c:70
     488:	90000082 	adrp	x2, 10000 <__func__.0+0x28>
     48c:	aa1c03e1 	mov	x1, x28
     490:	911b2042 	add	x2, x2, #0x6c8
     494:	aa1b03e0 	mov	x0, x27
     498:	52800023 	mov	w3, #0x1                   	// #1
     49c:	940000d8 	bl	7fc <snprintk>
trace_vprintf():
/home/build/bsp/optee_os/lib/libutils/ext/trace.c:166
     4a0:	37f80500 	tbnz	w0, #31, 540 <trace_vprintf+0x194>
/home/build/bsp/optee_os/lib/libutils/ext/trace.c:168
     4a4:	8b20c353 	add	x19, x26, w0, sxtw
/home/build/bsp/optee_os/lib/libutils/ext/trace.c:170
     4a8:	b4000176 	cbz	x22, 4d4 <trace_vprintf+0x128>
/home/build/bsp/optee_os/lib/libutils/ext/trace.c:171
     4ac:	90000082 	adrp	x2, 10000 <__func__.0+0x28>
     4b0:	d2802001 	mov	x1, #0x100                 	// #256
     4b4:	2a1903e4 	mov	w4, w25
     4b8:	aa1603e3 	mov	x3, x22
     4bc:	911b4c42 	add	x2, x2, #0x6d3
     4c0:	cb130021 	sub	x1, x1, x19
     4c4:	8b130280 	add	x0, x20, x19
     4c8:	940000cd 	bl	7fc <snprintk>
/home/build/bsp/optee_os/lib/libutils/ext/trace.c:173
     4cc:	37f803a0 	tbnz	w0, #31, 540 <trace_vprintf+0x194>
/home/build/bsp/optee_os/lib/libutils/ext/trace.c:175
     4d0:	8b20c273 	add	x19, x19, w0, sxtw
/home/build/bsp/optee_os/lib/libutils/ext/trace.c:185
     4d4:	910183e3 	add	x3, sp, #0x60
     4d8:	aa1803e1 	mov	x1, x24
     4dc:	aa0303e0 	mov	x0, x3
     4e0:	d2800402 	mov	x2, #0x20                  	// #32
     4e4:	97fffec7 	bl	0 <memcpy>
     4e8:	aa0003e3 	mov	x3, x0
     4ec:	d2802001 	mov	x1, #0x100                 	// #256
     4f0:	aa1703e2 	mov	x2, x23
     4f4:	cb130021 	sub	x1, x1, x19
     4f8:	8b130280 	add	x0, x20, x19
     4fc:	940000aa 	bl	7a4 <vsnprintk>
/home/build/bsp/optee_os/lib/libutils/ext/trace.c:186
     500:	7100001f 	cmp	w0, #0x0
     504:	5400004d 	b.le	50c <trace_vprintf+0x160>
/home/build/bsp/optee_os/lib/libutils/ext/trace.c:187
     508:	8b20c273 	add	x19, x19, w0, sxtw
/home/build/bsp/optee_os/lib/libutils/ext/trace.c:189
     50c:	f103fa7f 	cmp	x19, #0xfe
     510:	d2801fc0 	mov	x0, #0xfe                  	// #254
     514:	9a809273 	csel	x19, x19, x0, ls  // ls = plast
/home/build/bsp/optee_os/lib/libutils/ext/trace.c:192
     518:	52800140 	mov	w0, #0xa                   	// #10
     51c:	38336a80 	strb	w0, [x20, x19]
/home/build/bsp/optee_os/lib/libutils/ext/trace.c:193
     520:	b4000093 	cbz	x19, 530 <trace_vprintf+0x184>
/home/build/bsp/optee_os/lib/libutils/ext/trace.c:193 (discriminator 1)
     524:	38736a80 	ldrb	w0, [x20, x19]
     528:	7100281f 	cmp	w0, #0xa
     52c:	540003c0 	b.eq	5a4 <trace_vprintf+0x1f8>  // b.none
/home/build/bsp/optee_os/lib/libutils/ext/trace.c:196
     530:	91022be0 	add	x0, sp, #0x8a
     534:	3833681f 	strb	wzr, [x0, x19]
/home/build/bsp/optee_os/lib/libutils/ext/trace.c:198
     538:	aa1403e0 	mov	x0, x20
     53c:	940003fa 	bl	1524 <trace_ext_puts>
/home/build/bsp/optee_os/lib/libutils/ext/trace.c:199
     540:	f9409ab5 	ldr	x21, [x21, #304]
     544:	f940c7e0 	ldr	x0, [sp, #392]
     548:	f94002a1 	ldr	x1, [x21]
     54c:	eb010000 	subs	x0, x0, x1
     550:	d2800001 	mov	x1, #0x0                   	// #0
     554:	540002c0 	b.eq	5ac <trace_vprintf+0x200>  // b.none
     558:	94000056 	bl	6b0 <__stack_chk_fail>
trace_level_to_string():
/home/build/bsp/optee_os/lib/libutils/ext/trace.c:50
     55c:	528009a3 	mov	w3, #0x4d                  	// #77
     560:	17ffffb0 	b	420 <trace_vprintf+0x74>
print_thread_id():
/home/build/bsp/optee_os/lib/libutils/ext/trace.c:72
     564:	aa1c03e1 	mov	x1, x28
     568:	aa1b03e0 	mov	x0, x27
     56c:	90000084 	adrp	x4, 10000 <__func__.0+0x28>
     570:	52800023 	mov	w3, #0x1                   	// #1
     574:	91106484 	add	x4, x4, #0x419
     578:	90000082 	adrp	x2, 10000 <__func__.0+0x28>
     57c:	911b3842 	add	x2, x2, #0x6ce
     580:	9400009f 	bl	7fc <snprintk>
     584:	17ffffc7 	b	4a0 <trace_vprintf+0xf4>
trace_vprintf():
/home/build/bsp/optee_os/lib/libutils/ext/trace.c:179
     588:	f103fb5f 	cmp	x26, #0xfe
     58c:	54fffda8 	b.hi	540 <trace_vprintf+0x194>  // b.pmore
/home/build/bsp/optee_os/lib/libutils/ext/trace.c:181
     590:	91000753 	add	x19, x26, #0x1
     594:	52800400 	mov	w0, #0x20                  	// #32
     598:	383a6a80 	strb	w0, [x20, x26]
/home/build/bsp/optee_os/lib/libutils/ext/trace.c:182
     59c:	38336a9f 	strb	wzr, [x20, x19]
     5a0:	17ffffcd 	b	4d4 <trace_vprintf+0x128>
/home/build/bsp/optee_os/lib/libutils/ext/trace.c:194
     5a4:	d1000673 	sub	x19, x19, #0x1
     5a8:	17ffffde 	b	520 <trace_vprintf+0x174>
/home/build/bsp/optee_os/lib/libutils/ext/trace.c:199
     5ac:	a94153f3 	ldp	x19, x20, [sp, #16]
     5b0:	a9425bf5 	ldp	x21, x22, [sp, #32]
     5b4:	a94363f7 	ldp	x23, x24, [sp, #48]
     5b8:	a9446bf9 	ldp	x25, x26, [sp, #64]
     5bc:	a94573fb 	ldp	x27, x28, [sp, #80]
     5c0:	a8d97bfd 	ldp	x29, x30, [sp], #400
     5c4:	d65f03c0 	ret

00000000000005c8 <trace_printf>:
trace_printf():
/home/build/bsp/optee_os/lib/libutils/ext/trace.c:120
     5c8:	a9ad7bfd 	stp	x29, x30, [sp, #-304]!
     5cc:	910003fd 	mov	x29, sp
     5d0:	a90153f3 	stp	x19, x20, [sp, #16]
     5d4:	d0000093 	adrp	x19, 12000 <_DYNAMIC>
     5d8:	aa0003f4 	mov	x20, x0
     5dc:	f9409a60 	ldr	x0, [x19, #304]
     5e0:	a9025bf5 	stp	x21, x22, [sp, #32]
     5e4:	2a0103f5 	mov	w21, w1
     5e8:	a90363f7 	stp	x23, x24, [sp, #48]
     5ec:	2a0203f6 	mov	w22, w2
     5f0:	12001c78 	and	w24, w3, #0xff
     5f4:	3d8027e0 	str	q0, [sp, #144]
     5f8:	aa0403f7 	mov	x23, x4
/home/build/bsp/optee_os/lib/libutils/ext/trace.c:124
     5fc:	d2800402 	mov	x2, #0x20                  	// #32
/home/build/bsp/optee_os/lib/libutils/ext/trace.c:120
     600:	3d802be1 	str	q1, [sp, #160]
     604:	3d802fe2 	str	q2, [sp, #176]
     608:	3d8033e3 	str	q3, [sp, #192]
     60c:	3d8037e4 	str	q4, [sp, #208]
     610:	3d803be5 	str	q5, [sp, #224]
     614:	3d803fe6 	str	q6, [sp, #240]
     618:	3d8043e7 	str	q7, [sp, #256]
     61c:	a9119be5 	stp	x5, x6, [sp, #280]
/home/build/bsp/optee_os/lib/libutils/ext/trace.c:124
     620:	910103e5 	add	x5, sp, #0x40
/home/build/bsp/optee_os/lib/libutils/ext/trace.c:120
     624:	f90097e7 	str	x7, [sp, #296]
     628:	f9400001 	ldr	x1, [x0]
     62c:	f90047e1 	str	x1, [sp, #136]
     630:	d2800001 	mov	x1, #0x0                   	// #0
/home/build/bsp/optee_os/lib/libutils/ext/trace.c:123
     634:	9104c3e0 	add	x0, sp, #0x130
     638:	a90683e0 	stp	x0, x0, [sp, #104]
     63c:	910443e0 	add	x0, sp, #0x110
/home/build/bsp/optee_os/lib/libutils/ext/trace.c:124
     640:	9101a3e1 	add	x1, sp, #0x68
/home/build/bsp/optee_os/lib/libutils/ext/trace.c:123
     644:	f9003fe0 	str	x0, [sp, #120]
     648:	128002e0 	mov	w0, #0xffffffe8            	// #-24
     64c:	b90083e0 	str	w0, [sp, #128]
     650:	12800fe0 	mov	w0, #0xffffff80            	// #-128
     654:	b90087e0 	str	w0, [sp, #132]
/home/build/bsp/optee_os/lib/libutils/ext/trace.c:124
     658:	aa0503e0 	mov	x0, x5
     65c:	97fffe69 	bl	0 <memcpy>
     660:	aa0003e5 	mov	x5, x0
     664:	2a1503e1 	mov	w1, w21
     668:	aa1403e0 	mov	x0, x20
     66c:	aa1703e4 	mov	x4, x23
     670:	2a1803e3 	mov	w3, w24
     674:	2a1603e2 	mov	w2, w22
     678:	97ffff4d 	bl	3ac <trace_vprintf>
/home/build/bsp/optee_os/lib/libutils/ext/trace.c:126
     67c:	f9409a73 	ldr	x19, [x19, #304]
     680:	f94047e0 	ldr	x0, [sp, #136]
     684:	f9400261 	ldr	x1, [x19]
     688:	eb010000 	subs	x0, x0, x1
     68c:	d2800001 	mov	x1, #0x0                   	// #0
     690:	54000040 	b.eq	698 <trace_printf+0xd0>  // b.none
     694:	94000007 	bl	6b0 <__stack_chk_fail>
     698:	a94153f3 	ldp	x19, x20, [sp, #16]
     69c:	a9425bf5 	ldp	x21, x22, [sp, #32]
     6a0:	a94363f7 	ldp	x23, x24, [sp, #48]
     6a4:	a8d37bfd 	ldp	x29, x30, [sp], #304
     6a8:	d65f03c0 	ret

00000000000006ac <dhex_dump>:
dhex_dump():
/home/build/bsp/optee_os/lib/libutils/ext/trace.c:309
     6ac:	d65f03c0 	ret

00000000000006b0 <__stack_chk_fail>:
__stack_chk_fail():
/home/build/bsp/optee_os/lib/libutils/isoc/stack_check.c:24
     6b0:	a9bf7bfd 	stp	x29, x30, [sp, #-16]!
/home/build/bsp/optee_os/lib/libutils/isoc/stack_check.c:25
     6b4:	90000084 	adrp	x4, 10000 <__func__.0+0x28>
     6b8:	52800023 	mov	w3, #0x1                   	// #1
/home/build/bsp/optee_os/lib/libutils/isoc/stack_check.c:24
     6bc:	910003fd 	mov	x29, sp
/home/build/bsp/optee_os/lib/libutils/isoc/stack_check.c:25
     6c0:	911b7c84 	add	x4, x4, #0x6df
     6c4:	52800022 	mov	w2, #0x1                   	// #1
     6c8:	52800001 	mov	w1, #0x0                   	// #0
     6cc:	d2800000 	mov	x0, #0x0                   	// #0
     6d0:	97ffffbe 	bl	5c8 <trace_printf>
/home/build/bsp/optee_os/lib/libutils/isoc/stack_check.c:27 (discriminator 1)
     6d4:	1299fe00 	mov	w0, #0xffff300f            	// #-53233
     6d8:	94000660 	bl	2058 <_utee_panic>
/home/build/bsp/optee_os/lib/libutils/isoc/stack_check.c:26 (discriminator 1)
     6dc:	17fffffe 	b	6d4 <__stack_chk_fail+0x24>

00000000000006e0 <__vsnprintf>:
__vsnprintf():
/home/build/bsp/optee_os/lib/libutils/ext/snprintk.c:138
     6e0:	a9b97bfd 	stp	x29, x30, [sp, #-112]!
     6e4:	d0000085 	adrp	x5, 12000 <_DYNAMIC>
     6e8:	910003fd 	mov	x29, sp
     6ec:	f94098a5 	ldr	x5, [x5, #304]
     6f0:	a90153f3 	stp	x19, x20, [sp, #16]
     6f4:	aa0103f4 	mov	x20, x1
     6f8:	a9025bf5 	stp	x21, x22, [sp, #32]
     6fc:	aa0003f3 	mov	x19, x0
/home/build/bsp/optee_os/lib/libutils/ext/snprintk.c:142
     700:	8b140016 	add	x22, x0, x20
/home/build/bsp/optee_os/lib/libutils/ext/snprintk.c:138
     704:	f9001bf7 	str	x23, [sp, #48]
     708:	aa0303e1 	mov	x1, x3
     70c:	aa0203f5 	mov	x21, x2
     710:	12001c97 	and	w23, w4, #0xff
     714:	f94000a0 	ldr	x0, [x5]
     718:	f90037e0 	str	x0, [sp, #104]
     71c:	d2800000 	mov	x0, #0x0                   	// #0
/home/build/bsp/optee_os/lib/libutils/ext/snprintk.c:143
     720:	910103e5 	add	x5, sp, #0x40
     724:	aa0503e0 	mov	x0, x5
     728:	d2800402 	mov	x2, #0x20                  	// #32
/home/build/bsp/optee_os/lib/libutils/ext/snprintk.c:142
     72c:	f90033f6 	str	x22, [sp, #96]
/home/build/bsp/optee_os/lib/libutils/ext/snprintk.c:143
     730:	97fffe34 	bl	0 <memcpy>
     734:	aa0003e3 	mov	x3, x0
     738:	2a1703e4 	mov	w4, w23
     73c:	aa1303e2 	mov	x2, x19
     740:	910183e1 	add	x1, sp, #0x60
     744:	aa1503e0 	mov	x0, x21
     748:	94000061 	bl	8cc <kprintf.constprop.0>
/home/build/bsp/optee_os/lib/libutils/ext/snprintk.c:144
     74c:	f100027f 	cmp	x19, #0x0
     750:	fa401a84 	ccmp	x20, #0x0, #0x4, ne  // ne = any
     754:	540000a0 	b.eq	768 <__vsnprintf+0x88>  // b.none
/home/build/bsp/optee_os/lib/libutils/ext/snprintk.c:146
     758:	93407c01 	sxtw	x1, w0
     75c:	eb20c29f 	cmp	x20, w0, sxtw
     760:	54000148 	b.hi	788 <__vsnprintf+0xa8>  // b.pmore
/home/build/bsp/optee_os/lib/libutils/ext/snprintk.c:147
     764:	381ff2df 	sturb	wzr, [x22, #-1]
/home/build/bsp/optee_os/lib/libutils/ext/snprintk.c:152
     768:	d0000085 	adrp	x5, 12000 <_DYNAMIC>
     76c:	f94098a5 	ldr	x5, [x5, #304]
     770:	f94037e1 	ldr	x1, [sp, #104]
     774:	f94000a2 	ldr	x2, [x5]
     778:	eb020021 	subs	x1, x1, x2
     77c:	d2800002 	mov	x2, #0x0                   	// #0
     780:	54000080 	b.eq	790 <__vsnprintf+0xb0>  // b.none
     784:	97ffffcb 	bl	6b0 <__stack_chk_fail>
/home/build/bsp/optee_os/lib/libutils/ext/snprintk.c:149
     788:	38216a7f 	strb	wzr, [x19, x1]
/home/build/bsp/optee_os/lib/libutils/ext/snprintk.c:151
     78c:	17fffff7 	b	768 <__vsnprintf+0x88>
/home/build/bsp/optee_os/lib/libutils/ext/snprintk.c:152
     790:	a94153f3 	ldp	x19, x20, [sp, #16]
     794:	a9425bf5 	ldp	x21, x22, [sp, #32]
     798:	f9401bf7 	ldr	x23, [sp, #48]
     79c:	a8c77bfd 	ldp	x29, x30, [sp], #112
     7a0:	d65f03c0 	ret

00000000000007a4 <vsnprintk>:
vsnprintk():
/home/build/bsp/optee_os/lib/libutils/ext/snprintk.c:130
     7a4:	a9bb7bfd 	stp	x29, x30, [sp, #-80]!
/home/build/bsp/optee_os/lib/libutils/ext/snprintk.c:131
     7a8:	9100c3e4 	add	x4, sp, #0x30
/home/build/bsp/optee_os/lib/libutils/ext/snprintk.c:130
     7ac:	910003fd 	mov	x29, sp
     7b0:	a90153f3 	stp	x19, x20, [sp, #16]
     7b4:	aa0003f3 	mov	x19, x0
     7b8:	aa0103f4 	mov	x20, x1
/home/build/bsp/optee_os/lib/libutils/ext/snprintk.c:131
     7bc:	aa0403e0 	mov	x0, x4
/home/build/bsp/optee_os/lib/libutils/ext/snprintk.c:130
     7c0:	aa0303e1 	mov	x1, x3
     7c4:	f90013f5 	str	x21, [sp, #32]
     7c8:	aa0203f5 	mov	x21, x2
/home/build/bsp/optee_os/lib/libutils/ext/snprintk.c:131
     7cc:	d2800402 	mov	x2, #0x20                  	// #32
     7d0:	97fffe0c 	bl	0 <memcpy>
     7d4:	aa1503e2 	mov	x2, x21
     7d8:	aa0003e3 	mov	x3, x0
     7dc:	aa1403e1 	mov	x1, x20
     7e0:	aa1303e0 	mov	x0, x19
     7e4:	52800024 	mov	w4, #0x1                   	// #1
     7e8:	97ffffbe 	bl	6e0 <__vsnprintf>
/home/build/bsp/optee_os/lib/libutils/ext/snprintk.c:132
     7ec:	a94153f3 	ldp	x19, x20, [sp, #16]
     7f0:	f94013f5 	ldr	x21, [sp, #32]
     7f4:	a8c57bfd 	ldp	x29, x30, [sp], #80
     7f8:	d65f03c0 	ret

00000000000007fc <snprintk>:
snprintk():
/home/build/bsp/optee_os/lib/libutils/ext/snprintk.c:113
     7fc:	a9ad7bfd 	stp	x29, x30, [sp, #-304]!
     800:	910003fd 	mov	x29, sp
     804:	a90153f3 	stp	x19, x20, [sp, #16]
     808:	d0000093 	adrp	x19, 12000 <_DYNAMIC>
     80c:	aa0003f4 	mov	x20, x0
     810:	f9409a60 	ldr	x0, [x19, #304]
     814:	a9025bf5 	stp	x21, x22, [sp, #32]
     818:	aa0103f5 	mov	x21, x1
     81c:	3d8023e0 	str	q0, [sp, #128]
     820:	aa0203f6 	mov	x22, x2
/home/build/bsp/optee_os/lib/libutils/ext/snprintk.c:118
     824:	d2800402 	mov	x2, #0x20                  	// #32
/home/build/bsp/optee_os/lib/libutils/ext/snprintk.c:113
     828:	3d8027e1 	str	q1, [sp, #144]
     82c:	3d802be2 	str	q2, [sp, #160]
     830:	3d802fe3 	str	q3, [sp, #176]
     834:	3d8033e4 	str	q4, [sp, #192]
     838:	3d8037e5 	str	q5, [sp, #208]
     83c:	3d803be6 	str	q6, [sp, #224]
     840:	3d803fe7 	str	q7, [sp, #240]
     844:	a91093e3 	stp	x3, x4, [sp, #264]
/home/build/bsp/optee_os/lib/libutils/ext/snprintk.c:118
     848:	9100c3e3 	add	x3, sp, #0x30
/home/build/bsp/optee_os/lib/libutils/ext/snprintk.c:113
     84c:	a9119be5 	stp	x5, x6, [sp, #280]
     850:	f90097e7 	str	x7, [sp, #296]
     854:	f9400001 	ldr	x1, [x0]
     858:	f9003fe1 	str	x1, [sp, #120]
     85c:	d2800001 	mov	x1, #0x0                   	// #0
/home/build/bsp/optee_os/lib/libutils/ext/snprintk.c:117
     860:	9104c3e0 	add	x0, sp, #0x130
     864:	a90583e0 	stp	x0, x0, [sp, #88]
     868:	910403e0 	add	x0, sp, #0x100
/home/build/bsp/optee_os/lib/libutils/ext/snprintk.c:118
     86c:	910163e1 	add	x1, sp, #0x58
/home/build/bsp/optee_os/lib/libutils/ext/snprintk.c:117
     870:	f90037e0 	str	x0, [sp, #104]
     874:	128004e0 	mov	w0, #0xffffffd8            	// #-40
     878:	b90073e0 	str	w0, [sp, #112]
     87c:	12800fe0 	mov	w0, #0xffffff80            	// #-128
     880:	b90077e0 	str	w0, [sp, #116]
/home/build/bsp/optee_os/lib/libutils/ext/snprintk.c:118
     884:	aa0303e0 	mov	x0, x3
     888:	97fffdde 	bl	0 <memcpy>
     88c:	aa0003e3 	mov	x3, x0
     890:	aa1603e2 	mov	x2, x22
     894:	aa1503e1 	mov	x1, x21
     898:	aa1403e0 	mov	x0, x20
     89c:	97ffffc2 	bl	7a4 <vsnprintk>
/home/build/bsp/optee_os/lib/libutils/ext/snprintk.c:122
     8a0:	f9409a73 	ldr	x19, [x19, #304]
     8a4:	f9403fe1 	ldr	x1, [sp, #120]
     8a8:	f9400262 	ldr	x2, [x19]
     8ac:	eb020021 	subs	x1, x1, x2
     8b0:	d2800002 	mov	x2, #0x0                   	// #0
     8b4:	54000040 	b.eq	8bc <snprintk+0xc0>  // b.none
     8b8:	97ffff7e 	bl	6b0 <__stack_chk_fail>
     8bc:	a94153f3 	ldp	x19, x20, [sp, #16]
     8c0:	a9425bf5 	ldp	x21, x22, [sp, #32]
     8c4:	a8d37bfd 	ldp	x29, x30, [sp], #304
     8c8:	d65f03c0 	ret

00000000000008cc <kprintf.constprop.0>:
kprintf():
/home/build/bsp/optee_os/lib/libutils/ext/snprintk.c:242
     8cc:	d103c3ff 	sub	sp, sp, #0xf0
     8d0:	aa0103e9 	mov	x9, x1
     8d4:	a9037bfd 	stp	x29, x30, [sp, #48]
     8d8:	9100c3fd 	add	x29, sp, #0x30
     8dc:	a90873fb 	stp	x27, x28, [sp, #128]
     8e0:	aa0003fc 	mov	x28, x0
     8e4:	12001c80 	and	w0, w4, #0xff
     8e8:	b900abe0 	str	w0, [sp, #168]
     8ec:	d0000080 	adrp	x0, 12000 <_DYNAMIC>
     8f0:	a90453f3 	stp	x19, x20, [sp, #64]
     8f4:	b9401874 	ldr	w20, [x3, #24]
     8f8:	f9409800 	ldr	x0, [x0, #304]
     8fc:	a9055bf5 	stp	x21, x22, [sp, #80]
     900:	aa0203f6 	mov	x22, x2
     904:	a90663f7 	stp	x23, x24, [sp, #96]
     908:	a9076bf9 	stp	x25, x26, [sp, #112]
     90c:	f9400001 	ldr	x1, [x0]
     910:	f90077e1 	str	x1, [sp, #232]
     914:	d2800001 	mov	x1, #0x0                   	// #0
     918:	a9406c73 	ldp	x19, x27, [x3]
/home/build/bsp/optee_os/lib/libutils/ext/snprintk.c:264
     91c:	b4000489 	cbz	x9, 9ac <kprintf.constprop.0+0xe0>
/home/build/bsp/optee_os/lib/libutils/ext/snprintk.c:265
     920:	f9400139 	ldr	x25, [x9]
/home/build/bsp/optee_os/lib/libutils/ext/snprintk.c:297
     924:	f0000078 	adrp	x24, f000 <__text_end+0x1e98>
/home/build/bsp/optee_os/lib/libutils/ext/snprintk.c:275
     928:	d2800017 	mov	x23, #0x0                   	// #0
/home/build/bsp/optee_os/lib/libutils/ext/snprintk.c:297
     92c:	913fc300 	add	x0, x24, #0xff0
/home/build/bsp/optee_os/lib/libutils/ext/snprintk.c:273
     930:	5280001a 	mov	w26, #0x0                   	// #0
/home/build/bsp/optee_os/lib/libutils/ext/snprintk.c:297
     934:	f9004fe0 	str	x0, [sp, #152]
/home/build/bsp/optee_os/lib/libutils/ext/snprintk.c:281
     938:	39400380 	ldrb	w0, [x28]
     93c:	7100941f 	cmp	w0, #0x25
     940:	7a401804 	ccmp	w0, #0x0, #0x4, ne  // ne = any
     944:	54000381 	b.ne	9b4 <kprintf.constprop.0+0xe8>  // b.any
/home/build/bsp/optee_os/lib/libutils/ext/snprintk.c:285
     948:	340051a0 	cbz	w0, 137c <kprintf.constprop.0+0xab0>
/home/build/bsp/optee_os/lib/libutils/ext/snprintk.c:293
     94c:	12800005 	mov	w5, #0xffffffff            	// #-1
/home/build/bsp/optee_os/lib/libutils/ext/snprintk.c:297
     950:	90000082 	adrp	x2, 10000 <__func__.0+0x28>
/home/build/bsp/optee_os/lib/libutils/ext/snprintk.c:288
     954:	9100079c 	add	x28, x28, #0x1
     958:	2a1403e4 	mov	w4, w20
     95c:	aa1303e3 	mov	x3, x19
/home/build/bsp/optee_os/lib/libutils/ext/snprintk.c:297
     960:	91003042 	add	x2, x2, #0xc
/home/build/bsp/optee_os/lib/libutils/ext/snprintk.c:330
     964:	2a0503e7 	mov	w7, w5
/home/build/bsp/optee_os/lib/libutils/ext/snprintk.c:294
     968:	52800001 	mov	w1, #0x0                   	// #0
/home/build/bsp/optee_os/lib/libutils/ext/snprintk.c:292
     96c:	5280000b 	mov	w11, #0x0                   	// #0
/home/build/bsp/optee_os/lib/libutils/ext/snprintk.c:290
     970:	52800015 	mov	w21, #0x0                   	// #0
/home/build/bsp/optee_os/lib/libutils/ext/snprintk.c:305
     974:	5280040d 	mov	w13, #0x20                  	// #32
/home/build/bsp/optee_os/lib/libutils/ext/snprintk.c:296
     978:	38401798 	ldrb	w24, [x28], #1
/home/build/bsp/optee_os/lib/libutils/ext/snprintk.c:297
     97c:	7100e71f 	cmp	w24, #0x39
     980:	5400036c 	b.gt	9ec <kprintf.constprop.0+0x120>
     984:	71007f1f 	cmp	w24, #0x1f
     988:	54004f8d 	b.le	1378 <kprintf.constprop.0+0xaac>
     98c:	51008300 	sub	w0, w24, #0x20
     990:	7100641f 	cmp	w0, #0x19
     994:	54000328 	b.hi	9f8 <kprintf.constprop.0+0x12c>  // b.pmore
     998:	f9404fe6 	ldr	x6, [sp, #152]
     99c:	386048c0 	ldrb	w0, [x6, w0, uxtw]
     9a0:	10000066 	adr	x6, 9ac <kprintf.constprop.0+0xe0>
     9a4:	8b2088c0 	add	x0, x6, w0, sxtb #2
     9a8:	d61f0000 	br	x0
/home/build/bsp/optee_os/lib/libutils/ext/snprintk.c:267
     9ac:	d2800019 	mov	x25, #0x0                   	// #0
     9b0:	17ffffdd 	b	924 <kprintf.constprop.0+0x58>
/home/build/bsp/optee_os/lib/libutils/ext/snprintk.c:282
     9b4:	1100075a 	add	w26, w26, #0x1
/home/build/bsp/optee_os/lib/libutils/ext/snprintk.c:283
     9b8:	b40000b6 	cbz	x22, 9cc <kprintf.constprop.0+0x100>
     9bc:	f100013f 	cmp	x9, #0x0
     9c0:	fa5912c0 	ccmp	x22, x25, #0x0, ne  // ne = any
     9c4:	54000042 	b.cs	9cc <kprintf.constprop.0+0x100>  // b.hs, b.nlast
     9c8:	380016c0 	strb	w0, [x22], #1
/home/build/bsp/optee_os/lib/libutils/ext/snprintk.c:281
     9cc:	9100079c 	add	x28, x28, #0x1
     9d0:	17ffffda 	b	938 <kprintf.constprop.0+0x6c>
/home/build/bsp/optee_os/lib/libutils/ext/snprintk.c:297
     9d4:	52800561 	mov	w1, #0x2b                  	// #43
     9d8:	17ffffe8 	b	978 <kprintf.constprop.0+0xac>
     9dc:	78605840 	ldrh	w0, [x2, w0, uxtw #1]
     9e0:	10000066 	adr	x6, 9ec <kprintf.constprop.0+0x120>
     9e4:	8b20a8c0 	add	x0, x6, w0, sxth #2
     9e8:	d61f0000 	br	x0
     9ec:	51011300 	sub	w0, w24, #0x44
     9f0:	7100d81f 	cmp	w0, #0x36
     9f4:	54ffff49 	b.ls	9dc <kprintf.constprop.0+0x110>  // b.plast
/home/build/bsp/optee_os/lib/libutils/ext/snprintk.c:554
     9f8:	2a0403f4 	mov	w20, w4
     9fc:	aa0303f3 	mov	x19, x3
/home/build/bsp/optee_os/lib/libutils/ext/snprintk.c:551
     a00:	390303f8 	strb	w24, [sp, #192]
/home/build/bsp/optee_os/lib/libutils/ext/snprintk.c:554
     a04:	1400005a 	b	b6c <kprintf.constprop.0+0x2a0>
/home/build/bsp/optee_os/lib/libutils/ext/snprintk.c:305
     a08:	7100003f 	cmp	w1, #0x0
     a0c:	1a8d1021 	csel	w1, w1, w13, ne  // ne = any
     a10:	17ffffda 	b	978 <kprintf.constprop.0+0xac>
/home/build/bsp/optee_os/lib/libutils/ext/snprintk.c:308
     a14:	320002b5 	orr	w21, w21, #0x1
/home/build/bsp/optee_os/lib/libutils/ext/snprintk.c:309
     a18:	17ffffd8 	b	978 <kprintf.constprop.0+0xac>
/home/build/bsp/optee_os/lib/libutils/ext/snprintk.c:317
     a1c:	37f80124 	tbnz	w4, #31, a40 <kprintf.constprop.0+0x174>
     a20:	91002c66 	add	x6, x3, #0xb
     a24:	aa0303e0 	mov	x0, x3
     a28:	927df0c3 	and	x3, x6, #0xfffffffffffffff8
     a2c:	b940000b 	ldr	w11, [x0]
     a30:	36fffa4b 	tbz	w11, #31, 978 <kprintf.constprop.0+0xac>
/home/build/bsp/optee_os/lib/libutils/ext/snprintk.c:319
     a34:	4b0b03eb 	neg	w11, w11
/home/build/bsp/optee_os/lib/libutils/ext/snprintk.c:322
     a38:	321e02b5 	orr	w21, w21, #0x4
/home/build/bsp/optee_os/lib/libutils/ext/snprintk.c:323
     a3c:	17ffffcf 	b	978 <kprintf.constprop.0+0xac>
/home/build/bsp/optee_os/lib/libutils/ext/snprintk.c:317
     a40:	11002086 	add	w6, w4, #0x8
     a44:	710000df 	cmp	w6, #0x0
     a48:	540000cd 	b.le	a60 <kprintf.constprop.0+0x194>
     a4c:	91002c68 	add	x8, x3, #0xb
     a50:	aa0303e0 	mov	x0, x3
     a54:	2a0603e4 	mov	w4, w6
     a58:	927df103 	and	x3, x8, #0xfffffffffffffff8
     a5c:	17fffff4 	b	a2c <kprintf.constprop.0+0x160>
     a60:	8b24c360 	add	x0, x27, w4, sxtw
     a64:	2a0603e4 	mov	w4, w6
     a68:	17fffff1 	b	a2c <kprintf.constprop.0+0x160>
/home/build/bsp/optee_os/lib/libutils/ext/snprintk.c:328
     a6c:	38401798 	ldrb	w24, [x28], #1
     a70:	7100ab1f 	cmp	w24, #0x2a
     a74:	54000361 	b.ne	ae0 <kprintf.constprop.0+0x214>  // b.any
/home/build/bsp/optee_os/lib/libutils/ext/snprintk.c:329
     a78:	37f80144 	tbnz	w4, #31, aa0 <kprintf.constprop.0+0x1d4>
     a7c:	91002c60 	add	x0, x3, #0xb
     a80:	2a0403e6 	mov	w6, w4
     a84:	927df000 	and	x0, x0, #0xfffffffffffffff8
/home/build/bsp/optee_os/lib/libutils/ext/snprintk.c:330
     a88:	b9400065 	ldr	w5, [x3]
/home/build/bsp/optee_os/lib/libutils/ext/snprintk.c:331
     a8c:	2a0603e4 	mov	w4, w6
     a90:	aa0003e3 	mov	x3, x0
/home/build/bsp/optee_os/lib/libutils/ext/snprintk.c:330
     a94:	710000bf 	cmp	w5, #0x0
     a98:	1a87a0a5 	csel	w5, w5, w7, ge  // ge = tcont
/home/build/bsp/optee_os/lib/libutils/ext/snprintk.c:331
     a9c:	17ffffb7 	b	978 <kprintf.constprop.0+0xac>
/home/build/bsp/optee_os/lib/libutils/ext/snprintk.c:329
     aa0:	11002086 	add	w6, w4, #0x8
     aa4:	710000df 	cmp	w6, #0x0
     aa8:	5400008d 	b.le	ab8 <kprintf.constprop.0+0x1ec>
     aac:	91002c60 	add	x0, x3, #0xb
     ab0:	927df000 	and	x0, x0, #0xfffffffffffffff8
     ab4:	17fffff5 	b	a88 <kprintf.constprop.0+0x1bc>
     ab8:	aa0303e0 	mov	x0, x3
     abc:	8b24c363 	add	x3, x27, w4, sxtw
     ac0:	17fffff2 	b	a88 <kprintf.constprop.0+0x1bc>
/home/build/bsp/optee_os/lib/libutils/ext/snprintk.c:335
     ac4:	52800146 	mov	w6, #0xa                   	// #10
/home/build/bsp/optee_os/lib/libutils/ext/snprintk.c:336
     ac8:	38401798 	ldrb	w24, [x28], #1
/home/build/bsp/optee_os/lib/libutils/ext/snprintk.c:335
     acc:	1b0600a5 	madd	w5, w5, w6, w0
/home/build/bsp/optee_os/lib/libutils/ext/snprintk.c:334
     ad0:	5100c300 	sub	w0, w24, #0x30
     ad4:	7100241f 	cmp	w0, #0x9
     ad8:	54ffff69 	b.ls	ac4 <kprintf.constprop.0+0x1f8>  // b.plast
     adc:	17ffffa8 	b	97c <kprintf.constprop.0+0xb0>
/home/build/bsp/optee_os/lib/libutils/ext/snprintk.c:333
     ae0:	52800005 	mov	w5, #0x0                   	// #0
     ae4:	17fffffb 	b	ad0 <kprintf.constprop.0+0x204>
/home/build/bsp/optee_os/lib/libutils/ext/snprintk.c:346
     ae8:	321602b5 	orr	w21, w21, #0x400
/home/build/bsp/optee_os/lib/libutils/ext/snprintk.c:347
     aec:	17ffffa3 	b	978 <kprintf.constprop.0+0xac>
/home/build/bsp/optee_os/lib/libutils/ext/snprintk.c:297
     af0:	5280000b 	mov	w11, #0x0                   	// #0
/home/build/bsp/optee_os/lib/libutils/ext/snprintk.c:352
     af4:	5100c308 	sub	w8, w24, #0x30
     af8:	52800140 	mov	w0, #0xa                   	// #10
/home/build/bsp/optee_os/lib/libutils/ext/snprintk.c:353
     afc:	38401798 	ldrb	w24, [x28], #1
/home/build/bsp/optee_os/lib/libutils/ext/snprintk.c:352
     b00:	1b00216b 	madd	w11, w11, w0, w8
/home/build/bsp/optee_os/lib/libutils/ext/snprintk.c:354
     b04:	5100c300 	sub	w0, w24, #0x30
     b08:	7100241f 	cmp	w0, #0x9
     b0c:	54ffff49 	b.ls	af4 <kprintf.constprop.0+0x228>  // b.plast
     b10:	17ffff9b 	b	97c <kprintf.constprop.0+0xb0>
/home/build/bsp/optee_os/lib/libutils/ext/snprintk.c:358
     b14:	321a02b5 	orr	w21, w21, #0x40
/home/build/bsp/optee_os/lib/libutils/ext/snprintk.c:359
     b18:	17ffff98 	b	978 <kprintf.constprop.0+0xac>
/home/build/bsp/optee_os/lib/libutils/ext/snprintk.c:361
     b1c:	321902b5 	orr	w21, w21, #0x80
/home/build/bsp/optee_os/lib/libutils/ext/snprintk.c:362
     b20:	17ffff96 	b	978 <kprintf.constprop.0+0xac>
/home/build/bsp/optee_os/lib/libutils/ext/snprintk.c:364
     b24:	39400380 	ldrb	w0, [x28]
     b28:	7101b01f 	cmp	w0, #0x6c
     b2c:	54000081 	b.ne	b3c <kprintf.constprop.0+0x270>  // b.any
/home/build/bsp/optee_os/lib/libutils/ext/snprintk.c:328
     b30:	9100079c 	add	x28, x28, #0x1
/home/build/bsp/optee_os/lib/libutils/ext/snprintk.c:372
     b34:	321b02b5 	orr	w21, w21, #0x20
/home/build/bsp/optee_os/lib/libutils/ext/snprintk.c:373
     b38:	17ffff90 	b	978 <kprintf.constprop.0+0xac>
/home/build/bsp/optee_os/lib/libutils/ext/snprintk.c:368
     b3c:	321c02b5 	orr	w21, w21, #0x10
     b40:	17ffff8e 	b	978 <kprintf.constprop.0+0xac>
/home/build/bsp/optee_os/lib/libutils/ext/snprintk.c:375
     b44:	321802b5 	orr	w21, w21, #0x100
/home/build/bsp/optee_os/lib/libutils/ext/snprintk.c:376
     b48:	17ffff8c 	b	978 <kprintf.constprop.0+0xac>
/home/build/bsp/optee_os/lib/libutils/ext/snprintk.c:378
     b4c:	321702b5 	orr	w21, w21, #0x200
/home/build/bsp/optee_os/lib/libutils/ext/snprintk.c:379
     b50:	17ffff8a 	b	978 <kprintf.constprop.0+0xac>
/home/build/bsp/optee_os/lib/libutils/ext/snprintk.c:381
     b54:	37f80164 	tbnz	w4, #31, b80 <kprintf.constprop.0+0x2b4>
     b58:	91002c73 	add	x19, x3, #0xb
     b5c:	2a0403f4 	mov	w20, w4
     b60:	927df273 	and	x19, x19, #0xfffffffffffffff8
     b64:	b9400060 	ldr	w0, [x3]
     b68:	390303e0 	strb	w0, [sp, #192]
/home/build/bsp/optee_os/lib/libutils/ext/snprintk.c:550
     b6c:	910303ed 	add	x13, sp, #0xc0
/home/build/bsp/optee_os/lib/libutils/ext/snprintk.c:552
     b70:	52800025 	mov	w5, #0x1                   	// #1
/home/build/bsp/optee_os/lib/libutils/ext/snprintk.c:291
     b74:	52800002 	mov	w2, #0x0                   	// #0
/home/build/bsp/optee_os/lib/libutils/ext/snprintk.c:553
     b78:	52800001 	mov	w1, #0x0                   	// #0
/home/build/bsp/optee_os/lib/libutils/ext/snprintk.c:554
     b7c:	140000fa 	b	f64 <kprintf.constprop.0+0x698>
/home/build/bsp/optee_os/lib/libutils/ext/snprintk.c:381
     b80:	11002094 	add	w20, w4, #0x8
     b84:	7100029f 	cmp	w20, #0x0
     b88:	5400008d 	b.le	b98 <kprintf.constprop.0+0x2cc>
     b8c:	91002c73 	add	x19, x3, #0xb
     b90:	927df273 	and	x19, x19, #0xfffffffffffffff8
     b94:	17fffff4 	b	b64 <kprintf.constprop.0+0x298>
     b98:	aa0303f3 	mov	x19, x3
     b9c:	8b24c363 	add	x3, x27, w4, sxtw
     ba0:	17fffff1 	b	b64 <kprintf.constprop.0+0x298>
/home/build/bsp/optee_os/lib/libutils/ext/snprintk.c:386
     ba4:	321c02b5 	orr	w21, w21, #0x10
/home/build/bsp/optee_os/lib/libutils/ext/snprintk.c:390
     ba8:	363802f5 	tbz	w21, #7, c04 <kprintf.constprop.0+0x338>
     bac:	37f80424 	tbnz	w4, #31, c30 <kprintf.constprop.0+0x364>
     bb0:	91003c73 	add	x19, x3, #0xf
     bb4:	2a0403f4 	mov	w20, w4
     bb8:	927df273 	and	x19, x19, #0xfffffffffffffff8
     bbc:	f9400062 	ldr	x2, [x3]
/home/build/bsp/optee_os/lib/libutils/ext/snprintk.c:391
     bc0:	b6f82d22 	tbz	x2, #63, 1164 <kprintf.constprop.0+0x898>
/home/build/bsp/optee_os/lib/libutils/ext/snprintk.c:392
     bc4:	cb0203e2 	neg	x2, x2
/home/build/bsp/optee_os/lib/libutils/ext/snprintk.c:395
     bc8:	52800020 	mov	w0, #0x1                   	// #1
/home/build/bsp/optee_os/lib/libutils/ext/snprintk.c:393
     bcc:	528005a1 	mov	w1, #0x2d                  	// #45
/home/build/bsp/optee_os/lib/libutils/ext/snprintk.c:494
     bd0:	310004bf 	cmn	w5, #0x1
     bd4:	54003b21 	b.ne	1338 <kprintf.constprop.0+0xa6c>  // b.any
/home/build/bsp/optee_os/lib/libutils/ext/snprintk.c:509
     bd8:	7100041f 	cmp	w0, #0x1
     bdc:	54002c80 	b.eq	116c <kprintf.constprop.0+0x8a0>  // b.none
     be0:	7100081f 	cmp	w0, #0x2
     be4:	54000ea1 	b.ne	db8 <kprintf.constprop.0+0x4ec>  // b.any
/home/build/bsp/optee_os/lib/libutils/ext/snprintk.c:502
     be8:	910397ed 	add	x13, sp, #0xe5
/home/build/bsp/optee_os/lib/libutils/ext/snprintk.c:531
     bec:	92400c40 	and	x0, x2, #0xf
/home/build/bsp/optee_os/lib/libutils/ext/snprintk.c:532
     bf0:	d344fc42 	lsr	x2, x2, #4
/home/build/bsp/optee_os/lib/libutils/ext/snprintk.c:531
     bf4:	38606ae0 	ldrb	w0, [x23, x0]
     bf8:	381ffda0 	strb	w0, [x13, #-1]!
/home/build/bsp/optee_os/lib/libutils/ext/snprintk.c:533
     bfc:	b5ffff82 	cbnz	x2, bec <kprintf.constprop.0+0x320>
     c00:	1400007b 	b	dec <kprintf.constprop.0+0x520>
/home/build/bsp/optee_os/lib/libutils/ext/snprintk.c:390
     c04:	3747fd55 	tbnz	w21, #8, bac <kprintf.constprop.0+0x2e0>
     c08:	374ffd35 	tbnz	w21, #9, bac <kprintf.constprop.0+0x2e0>
     c0c:	372ffd15 	tbnz	w21, #5, bac <kprintf.constprop.0+0x2e0>
     c10:	3727fcf5 	tbnz	w21, #4, bac <kprintf.constprop.0+0x2e0>
     c14:	36300335 	tbz	w21, #6, c78 <kprintf.constprop.0+0x3ac>
     c18:	37f801e4 	tbnz	w4, #31, c54 <kprintf.constprop.0+0x388>
     c1c:	91002c73 	add	x19, x3, #0xb
     c20:	2a0403f4 	mov	w20, w4
     c24:	927df273 	and	x19, x19, #0xfffffffffffffff8
     c28:	79800062 	ldrsh	x2, [x3]
     c2c:	17ffffe5 	b	bc0 <kprintf.constprop.0+0x2f4>
     c30:	11002094 	add	w20, w4, #0x8
     c34:	7100029f 	cmp	w20, #0x0
     c38:	5400008d 	b.le	c48 <kprintf.constprop.0+0x37c>
     c3c:	91003c73 	add	x19, x3, #0xf
     c40:	927df273 	and	x19, x19, #0xfffffffffffffff8
     c44:	17ffffde 	b	bbc <kprintf.constprop.0+0x2f0>
     c48:	aa0303f3 	mov	x19, x3
     c4c:	8b24c363 	add	x3, x27, w4, sxtw
     c50:	17ffffdb 	b	bbc <kprintf.constprop.0+0x2f0>
     c54:	11002094 	add	w20, w4, #0x8
     c58:	7100029f 	cmp	w20, #0x0
     c5c:	5400008d 	b.le	c6c <kprintf.constprop.0+0x3a0>
     c60:	91002c73 	add	x19, x3, #0xb
     c64:	927df273 	and	x19, x19, #0xfffffffffffffff8
     c68:	17fffff0 	b	c28 <kprintf.constprop.0+0x35c>
     c6c:	aa0303f3 	mov	x19, x3
     c70:	8b24c363 	add	x3, x27, w4, sxtw
     c74:	17ffffed 	b	c28 <kprintf.constprop.0+0x35c>
     c78:	37f800c4 	tbnz	w4, #31, c90 <kprintf.constprop.0+0x3c4>
     c7c:	91002c73 	add	x19, x3, #0xb
     c80:	2a0403f4 	mov	w20, w4
     c84:	927df273 	and	x19, x19, #0xfffffffffffffff8
     c88:	b9800062 	ldrsw	x2, [x3]
     c8c:	17ffffcd 	b	bc0 <kprintf.constprop.0+0x2f4>
     c90:	11002094 	add	w20, w4, #0x8
     c94:	7100029f 	cmp	w20, #0x0
     c98:	5400008d 	b.le	ca8 <kprintf.constprop.0+0x3dc>
     c9c:	91002c73 	add	x19, x3, #0xb
     ca0:	927df273 	and	x19, x19, #0xfffffffffffffff8
     ca4:	17fffff9 	b	c88 <kprintf.constprop.0+0x3bc>
     ca8:	aa0303f3 	mov	x19, x3
     cac:	8b24c363 	add	x3, x27, w4, sxtw
     cb0:	17fffff6 	b	c88 <kprintf.constprop.0+0x3bc>
/home/build/bsp/optee_os/lib/libutils/ext/snprintk.c:398
     cb4:	36380135 	tbz	w21, #7, cd8 <kprintf.constprop.0+0x40c>
/home/build/bsp/optee_os/lib/libutils/ext/snprintk.c:407
     cb8:	37f80284 	tbnz	w4, #31, d08 <kprintf.constprop.0+0x43c>
     cbc:	91003c73 	add	x19, x3, #0xf
     cc0:	2a0403f4 	mov	w20, w4
     cc4:	927df273 	and	x19, x19, #0xfffffffffffffff8
     cc8:	f9400060 	ldr	x0, [x3]
     ccc:	93407f41 	sxtw	x1, w26
     cd0:	f9000001 	str	x1, [x0]
     cd4:	17ffff19 	b	938 <kprintf.constprop.0+0x6c>
/home/build/bsp/optee_os/lib/libutils/ext/snprintk.c:400
     cd8:	3747ff15 	tbnz	w21, #8, cb8 <kprintf.constprop.0+0x3ec>
/home/build/bsp/optee_os/lib/libutils/ext/snprintk.c:402
     cdc:	374ffef5 	tbnz	w21, #9, cb8 <kprintf.constprop.0+0x3ec>
/home/build/bsp/optee_os/lib/libutils/ext/snprintk.c:404
     ce0:	372ffed5 	tbnz	w21, #5, cb8 <kprintf.constprop.0+0x3ec>
/home/build/bsp/optee_os/lib/libutils/ext/snprintk.c:406
     ce4:	3727feb5 	tbnz	w21, #4, cb8 <kprintf.constprop.0+0x3ec>
/home/build/bsp/optee_os/lib/libutils/ext/snprintk.c:408
     ce8:	36300355 	tbz	w21, #6, d50 <kprintf.constprop.0+0x484>
/home/build/bsp/optee_os/lib/libutils/ext/snprintk.c:409
     cec:	37f80204 	tbnz	w4, #31, d2c <kprintf.constprop.0+0x460>
     cf0:	91003c73 	add	x19, x3, #0xf
     cf4:	2a0403f4 	mov	w20, w4
     cf8:	927df273 	and	x19, x19, #0xfffffffffffffff8
     cfc:	f9400060 	ldr	x0, [x3]
     d00:	7900001a 	strh	w26, [x0]
     d04:	17ffff0d 	b	938 <kprintf.constprop.0+0x6c>
/home/build/bsp/optee_os/lib/libutils/ext/snprintk.c:407
     d08:	11002094 	add	w20, w4, #0x8
     d0c:	7100029f 	cmp	w20, #0x0
     d10:	5400008d 	b.le	d20 <kprintf.constprop.0+0x454>
     d14:	91003c73 	add	x19, x3, #0xf
     d18:	927df273 	and	x19, x19, #0xfffffffffffffff8
     d1c:	17ffffeb 	b	cc8 <kprintf.constprop.0+0x3fc>
     d20:	aa0303f3 	mov	x19, x3
     d24:	8b24c363 	add	x3, x27, w4, sxtw
     d28:	17ffffe8 	b	cc8 <kprintf.constprop.0+0x3fc>
/home/build/bsp/optee_os/lib/libutils/ext/snprintk.c:409
     d2c:	11002094 	add	w20, w4, #0x8
     d30:	7100029f 	cmp	w20, #0x0
     d34:	5400008d 	b.le	d44 <kprintf.constprop.0+0x478>
     d38:	91003c73 	add	x19, x3, #0xf
     d3c:	927df273 	and	x19, x19, #0xfffffffffffffff8
     d40:	17ffffef 	b	cfc <kprintf.constprop.0+0x430>
     d44:	aa0303f3 	mov	x19, x3
     d48:	8b24c363 	add	x3, x27, w4, sxtw
     d4c:	17ffffec 	b	cfc <kprintf.constprop.0+0x430>
/home/build/bsp/optee_os/lib/libutils/ext/snprintk.c:411
     d50:	37f800e4 	tbnz	w4, #31, d6c <kprintf.constprop.0+0x4a0>
     d54:	91003c73 	add	x19, x3, #0xf
     d58:	2a0403f4 	mov	w20, w4
     d5c:	927df273 	and	x19, x19, #0xfffffffffffffff8
     d60:	f9400060 	ldr	x0, [x3]
     d64:	b900001a 	str	w26, [x0]
     d68:	17fffef4 	b	938 <kprintf.constprop.0+0x6c>
     d6c:	11002094 	add	w20, w4, #0x8
     d70:	7100029f 	cmp	w20, #0x0
     d74:	5400008d 	b.le	d84 <kprintf.constprop.0+0x4b8>
     d78:	91003c73 	add	x19, x3, #0xf
     d7c:	927df273 	and	x19, x19, #0xfffffffffffffff8
     d80:	17fffff8 	b	d60 <kprintf.constprop.0+0x494>
     d84:	aa0303f3 	mov	x19, x3
     d88:	8b24c363 	add	x3, x27, w4, sxtw
     d8c:	17fffff5 	b	d60 <kprintf.constprop.0+0x494>
/home/build/bsp/optee_os/lib/libutils/ext/snprintk.c:414
     d90:	321c02b5 	orr	w21, w21, #0x10
/home/build/bsp/optee_os/lib/libutils/ext/snprintk.c:417
     d94:	36380355 	tbz	w21, #7, dfc <kprintf.constprop.0+0x530>
     d98:	37f80484 	tbnz	w4, #31, e28 <kprintf.constprop.0+0x55c>
     d9c:	91003c73 	add	x19, x3, #0xf
     da0:	2a0403f4 	mov	w20, w4
     da4:	927df273 	and	x19, x19, #0xfffffffffffffff8
     da8:	f9400062 	ldr	x2, [x3]
/home/build/bsp/optee_os/lib/libutils/ext/snprintk.c:494
     dac:	52800001 	mov	w1, #0x0                   	// #0
     db0:	310004bf 	cmn	w5, #0x1
     db4:	54002c01 	b.ne	1334 <kprintf.constprop.0+0xa68>  // b.any
/home/build/bsp/optee_os/lib/libutils/ext/snprintk.c:502
     db8:	910397ed 	add	x13, sp, #0xe5
/home/build/bsp/optee_os/lib/libutils/ext/snprintk.c:512
     dbc:	12000840 	and	w0, w2, #0x7
     dc0:	aa0d03e4 	mov	x4, x13
     dc4:	1100c000 	add	w0, w0, #0x30
     dc8:	381ffda0 	strb	w0, [x13, #-1]!
/home/build/bsp/optee_os/lib/libutils/ext/snprintk.c:513
     dcc:	d343fc42 	lsr	x2, x2, #3
/home/build/bsp/optee_os/lib/libutils/ext/snprintk.c:514
     dd0:	b5ffff62 	cbnz	x2, dbc <kprintf.constprop.0+0x4f0>
/home/build/bsp/optee_os/lib/libutils/ext/snprintk.c:516
     dd4:	360000d5 	tbz	w21, #0, dec <kprintf.constprop.0+0x520>
     dd8:	7100c01f 	cmp	w0, #0x30
     ddc:	54000080 	b.eq	dec <kprintf.constprop.0+0x520>  // b.none
/home/build/bsp/optee_os/lib/libutils/ext/snprintk.c:517
     de0:	52800600 	mov	w0, #0x30                  	// #48
     de4:	381ff1a0 	sturb	w0, [x13, #-1]
     de8:	d100088d 	sub	x13, x4, #0x2
/home/build/bsp/optee_os/lib/libutils/ext/snprintk.c:543
     dec:	2a0503e2 	mov	w2, w5
     df0:	910397e5 	add	x5, sp, #0xe5
     df4:	4b0d00a5 	sub	w5, w5, w13
     df8:	1400005b 	b	f64 <kprintf.constprop.0+0x698>
/home/build/bsp/optee_os/lib/libutils/ext/snprintk.c:417
     dfc:	3747fcf5 	tbnz	w21, #8, d98 <kprintf.constprop.0+0x4cc>
     e00:	374ffcd5 	tbnz	w21, #9, d98 <kprintf.constprop.0+0x4cc>
     e04:	372ffcb5 	tbnz	w21, #5, d98 <kprintf.constprop.0+0x4cc>
     e08:	3727fc95 	tbnz	w21, #4, d98 <kprintf.constprop.0+0x4cc>
     e0c:	36300335 	tbz	w21, #6, e70 <kprintf.constprop.0+0x5a4>
     e10:	37f801e4 	tbnz	w4, #31, e4c <kprintf.constprop.0+0x580>
     e14:	91002c73 	add	x19, x3, #0xb
     e18:	2a0403f4 	mov	w20, w4
     e1c:	927df273 	and	x19, x19, #0xfffffffffffffff8
     e20:	79400062 	ldrh	w2, [x3]
     e24:	17ffffe2 	b	dac <kprintf.constprop.0+0x4e0>
     e28:	11002094 	add	w20, w4, #0x8
     e2c:	7100029f 	cmp	w20, #0x0
     e30:	5400008d 	b.le	e40 <kprintf.constprop.0+0x574>
     e34:	91003c73 	add	x19, x3, #0xf
     e38:	927df273 	and	x19, x19, #0xfffffffffffffff8
     e3c:	17ffffdb 	b	da8 <kprintf.constprop.0+0x4dc>
     e40:	aa0303f3 	mov	x19, x3
     e44:	8b24c363 	add	x3, x27, w4, sxtw
     e48:	17ffffd8 	b	da8 <kprintf.constprop.0+0x4dc>
     e4c:	11002094 	add	w20, w4, #0x8
     e50:	7100029f 	cmp	w20, #0x0
     e54:	5400008d 	b.le	e64 <kprintf.constprop.0+0x598>
     e58:	91002c73 	add	x19, x3, #0xb
     e5c:	927df273 	and	x19, x19, #0xfffffffffffffff8
     e60:	17fffff0 	b	e20 <kprintf.constprop.0+0x554>
     e64:	aa0303f3 	mov	x19, x3
     e68:	8b24c363 	add	x3, x27, w4, sxtw
     e6c:	17ffffed 	b	e20 <kprintf.constprop.0+0x554>
     e70:	37f800c4 	tbnz	w4, #31, e88 <kprintf.constprop.0+0x5bc>
     e74:	91002c73 	add	x19, x3, #0xb
     e78:	2a0403f4 	mov	w20, w4
     e7c:	927df273 	and	x19, x19, #0xfffffffffffffff8
     e80:	b9400062 	ldr	w2, [x3]
     e84:	17ffffca 	b	dac <kprintf.constprop.0+0x4e0>
     e88:	11002094 	add	w20, w4, #0x8
     e8c:	7100029f 	cmp	w20, #0x0
     e90:	5400008d 	b.le	ea0 <kprintf.constprop.0+0x5d4>
     e94:	91002c73 	add	x19, x3, #0xb
     e98:	927df273 	and	x19, x19, #0xfffffffffffffff8
     e9c:	17fffff9 	b	e80 <kprintf.constprop.0+0x5b4>
     ea0:	aa0303f3 	mov	x19, x3
     ea4:	8b24c363 	add	x3, x27, w4, sxtw
     ea8:	17fffff6 	b	e80 <kprintf.constprop.0+0x5b4>
/home/build/bsp/optee_os/lib/libutils/ext/snprintk.c:421
     eac:	b940abe0 	ldr	w0, [sp, #168]
     eb0:	34000c80 	cbz	w0, 1040 <kprintf.constprop.0+0x774>
     eb4:	39400380 	ldrb	w0, [x28]
     eb8:	7101541f 	cmp	w0, #0x55
     ebc:	54000c21 	b.ne	1040 <kprintf.constprop.0+0x774>  // b.any
     ec0:	39400780 	ldrb	w0, [x28, #1]
     ec4:	7101b01f 	cmp	w0, #0x6c
     ec8:	54000bc1 	b.ne	1040 <kprintf.constprop.0+0x774>  // b.any
/home/build/bsp/optee_os/lib/libutils/ext/snprintk.c:426
     ecc:	91000b9c 	add	x28, x28, #0x2
/home/build/bsp/optee_os/lib/libutils/ext/snprintk.c:427
     ed0:	37f80a64 	tbnz	w4, #31, 101c <kprintf.constprop.0+0x750>
     ed4:	91003c73 	add	x19, x3, #0xf
     ed8:	2a0403f4 	mov	w20, w4
     edc:	927df273 	and	x19, x19, #0xfffffffffffffff8
     ee0:	f9400061 	ldr	x1, [x3]
uuid2str():
/home/build/bsp/optee_os/lib/libutils/ext/snprintk.c:229
     ee4:	910303ed 	add	x13, sp, #0xc0
     ee8:	90000082 	adrp	x2, 10000 <__func__.0+0x28>
     eec:	911bf842 	add	x2, x2, #0x6fe
     ef0:	f90053ed 	str	x13, [sp, #160]
     ef4:	39403c20 	ldrb	w0, [x1, #15]
     ef8:	39402427 	ldrb	w7, [x1, #9]
     efc:	39402026 	ldrb	w6, [x1, #8]
     f00:	79400c25 	ldrh	w5, [x1, #6]
     f04:	79400824 	ldrh	w4, [x1, #4]
     f08:	b9002be0 	str	w0, [sp, #40]
     f0c:	b900afeb 	str	w11, [sp, #172]
     f10:	39403820 	ldrb	w0, [x1, #14]
     f14:	b90023e0 	str	w0, [sp, #32]
     f18:	f9005be9 	str	x9, [sp, #176]
     f1c:	39403420 	ldrb	w0, [x1, #13]
     f20:	b9001be0 	str	w0, [sp, #24]
     f24:	39403020 	ldrb	w0, [x1, #12]
     f28:	b90013e0 	str	w0, [sp, #16]
     f2c:	39402c20 	ldrb	w0, [x1, #11]
     f30:	b9000be0 	str	w0, [sp, #8]
     f34:	39402820 	ldrb	w0, [x1, #10]
     f38:	b90003e0 	str	w0, [sp]
     f3c:	aa0d03e0 	mov	x0, x13
     f40:	b9400023 	ldr	w3, [x1]
     f44:	d28004a1 	mov	x1, #0x25                  	// #37
     f48:	97fffe2d 	bl	7fc <snprintk>
     f4c:	b940afeb 	ldr	w11, [sp, #172]
kprintf():
/home/build/bsp/optee_os/lib/libutils/ext/snprintk.c:466
     f50:	2a0003e5 	mov	w5, w0
     f54:	f94053ed 	ldr	x13, [sp, #160]
/home/build/bsp/optee_os/lib/libutils/ext/snprintk.c:291
     f58:	52800002 	mov	w2, #0x0                   	// #0
     f5c:	f9405be9 	ldr	x9, [sp, #176]
/home/build/bsp/optee_os/lib/libutils/ext/snprintk.c:467
     f60:	52800001 	mov	w1, #0x0                   	// #0
/home/build/bsp/optee_os/lib/libutils/ext/snprintk.c:571
     f64:	6b05005f 	cmp	w2, w5
     f68:	1a85a040 	csel	w0, w2, w5, ge  // ge = tcont
/home/build/bsp/optee_os/lib/libutils/ext/snprintk.c:572
     f6c:	340021c1 	cbz	w1, 13a4 <kprintf.constprop.0+0xad8>
/home/build/bsp/optee_os/lib/libutils/ext/snprintk.c:573
     f70:	11000400 	add	w0, w0, #0x1
/home/build/bsp/optee_os/lib/libutils/ext/snprintk.c:578
     f74:	6b0b001f 	cmp	w0, w11
     f78:	1a8ba004 	csel	w4, w0, w11, ge  // ge = tcont
     f7c:	0b04035a 	add	w26, w26, w4
/home/build/bsp/optee_os/lib/libutils/ext/snprintk.c:581
     f80:	52808084 	mov	w4, #0x404                 	// #1028
     f84:	6a0402a4 	ands	w4, w21, w4
     f88:	540000a1 	b.ne	f9c <kprintf.constprop.0+0x6d0>  // b.any
/home/build/bsp/optee_os/lib/libutils/ext/snprintk.c:582
     f8c:	4b000166 	sub	w6, w11, w0
/home/build/bsp/optee_os/lib/libutils/ext/snprintk.c:584
     f90:	52800407 	mov	w7, #0x20                  	// #32
/home/build/bsp/optee_os/lib/libutils/ext/snprintk.c:583
     f94:	710000df 	cmp	w6, #0x0
     f98:	540020cc 	b.gt	13b0 <kprintf.constprop.0+0xae4>
/home/build/bsp/optee_os/lib/libutils/ext/snprintk.c:588
     f9c:	34002181 	cbz	w1, 13cc <kprintf.constprop.0+0xb00>
/home/build/bsp/optee_os/lib/libutils/ext/snprintk.c:589
     fa0:	b40000b6 	cbz	x22, fb4 <kprintf.constprop.0+0x6e8>
     fa4:	f100013f 	cmp	x9, #0x0
     fa8:	fa561322 	ccmp	x25, x22, #0x2, ne  // ne = any
     fac:	54000049 	b.ls	fb4 <kprintf.constprop.0+0x6e8>  // b.plast
     fb0:	380016c1 	strb	w1, [x22], #1
/home/build/bsp/optee_os/lib/libutils/ext/snprintk.c:596
     fb4:	7110009f 	cmp	w4, #0x400
     fb8:	540000a1 	b.ne	fcc <kprintf.constprop.0+0x700>  // b.any
/home/build/bsp/optee_os/lib/libutils/ext/snprintk.c:597
     fbc:	4b000161 	sub	w1, w11, w0
/home/build/bsp/optee_os/lib/libutils/ext/snprintk.c:599
     fc0:	52800604 	mov	w4, #0x30                  	// #48
/home/build/bsp/optee_os/lib/libutils/ext/snprintk.c:598
     fc4:	7100003f 	cmp	w1, #0x0
     fc8:	5400226c 	b.gt	1414 <kprintf.constprop.0+0xb48>
/home/build/bsp/optee_os/lib/libutils/ext/snprintk.c:603
     fcc:	4b050042 	sub	w2, w2, w5
/home/build/bsp/optee_os/lib/libutils/ext/snprintk.c:605
     fd0:	52800601 	mov	w1, #0x30                  	// #48
/home/build/bsp/optee_os/lib/libutils/ext/snprintk.c:604
     fd4:	7100005f 	cmp	w2, #0x0
     fd8:	540022cc 	b.gt	1430 <kprintf.constprop.0+0xb64>
     fdc:	2a0503e5 	mov	w5, w5
     fe0:	d2800001 	mov	x1, #0x0                   	// #0
/home/build/bsp/optee_os/lib/libutils/ext/snprintk.c:608
     fe4:	eb05003f 	cmp	x1, x5
     fe8:	54002321 	b.ne	144c <kprintf.constprop.0+0xb80>  // b.any
/home/build/bsp/optee_os/lib/libutils/ext/snprintk.c:611
     fec:	3617ca75 	tbz	w21, #2, 938 <kprintf.constprop.0+0x6c>
/home/build/bsp/optee_os/lib/libutils/ext/snprintk.c:612
     ff0:	4b000160 	sub	w0, w11, w0
/home/build/bsp/optee_os/lib/libutils/ext/snprintk.c:614
     ff4:	52800401 	mov	w1, #0x20                  	// #32
/home/build/bsp/optee_os/lib/libutils/ext/snprintk.c:613
     ff8:	7100001f 	cmp	w0, #0x0
     ffc:	54ffc9ed 	b.le	938 <kprintf.constprop.0+0x6c>
/home/build/bsp/optee_os/lib/libutils/ext/snprintk.c:614
    1000:	b40000b6 	cbz	x22, 1014 <kprintf.constprop.0+0x748>
    1004:	f100013f 	cmp	x9, #0x0
    1008:	fa561322 	ccmp	x25, x22, #0x2, ne  // ne = any
    100c:	54000049 	b.ls	1014 <kprintf.constprop.0+0x748>  // b.plast
    1010:	380016c1 	strb	w1, [x22], #1
    1014:	51000400 	sub	w0, w0, #0x1
    1018:	17fffff8 	b	ff8 <kprintf.constprop.0+0x72c>
/home/build/bsp/optee_os/lib/libutils/ext/snprintk.c:427
    101c:	11002094 	add	w20, w4, #0x8
    1020:	7100029f 	cmp	w20, #0x0
    1024:	5400008d 	b.le	1034 <kprintf.constprop.0+0x768>
    1028:	91003c73 	add	x19, x3, #0xf
    102c:	927df273 	and	x19, x19, #0xfffffffffffffff8
    1030:	17ffffac 	b	ee0 <kprintf.constprop.0+0x614>
    1034:	aa0303f3 	mov	x19, x3
    1038:	8b24c363 	add	x3, x27, w4, sxtw
    103c:	17ffffa9 	b	ee0 <kprintf.constprop.0+0x614>
/home/build/bsp/optee_os/lib/libutils/ext/snprintk.c:441
    1040:	37f801c4 	tbnz	w4, #31, 1078 <kprintf.constprop.0+0x7ac>
    1044:	91003c73 	add	x19, x3, #0xf
    1048:	2a0403f4 	mov	w20, w4
    104c:	927df273 	and	x19, x19, #0xfffffffffffffff8
    1050:	f9400062 	ldr	x2, [x3]
/home/build/bsp/optee_os/lib/libutils/ext/snprintk.c:443
    1054:	f0000077 	adrp	x23, 10000 <__func__.0+0x28>
/home/build/bsp/optee_os/lib/libutils/ext/snprintk.c:444
    1058:	321f02b5 	orr	w21, w21, #0x2
/home/build/bsp/optee_os/lib/libutils/ext/snprintk.c:443
    105c:	9101eaf7 	add	x23, x23, #0x7a
/home/build/bsp/optee_os/lib/libutils/ext/snprintk.c:445
    1060:	52800f18 	mov	w24, #0x78                  	// #120
/home/build/bsp/optee_os/lib/libutils/ext/snprintk.c:494
    1064:	52800001 	mov	w1, #0x0                   	// #0
    1068:	310004bf 	cmn	w5, #0x1
    106c:	54ffdbe0 	b.eq	be8 <kprintf.constprop.0+0x31c>  // b.none
    1070:	52800040 	mov	w0, #0x2                   	// #2
    1074:	140000b1 	b	1338 <kprintf.constprop.0+0xa6c>
/home/build/bsp/optee_os/lib/libutils/ext/snprintk.c:441
    1078:	11002094 	add	w20, w4, #0x8
    107c:	7100029f 	cmp	w20, #0x0
    1080:	5400008d 	b.le	1090 <kprintf.constprop.0+0x7c4>
    1084:	91003c73 	add	x19, x3, #0xf
    1088:	927df273 	and	x19, x19, #0xfffffffffffffff8
    108c:	17fffff1 	b	1050 <kprintf.constprop.0+0x784>
    1090:	aa0303f3 	mov	x19, x3
    1094:	8b24c363 	add	x3, x27, w4, sxtw
    1098:	17ffffee 	b	1050 <kprintf.constprop.0+0x784>
/home/build/bsp/optee_os/lib/libutils/ext/snprintk.c:448
    109c:	37f80364 	tbnz	w4, #31, 1108 <kprintf.constprop.0+0x83c>
    10a0:	91003c73 	add	x19, x3, #0xf
    10a4:	2a0403f4 	mov	w20, w4
    10a8:	927df273 	and	x19, x19, #0xfffffffffffffff8
    10ac:	f940006d 	ldr	x13, [x3]
    10b0:	b500006d 	cbnz	x13, 10bc <kprintf.constprop.0+0x7f0>
/home/build/bsp/optee_os/lib/libutils/ext/snprintk.c:450
    10b4:	f0000063 	adrp	x3, 10000 <__func__.0+0x28>
    10b8:	911bdc6d 	add	x13, x3, #0x6f7
/home/build/bsp/optee_os/lib/libutils/ext/snprintk.c:451
    10bc:	310004bf 	cmn	w5, #0x1
    10c0:	54000360 	b.eq	112c <kprintf.constprop.0+0x860>  // b.none
/home/build/bsp/optee_os/lib/libutils/ext/snprintk.c:457
    10c4:	93407ca2 	sxtw	x2, w5
    10c8:	aa0d03e0 	mov	x0, x13
    10cc:	52800001 	mov	w1, #0x0                   	// #0
    10d0:	f90053ed 	str	x13, [sp, #160]
    10d4:	2915afe5 	stp	w5, w11, [sp, #172]
    10d8:	f9005fe9 	str	x9, [sp, #184]
    10dc:	94000100 	bl	14dc <memchr>
/home/build/bsp/optee_os/lib/libutils/ext/snprintk.c:459
    10e0:	2955afe5 	ldp	w5, w11, [sp, #172]
    10e4:	f94053ed 	ldr	x13, [sp, #160]
    10e8:	f9405fe9 	ldr	x9, [sp, #184]
    10ec:	b4000080 	cbz	x0, 10fc <kprintf.constprop.0+0x830>
/home/build/bsp/optee_os/lib/libutils/ext/snprintk.c:460
    10f0:	cb0d0000 	sub	x0, x0, x13
    10f4:	6b0000bf 	cmp	w5, w0
    10f8:	1a80d0a5 	csel	w5, w5, w0, le
/home/build/bsp/optee_os/lib/libutils/ext/snprintk.c:291
    10fc:	52800002 	mov	w2, #0x0                   	// #0
/home/build/bsp/optee_os/lib/libutils/ext/snprintk.c:467
    1100:	52800001 	mov	w1, #0x0                   	// #0
    1104:	17ffff98 	b	f64 <kprintf.constprop.0+0x698>
/home/build/bsp/optee_os/lib/libutils/ext/snprintk.c:448
    1108:	11002094 	add	w20, w4, #0x8
    110c:	7100029f 	cmp	w20, #0x0
    1110:	5400008d 	b.le	1120 <kprintf.constprop.0+0x854>
    1114:	91003c73 	add	x19, x3, #0xf
    1118:	927df273 	and	x19, x19, #0xfffffffffffffff8
    111c:	17ffffe4 	b	10ac <kprintf.constprop.0+0x7e0>
    1120:	aa0303f3 	mov	x19, x3
    1124:	8b24c363 	add	x3, x27, w4, sxtw
    1128:	17ffffe1 	b	10ac <kprintf.constprop.0+0x7e0>
/home/build/bsp/optee_os/lib/libutils/ext/snprintk.c:466
    112c:	aa0d03e0 	mov	x0, x13
    1130:	f90053ed 	str	x13, [sp, #160]
    1134:	b900afeb 	str	w11, [sp, #172]
    1138:	f9005be9 	str	x9, [sp, #176]
    113c:	940000f3 	bl	1508 <strlen>
    1140:	17ffff83 	b	f4c <kprintf.constprop.0+0x680>
/home/build/bsp/optee_os/lib/libutils/ext/snprintk.c:470
    1144:	321c02b5 	orr	w21, w21, #0x10
/home/build/bsp/optee_os/lib/libutils/ext/snprintk.c:473
    1148:	36380235 	tbz	w21, #7, 118c <kprintf.constprop.0+0x8c0>
    114c:	37f80364 	tbnz	w4, #31, 11b8 <kprintf.constprop.0+0x8ec>
    1150:	91003c73 	add	x19, x3, #0xf
    1154:	2a0403f4 	mov	w20, w4
    1158:	927df273 	and	x19, x19, #0xfffffffffffffff8
    115c:	f9400062 	ldr	x2, [x3]
/home/build/bsp/optee_os/lib/libutils/ext/snprintk.c:488
    1160:	52800001 	mov	w1, #0x0                   	// #0
/home/build/bsp/optee_os/lib/libutils/ext/snprintk.c:494
    1164:	310004bf 	cmn	w5, #0x1
    1168:	54000f61 	b.ne	1354 <kprintf.constprop.0+0xa88>  // b.any
/home/build/bsp/optee_os/lib/libutils/ext/snprintk.c:502
    116c:	910397e0 	add	x0, sp, #0xe5
/home/build/bsp/optee_os/lib/libutils/ext/snprintk.c:523
    1170:	d2800144 	mov	x4, #0xa                   	// #10
    1174:	d100040d 	sub	x13, x0, #0x1
/home/build/bsp/optee_os/lib/libutils/ext/snprintk.c:522
    1178:	f100245f 	cmp	x2, #0x9
    117c:	54000f08 	b.hi	135c <kprintf.constprop.0+0xa90>  // b.pmore
/home/build/bsp/optee_os/lib/libutils/ext/snprintk.c:526
    1180:	1100c042 	add	w2, w2, #0x30
    1184:	381ff002 	sturb	w2, [x0, #-1]
/home/build/bsp/optee_os/lib/libutils/ext/snprintk.c:527
    1188:	17ffff19 	b	dec <kprintf.constprop.0+0x520>
/home/build/bsp/optee_os/lib/libutils/ext/snprintk.c:473
    118c:	3747fe15 	tbnz	w21, #8, 114c <kprintf.constprop.0+0x880>
    1190:	374ffdf5 	tbnz	w21, #9, 114c <kprintf.constprop.0+0x880>
    1194:	372ffdd5 	tbnz	w21, #5, 114c <kprintf.constprop.0+0x880>
    1198:	3727fdb5 	tbnz	w21, #4, 114c <kprintf.constprop.0+0x880>
    119c:	36300335 	tbz	w21, #6, 1200 <kprintf.constprop.0+0x934>
    11a0:	37f801e4 	tbnz	w4, #31, 11dc <kprintf.constprop.0+0x910>
    11a4:	91002c73 	add	x19, x3, #0xb
    11a8:	2a0403f4 	mov	w20, w4
    11ac:	927df273 	and	x19, x19, #0xfffffffffffffff8
    11b0:	79400062 	ldrh	w2, [x3]
    11b4:	17ffffeb 	b	1160 <kprintf.constprop.0+0x894>
    11b8:	11002094 	add	w20, w4, #0x8
    11bc:	7100029f 	cmp	w20, #0x0
    11c0:	5400008d 	b.le	11d0 <kprintf.constprop.0+0x904>
    11c4:	91003c73 	add	x19, x3, #0xf
    11c8:	927df273 	and	x19, x19, #0xfffffffffffffff8
    11cc:	17ffffe4 	b	115c <kprintf.constprop.0+0x890>
    11d0:	aa0303f3 	mov	x19, x3
    11d4:	8b24c363 	add	x3, x27, w4, sxtw
    11d8:	17ffffe1 	b	115c <kprintf.constprop.0+0x890>
    11dc:	11002094 	add	w20, w4, #0x8
    11e0:	7100029f 	cmp	w20, #0x0
    11e4:	5400008d 	b.le	11f4 <kprintf.constprop.0+0x928>
    11e8:	91002c73 	add	x19, x3, #0xb
    11ec:	927df273 	and	x19, x19, #0xfffffffffffffff8
    11f0:	17fffff0 	b	11b0 <kprintf.constprop.0+0x8e4>
    11f4:	aa0303f3 	mov	x19, x3
    11f8:	8b24c363 	add	x3, x27, w4, sxtw
    11fc:	17ffffed 	b	11b0 <kprintf.constprop.0+0x8e4>
    1200:	37f800c4 	tbnz	w4, #31, 1218 <kprintf.constprop.0+0x94c>
    1204:	91002c73 	add	x19, x3, #0xb
    1208:	2a0403f4 	mov	w20, w4
    120c:	927df273 	and	x19, x19, #0xfffffffffffffff8
    1210:	b9400062 	ldr	w2, [x3]
    1214:	17ffffd3 	b	1160 <kprintf.constprop.0+0x894>
    1218:	11002094 	add	w20, w4, #0x8
    121c:	7100029f 	cmp	w20, #0x0
    1220:	5400008d 	b.le	1230 <kprintf.constprop.0+0x964>
    1224:	91002c73 	add	x19, x3, #0xb
    1228:	927df273 	and	x19, x19, #0xfffffffffffffff8
    122c:	17fffff9 	b	1210 <kprintf.constprop.0+0x944>
    1230:	aa0303f3 	mov	x19, x3
    1234:	8b24c363 	add	x3, x27, w4, sxtw
    1238:	17fffff6 	b	1210 <kprintf.constprop.0+0x944>
/home/build/bsp/optee_os/lib/libutils/ext/snprintk.c:297
    123c:	f0000077 	adrp	x23, 10000 <__func__.0+0x28>
    1240:	9101eaf7 	add	x23, x23, #0x7a
    1244:	910046f7 	add	x23, x23, #0x11
/home/build/bsp/optee_os/lib/libutils/ext/snprintk.c:481
    1248:	363801f5 	tbz	w21, #7, 1284 <kprintf.constprop.0+0x9b8>
    124c:	37f80324 	tbnz	w4, #31, 12b0 <kprintf.constprop.0+0x9e4>
    1250:	91003c73 	add	x19, x3, #0xf
    1254:	2a0403f4 	mov	w20, w4
    1258:	927df273 	and	x19, x19, #0xfffffffffffffff8
    125c:	f9400062 	ldr	x2, [x3]
/home/build/bsp/optee_os/lib/libutils/ext/snprintk.c:484
    1260:	3607f035 	tbz	w21, #0, 1064 <kprintf.constprop.0+0x798>
    1264:	b4fff002 	cbz	x2, 1064 <kprintf.constprop.0+0x798>
/home/build/bsp/optee_os/lib/libutils/ext/snprintk.c:485
    1268:	321f02b5 	orr	w21, w21, #0x2
/home/build/bsp/optee_os/lib/libutils/ext/snprintk.c:482
    126c:	52800040 	mov	w0, #0x2                   	// #2
/home/build/bsp/optee_os/lib/libutils/ext/snprintk.c:488
    1270:	52800001 	mov	w1, #0x0                   	// #0
    1274:	17fffe57 	b	bd0 <kprintf.constprop.0+0x304>
/home/build/bsp/optee_os/lib/libutils/ext/snprintk.c:480
    1278:	f0000077 	adrp	x23, 10000 <__func__.0+0x28>
    127c:	9101eaf7 	add	x23, x23, #0x7a
    1280:	17fffff2 	b	1248 <kprintf.constprop.0+0x97c>
/home/build/bsp/optee_os/lib/libutils/ext/snprintk.c:481
    1284:	3747fe55 	tbnz	w21, #8, 124c <kprintf.constprop.0+0x980>
    1288:	374ffe35 	tbnz	w21, #9, 124c <kprintf.constprop.0+0x980>
    128c:	372ffe15 	tbnz	w21, #5, 124c <kprintf.constprop.0+0x980>
    1290:	3727fdf5 	tbnz	w21, #4, 124c <kprintf.constprop.0+0x980>
    1294:	36300335 	tbz	w21, #6, 12f8 <kprintf.constprop.0+0xa2c>
    1298:	37f801e4 	tbnz	w4, #31, 12d4 <kprintf.constprop.0+0xa08>
    129c:	91002c73 	add	x19, x3, #0xb
    12a0:	2a0403f4 	mov	w20, w4
    12a4:	927df273 	and	x19, x19, #0xfffffffffffffff8
    12a8:	79400062 	ldrh	w2, [x3]
    12ac:	17ffffed 	b	1260 <kprintf.constprop.0+0x994>
    12b0:	11002094 	add	w20, w4, #0x8
    12b4:	7100029f 	cmp	w20, #0x0
    12b8:	5400008d 	b.le	12c8 <kprintf.constprop.0+0x9fc>
    12bc:	91003c73 	add	x19, x3, #0xf
    12c0:	927df273 	and	x19, x19, #0xfffffffffffffff8
    12c4:	17ffffe6 	b	125c <kprintf.constprop.0+0x990>
    12c8:	aa0303f3 	mov	x19, x3
    12cc:	8b24c363 	add	x3, x27, w4, sxtw
    12d0:	17ffffe3 	b	125c <kprintf.constprop.0+0x990>
    12d4:	11002094 	add	w20, w4, #0x8
    12d8:	7100029f 	cmp	w20, #0x0
    12dc:	5400008d 	b.le	12ec <kprintf.constprop.0+0xa20>
    12e0:	91002c73 	add	x19, x3, #0xb
    12e4:	927df273 	and	x19, x19, #0xfffffffffffffff8
    12e8:	17fffff0 	b	12a8 <kprintf.constprop.0+0x9dc>
    12ec:	aa0303f3 	mov	x19, x3
    12f0:	8b24c363 	add	x3, x27, w4, sxtw
    12f4:	17ffffed 	b	12a8 <kprintf.constprop.0+0x9dc>
    12f8:	37f800c4 	tbnz	w4, #31, 1310 <kprintf.constprop.0+0xa44>
    12fc:	91002c73 	add	x19, x3, #0xb
    1300:	2a0403f4 	mov	w20, w4
    1304:	927df273 	and	x19, x19, #0xfffffffffffffff8
    1308:	b9400062 	ldr	w2, [x3]
    130c:	17ffffd5 	b	1260 <kprintf.constprop.0+0x994>
    1310:	11002094 	add	w20, w4, #0x8
    1314:	7100029f 	cmp	w20, #0x0
    1318:	5400008d 	b.le	1328 <kprintf.constprop.0+0xa5c>
    131c:	91002c73 	add	x19, x3, #0xb
    1320:	927df273 	and	x19, x19, #0xfffffffffffffff8
    1324:	17fffff9 	b	1308 <kprintf.constprop.0+0xa3c>
    1328:	aa0303f3 	mov	x19, x3
    132c:	8b24c363 	add	x3, x27, w4, sxtw
    1330:	17fffff6 	b	1308 <kprintf.constprop.0+0xa3c>
/home/build/bsp/optee_os/lib/libutils/ext/snprintk.c:494
    1334:	52800000 	mov	w0, #0x0                   	// #0
/home/build/bsp/optee_os/lib/libutils/ext/snprintk.c:503
    1338:	f100005f 	cmp	x2, #0x0
/home/build/bsp/optee_os/lib/libutils/ext/snprintk.c:495
    133c:	12157ab5 	and	w21, w21, #0xfffffbff
/home/build/bsp/optee_os/lib/libutils/ext/snprintk.c:503
    1340:	7a4008a0 	ccmp	w5, #0x0, #0x0, eq  // eq = none
    1344:	54ffc4a1 	b.ne	bd8 <kprintf.constprop.0+0x30c>  // b.any
/home/build/bsp/optee_os/lib/libutils/ext/snprintk.c:502
    1348:	910397ed 	add	x13, sp, #0xe5
    134c:	52800005 	mov	w5, #0x0                   	// #0
    1350:	17fffea7 	b	dec <kprintf.constprop.0+0x520>
/home/build/bsp/optee_os/lib/libutils/ext/snprintk.c:494
    1354:	52800020 	mov	w0, #0x1                   	// #1
    1358:	17fffff8 	b	1338 <kprintf.constprop.0+0xa6c>
/home/build/bsp/optee_os/lib/libutils/ext/snprintk.c:523
    135c:	9ac40846 	udiv	x6, x2, x4
    1360:	9b0488c2 	msub	x2, x6, x4, x2
    1364:	1100c042 	add	w2, w2, #0x30
    1368:	381ff002 	sturb	w2, [x0, #-1]
/home/build/bsp/optee_os/lib/libutils/ext/snprintk.c:524
    136c:	aa0603e2 	mov	x2, x6
    1370:	aa0d03e0 	mov	x0, x13
    1374:	17ffff80 	b	1174 <kprintf.constprop.0+0x8a8>
/home/build/bsp/optee_os/lib/libutils/ext/snprintk.c:547
    1378:	35ffb418 	cbnz	w24, 9f8 <kprintf.constprop.0+0x12c>
/home/build/bsp/optee_os/lib/libutils/ext/snprintk.c:619
    137c:	b4000049 	cbz	x9, 1384 <kprintf.constprop.0+0xab8>
/home/build/bsp/optee_os/lib/libutils/ext/snprintk.c:620
    1380:	f9000136 	str	x22, [x9]
/home/build/bsp/optee_os/lib/libutils/ext/snprintk.c:622
    1384:	b0000080 	adrp	x0, 12000 <_DYNAMIC>
    1388:	f9409800 	ldr	x0, [x0, #304]
    138c:	f94077e2 	ldr	x2, [sp, #232]
    1390:	f9400001 	ldr	x1, [x0]
    1394:	eb010042 	subs	x2, x2, x1
    1398:	d2800001 	mov	x1, #0x0                   	// #0
    139c:	54000680 	b.eq	146c <kprintf.constprop.0+0xba0>  // b.none
    13a0:	97fffcc4 	bl	6b0 <__stack_chk_fail>
/home/build/bsp/optee_os/lib/libutils/ext/snprintk.c:574
    13a4:	360fde95 	tbz	w21, #1, f74 <kprintf.constprop.0+0x6a8>
/home/build/bsp/optee_os/lib/libutils/ext/snprintk.c:575
    13a8:	11000800 	add	w0, w0, #0x2
    13ac:	17fffef2 	b	f74 <kprintf.constprop.0+0x6a8>
/home/build/bsp/optee_os/lib/libutils/ext/snprintk.c:584
    13b0:	b40000b6 	cbz	x22, 13c4 <kprintf.constprop.0+0xaf8>
    13b4:	f100013f 	cmp	x9, #0x0
    13b8:	fa561322 	ccmp	x25, x22, #0x2, ne  // ne = any
    13bc:	54000049 	b.ls	13c4 <kprintf.constprop.0+0xaf8>  // b.plast
    13c0:	380016c7 	strb	w7, [x22], #1
    13c4:	510004c6 	sub	w6, w6, #0x1
    13c8:	17fffef3 	b	f94 <kprintf.constprop.0+0x6c8>
/home/build/bsp/optee_os/lib/libutils/ext/snprintk.c:590
    13cc:	360fdf55 	tbz	w21, #1, fb4 <kprintf.constprop.0+0x6e8>
/home/build/bsp/optee_os/lib/libutils/ext/snprintk.c:591
    13d0:	b4ffdf36 	cbz	x22, fb4 <kprintf.constprop.0+0x6e8>
    13d4:	f100013f 	cmp	x9, #0x0
    13d8:	1a9f17e6 	cset	w6, eq  // eq = none
    13dc:	710000df 	cmp	w6, #0x0
    13e0:	fa560322 	ccmp	x25, x22, #0x2, eq  // eq = none
    13e4:	54ffde89 	b.ls	fb4 <kprintf.constprop.0+0x6e8>  // b.plast
    13e8:	aa1603e1 	mov	x1, x22
    13ec:	52800607 	mov	w7, #0x30                  	// #48
/home/build/bsp/optee_os/lib/libutils/ext/snprintk.c:592
    13f0:	710000df 	cmp	w6, #0x0
/home/build/bsp/optee_os/lib/libutils/ext/snprintk.c:591
    13f4:	38001427 	strb	w7, [x1], #1
/home/build/bsp/optee_os/lib/libutils/ext/snprintk.c:592
    13f8:	fa410322 	ccmp	x25, x1, #0x2, eq  // eq = none
    13fc:	54000089 	b.ls	140c <kprintf.constprop.0+0xb40>  // b.plast
    1400:	91000ad6 	add	x22, x22, #0x2
    1404:	381ff2d8 	sturb	w24, [x22, #-1]
    1408:	17fffeeb 	b	fb4 <kprintf.constprop.0+0x6e8>
    140c:	aa0103f6 	mov	x22, x1
    1410:	17fffee9 	b	fb4 <kprintf.constprop.0+0x6e8>
/home/build/bsp/optee_os/lib/libutils/ext/snprintk.c:599
    1414:	b40000b6 	cbz	x22, 1428 <kprintf.constprop.0+0xb5c>
    1418:	f100013f 	cmp	x9, #0x0
    141c:	fa561322 	ccmp	x25, x22, #0x2, ne  // ne = any
    1420:	54000049 	b.ls	1428 <kprintf.constprop.0+0xb5c>  // b.plast
    1424:	380016c4 	strb	w4, [x22], #1
    1428:	51000421 	sub	w1, w1, #0x1
    142c:	17fffee6 	b	fc4 <kprintf.constprop.0+0x6f8>
/home/build/bsp/optee_os/lib/libutils/ext/snprintk.c:605
    1430:	b40000b6 	cbz	x22, 1444 <kprintf.constprop.0+0xb78>
    1434:	f100013f 	cmp	x9, #0x0
    1438:	fa561322 	ccmp	x25, x22, #0x2, ne  // ne = any
    143c:	54000049 	b.ls	1444 <kprintf.constprop.0+0xb78>  // b.plast
    1440:	380016c1 	strb	w1, [x22], #1
    1444:	51000442 	sub	w2, w2, #0x1
    1448:	17fffee3 	b	fd4 <kprintf.constprop.0+0x708>
/home/build/bsp/optee_os/lib/libutils/ext/snprintk.c:609
    144c:	b40000d6 	cbz	x22, 1464 <kprintf.constprop.0+0xb98>
    1450:	f100013f 	cmp	x9, #0x0
    1454:	fa561322 	ccmp	x25, x22, #0x2, ne  // ne = any
    1458:	54000069 	b.ls	1464 <kprintf.constprop.0+0xb98>  // b.plast
    145c:	386169a2 	ldrb	w2, [x13, x1]
    1460:	380016c2 	strb	w2, [x22], #1
/home/build/bsp/optee_os/lib/libutils/ext/snprintk.c:608
    1464:	91000421 	add	x1, x1, #0x1
    1468:	17fffedf 	b	fe4 <kprintf.constprop.0+0x718>
/home/build/bsp/optee_os/lib/libutils/ext/snprintk.c:622
    146c:	2a1a03e0 	mov	w0, w26
    1470:	a9437bfd 	ldp	x29, x30, [sp, #48]
    1474:	a94453f3 	ldp	x19, x20, [sp, #64]
    1478:	a9455bf5 	ldp	x21, x22, [sp, #80]
    147c:	a94663f7 	ldp	x23, x24, [sp, #96]
    1480:	a9476bf9 	ldp	x25, x26, [sp, #112]
    1484:	a94873fb 	ldp	x27, x28, [sp, #128]
    1488:	9103c3ff 	add	sp, sp, #0xf0
    148c:	d65f03c0 	ret

0000000000001490 <__vsprintf>:
__vsprintf():
/home/build/bsp/optee_os/lib/libutils/ext/snprintk.c:155
    1490:	a9bc7bfd 	stp	x29, x30, [sp, #-64]!
/home/build/bsp/optee_os/lib/libutils/ext/snprintk.c:156
    1494:	910083e3 	add	x3, sp, #0x20
/home/build/bsp/optee_os/lib/libutils/ext/snprintk.c:155
    1498:	910003fd 	mov	x29, sp
    149c:	a90153f3 	stp	x19, x20, [sp, #16]
    14a0:	aa0003f4 	mov	x20, x0
    14a4:	aa0103f3 	mov	x19, x1
/home/build/bsp/optee_os/lib/libutils/ext/snprintk.c:156
    14a8:	aa0303e0 	mov	x0, x3
/home/build/bsp/optee_os/lib/libutils/ext/snprintk.c:155
    14ac:	aa0203e1 	mov	x1, x2
/home/build/bsp/optee_os/lib/libutils/ext/snprintk.c:156
    14b0:	d2800402 	mov	x2, #0x20                  	// #32
    14b4:	97fffad3 	bl	0 <memcpy>
    14b8:	aa1403e2 	mov	x2, x20
    14bc:	aa0003e3 	mov	x3, x0
    14c0:	52800004 	mov	w4, #0x0                   	// #0
    14c4:	aa1303e0 	mov	x0, x19
    14c8:	d2800001 	mov	x1, #0x0                   	// #0
    14cc:	97fffd00 	bl	8cc <kprintf.constprop.0>
/home/build/bsp/optee_os/lib/libutils/ext/snprintk.c:157
    14d0:	a94153f3 	ldp	x19, x20, [sp, #16]
    14d4:	a8c47bfd 	ldp	x29, x30, [sp], #64
    14d8:	d65f03c0 	ret

00000000000014dc <memchr>:
memchr():
/home/build/bsp/optee_os/lib/libutils/isoc/newlib/memchr.c:109
    14dc:	12001c21 	and	w1, w1, #0xff
/home/build/bsp/optee_os/lib/libutils/isoc/newlib/memchr.c:153
    14e0:	8b020002 	add	x2, x0, x2
    14e4:	eb02001f 	cmp	x0, x2
    14e8:	54000061 	b.ne	14f4 <memchr+0x18>  // b.any
/home/build/bsp/optee_os/lib/libutils/isoc/newlib/memchr.c:159
    14ec:	d2800000 	mov	x0, #0x0                   	// #0
/home/build/bsp/optee_os/lib/libutils/isoc/newlib/memchr.c:160
    14f0:	d65f03c0 	ret
/home/build/bsp/optee_os/lib/libutils/isoc/newlib/memchr.c:154
    14f4:	39400003 	ldrb	w3, [x0]
    14f8:	6b01007f 	cmp	w3, w1
    14fc:	54ffffa0 	b.eq	14f0 <memchr+0x14>  // b.none
/home/build/bsp/optee_os/lib/libutils/isoc/newlib/memchr.c:156
    1500:	91000400 	add	x0, x0, #0x1
    1504:	17fffff8 	b	14e4 <memchr+0x8>

0000000000001508 <strlen>:
strlen():
/home/build/bsp/optee_os/lib/libutils/isoc/newlib/strlen.c:117
    1508:	aa0003e1 	mov	x1, x0
    150c:	39400022 	ldrb	w2, [x1]
    1510:	35000062 	cbnz	w2, 151c <strlen+0x14>
/home/build/bsp/optee_os/lib/libutils/isoc/newlib/strlen.c:120
    1514:	cb000020 	sub	x0, x1, x0
    1518:	d65f03c0 	ret
/home/build/bsp/optee_os/lib/libutils/isoc/newlib/strlen.c:118
    151c:	91000421 	add	x1, x1, #0x1
    1520:	17fffffb 	b	150c <strlen+0x4>

0000000000001524 <trace_ext_puts>:
trace_ext_puts():
/home/build/bsp/optee_os/lib/libutee/trace_ext.c:22
    1524:	a9be7bfd 	stp	x29, x30, [sp, #-32]!
    1528:	910003fd 	mov	x29, sp
    152c:	f9000bf3 	str	x19, [sp, #16]
    1530:	aa0003f3 	mov	x19, x0
/home/build/bsp/optee_os/lib/libutee/trace_ext.c:26
    1534:	97fffff5 	bl	1508 <strlen>
    1538:	aa0003e1 	mov	x1, x0
    153c:	aa1303e0 	mov	x0, x19
/home/build/bsp/optee_os/lib/libutee/trace_ext.c:28
    1540:	f9400bf3 	ldr	x19, [sp, #16]
    1544:	a8c27bfd 	ldp	x29, x30, [sp], #32
/home/build/bsp/optee_os/lib/libutee/trace_ext.c:26
    1548:	140002ca 	b	2070 <_utee_log>

000000000000154c <trace_ext_get_thread_id>:
trace_ext_get_thread_id():
/home/build/bsp/optee_os/lib/libutee/trace_ext.c:33
    154c:	12800000 	mov	w0, #0xffffffff            	// #-1
    1550:	d65f03c0 	ret

0000000000001554 <printf>:
printf():
/home/build/bsp/optee_os/lib/libutee/trace_ext.c:41
    1554:	d108c3ff 	sub	sp, sp, #0x230
    1558:	a9007bfd 	stp	x29, x30, [sp]
    155c:	910003fd 	mov	x29, sp
    1560:	a90153f3 	stp	x19, x20, [sp, #16]
    1564:	aa0003f3 	mov	x19, x0
    1568:	910823e0 	add	x0, sp, #0x208
    156c:	a91f8be1 	stp	x1, x2, [sp, #504]
    1570:	b0000081 	adrp	x1, 12000 <_DYNAMIC>
    1574:	3d805fe0 	str	q0, [sp, #368]
    1578:	3d8063e1 	str	q1, [sp, #384]
    157c:	3d8067e2 	str	q2, [sp, #400]
    1580:	3d806be3 	str	q3, [sp, #416]
    1584:	3d806fe4 	str	q4, [sp, #432]
    1588:	3d8073e5 	str	q5, [sp, #448]
    158c:	3d8077e6 	str	q6, [sp, #464]
    1590:	3d807be7 	str	q7, [sp, #480]
    1594:	f9409821 	ldr	x1, [x1, #304]
    1598:	a9001003 	stp	x3, x4, [x0]
    159c:	a9011805 	stp	x5, x6, [x0, #16]
    15a0:	f90117e7 	str	x7, [sp, #552]
    15a4:	f9400020 	ldr	x0, [x1]
    15a8:	f900b7e0 	str	x0, [sp, #360]
    15ac:	d2800000 	mov	x0, #0x0                   	// #0
/home/build/bsp/optee_os/lib/libutee/trace_ext.c:46
    15b0:	97fffb7b 	bl	39c <trace_get_level>
    15b4:	7100001f 	cmp	w0, #0x0
    15b8:	5400040d 	b.le	1638 <printf+0xe4>
/home/build/bsp/optee_os/lib/libutee/trace_ext.c:49
    15bc:	9108c3e0 	add	x0, sp, #0x230
/home/build/bsp/optee_os/lib/libutee/trace_ext.c:50
    15c0:	910083e3 	add	x3, sp, #0x20
/home/build/bsp/optee_os/lib/libutee/trace_ext.c:49
    15c4:	a90483e0 	stp	x0, x0, [sp, #72]
    15c8:	9107c3e0 	add	x0, sp, #0x1f0
/home/build/bsp/optee_os/lib/libutee/trace_ext.c:50
    15cc:	910123e1 	add	x1, sp, #0x48
/home/build/bsp/optee_os/lib/libutee/trace_ext.c:49
    15d0:	f9002fe0 	str	x0, [sp, #88]
    15d4:	128006e0 	mov	w0, #0xffffffc8            	// #-56
    15d8:	b90063e0 	str	w0, [sp, #96]
    15dc:	12800fe0 	mov	w0, #0xffffff80            	// #-128
/home/build/bsp/optee_os/lib/libutee/trace_ext.c:50
    15e0:	d2800402 	mov	x2, #0x20                  	// #32
    15e4:	9101a3f4 	add	x20, sp, #0x68
/home/build/bsp/optee_os/lib/libutee/trace_ext.c:49
    15e8:	b90067e0 	str	w0, [sp, #100]
/home/build/bsp/optee_os/lib/libutee/trace_ext.c:50
    15ec:	aa0303e0 	mov	x0, x3
    15f0:	97fffa84 	bl	0 <memcpy>
    15f4:	aa0003e3 	mov	x3, x0
    15f8:	aa1303e2 	mov	x2, x19
    15fc:	aa1403e0 	mov	x0, x20
    1600:	d2802001 	mov	x1, #0x100                 	// #256
    1604:	94002e0c 	bl	ce34 <vsnprintf>
    1608:	2a0003f3 	mov	w19, w0
/home/build/bsp/optee_os/lib/libutee/trace_ext.c:53
    160c:	37f80060 	tbnz	w0, #31, 1618 <printf+0xc4>
/home/build/bsp/optee_os/lib/libutee/trace_ext.c:56
    1610:	aa1403e0 	mov	x0, x20
    1614:	97ffffc4 	bl	1524 <trace_ext_puts>
/home/build/bsp/optee_os/lib/libutee/trace_ext.c:59
    1618:	b0000081 	adrp	x1, 12000 <_DYNAMIC>
    161c:	f9409821 	ldr	x1, [x1, #304]
    1620:	f940b7e0 	ldr	x0, [sp, #360]
    1624:	f9400022 	ldr	x2, [x1]
    1628:	eb020000 	subs	x0, x0, x2
    162c:	d2800002 	mov	x2, #0x0                   	// #0
    1630:	54000080 	b.eq	1640 <printf+0xec>  // b.none
    1634:	97fffc1f 	bl	6b0 <__stack_chk_fail>
/home/build/bsp/optee_os/lib/libutee/trace_ext.c:47
    1638:	52800013 	mov	w19, #0x0                   	// #0
    163c:	17fffff7 	b	1618 <printf+0xc4>
/home/build/bsp/optee_os/lib/libutee/trace_ext.c:59
    1640:	2a1303e0 	mov	w0, w19
    1644:	a9407bfd 	ldp	x29, x30, [sp]
    1648:	a94153f3 	ldp	x19, x20, [sp, #16]
    164c:	9108c3ff 	add	sp, sp, #0x230
    1650:	d65f03c0 	ret

0000000000001654 <puts>:
puts():
/home/build/bsp/optee_os/lib/libutee/trace_ext.c:62
    1654:	a9be7bfd 	stp	x29, x30, [sp, #-32]!
    1658:	910003fd 	mov	x29, sp
    165c:	f9000bf3 	str	x19, [sp, #16]
    1660:	aa0003f3 	mov	x19, x0
/home/build/bsp/optee_os/lib/libutee/trace_ext.c:63
    1664:	97fffb4e 	bl	39c <trace_get_level>
    1668:	7100001f 	cmp	w0, #0x0
    166c:	540000cd 	b.le	1684 <puts+0x30>
/home/build/bsp/optee_os/lib/libutee/trace_ext.c:64
    1670:	aa1303e0 	mov	x0, x19
    1674:	97ffffac 	bl	1524 <trace_ext_puts>
/home/build/bsp/optee_os/lib/libutee/trace_ext.c:65
    1678:	f0000060 	adrp	x0, 10000 <__func__.0+0x28>
    167c:	91106000 	add	x0, x0, #0x418
    1680:	97ffffa9 	bl	1524 <trace_ext_puts>
/home/build/bsp/optee_os/lib/libutee/trace_ext.c:68
    1684:	52800020 	mov	w0, #0x1                   	// #1
    1688:	f9400bf3 	ldr	x19, [sp, #16]
    168c:	a8c27bfd 	ldp	x29, x30, [sp], #32
    1690:	d65f03c0 	ret

0000000000001694 <putchar>:
putchar():
/home/build/bsp/optee_os/lib/libutee/trace_ext.c:71
    1694:	a9bd7bfd 	stp	x29, x30, [sp, #-48]!
    1698:	b0000081 	adrp	x1, 12000 <_DYNAMIC>
    169c:	910003fd 	mov	x29, sp
    16a0:	f9409821 	ldr	x1, [x1, #304]
    16a4:	f9000bf3 	str	x19, [sp, #16]
    16a8:	2a0003f3 	mov	w19, w0
    16ac:	f9400020 	ldr	x0, [x1]
    16b0:	f90017e0 	str	x0, [sp, #40]
    16b4:	d2800000 	mov	x0, #0x0                   	// #0
/home/build/bsp/optee_os/lib/libutee/trace_ext.c:72
    16b8:	390083f3 	strb	w19, [sp, #32]
    16bc:	390087ff 	strb	wzr, [sp, #33]
/home/build/bsp/optee_os/lib/libutee/trace_ext.c:74
    16c0:	97fffb37 	bl	39c <trace_get_level>
    16c4:	7100001f 	cmp	w0, #0x0
    16c8:	5400006d 	b.le	16d4 <putchar+0x40>
/home/build/bsp/optee_os/lib/libutee/trace_ext.c:75
    16cc:	910083e0 	add	x0, sp, #0x20
    16d0:	97ffff95 	bl	1524 <trace_ext_puts>
/home/build/bsp/optee_os/lib/libutee/trace_ext.c:82
    16d4:	b0000081 	adrp	x1, 12000 <_DYNAMIC>
/home/build/bsp/optee_os/lib/libutee/trace_ext.c:81
    16d8:	12001e60 	and	w0, w19, #0xff
/home/build/bsp/optee_os/lib/libutee/trace_ext.c:82
    16dc:	f9409821 	ldr	x1, [x1, #304]
    16e0:	f94017e3 	ldr	x3, [sp, #40]
    16e4:	f9400022 	ldr	x2, [x1]
    16e8:	eb020063 	subs	x3, x3, x2
    16ec:	d2800002 	mov	x2, #0x0                   	// #0
    16f0:	54000040 	b.eq	16f8 <putchar+0x64>  // b.none
    16f4:	97fffbef 	bl	6b0 <__stack_chk_fail>
    16f8:	f9400bf3 	ldr	x19, [sp, #16]
    16fc:	a8c37bfd 	ldp	x29, x30, [sp], #48
    1700:	d65f03c0 	ret

0000000000001704 <_get_fn_array>:
_get_fn_array():
/home/build/bsp/optee_os/lib/libutee/user_ta_entry.c:84
    1704:	79403009 	ldrh	w9, [x0, #24]
/home/build/bsp/optee_os/lib/libutee/user_ta_entry.c:95
    1708:	93407c21 	sxtw	x1, w1
/home/build/bsp/optee_os/lib/libutee/user_ta_entry.c:98
    170c:	93407c42 	sxtw	x2, w2
/home/build/bsp/optee_os/lib/libutee/user_ta_entry.c:84
    1710:	d2800007 	mov	x7, #0x0                   	// #0
/home/build/bsp/optee_os/lib/libutee/user_ta_entry.c:85
    1714:	d280070a 	mov	x10, #0x38                  	// #56
/home/build/bsp/optee_os/lib/libutee/user_ta_entry.c:84 (discriminator 1)
    1718:	eb07013f 	cmp	x9, x7
    171c:	54000048 	b.hi	1724 <_get_fn_array+0x20>  // b.pmore
/home/build/bsp/optee_os/lib/libutee/user_ta_entry.c:104
    1720:	d65f03c0 	ret
/home/build/bsp/optee_os/lib/libutee/user_ta_entry.c:85
    1724:	9b0a7ce5 	mul	x5, x7, x10
    1728:	f9400808 	ldr	x8, [x0, #16]
    172c:	8b050106 	add	x6, x8, x5
/home/build/bsp/optee_os/lib/libutee/user_ta_entry.c:86
    1730:	b8656905 	ldr	w5, [x8, x5]
    1734:	710008bf 	cmp	w5, #0x2
    1738:	54000060 	b.eq	1744 <_get_fn_array+0x40>  // b.none
/home/build/bsp/optee_os/lib/libutee/user_ta_entry.c:84
    173c:	910004e7 	add	x7, x7, #0x1
    1740:	17fffff6 	b	1718 <_get_fn_array+0x14>
/home/build/bsp/optee_os/lib/libutee/user_ta_entry.c:89
    1744:	f9400008 	ldr	x8, [x0]
    1748:	f94008c5 	ldr	x5, [x6, #16]
/home/build/bsp/optee_os/lib/libutee/user_ta_entry.c:88
    174c:	f94014c6 	ldr	x6, [x6, #40]
/home/build/bsp/optee_os/lib/libutee/user_ta_entry.c:89
    1750:	8b0800a5 	add	x5, x5, x8
/home/build/bsp/optee_os/lib/libutee/user_ta_entry.c:90
    1754:	927cecc6 	and	x6, x6, #0xfffffffffffffff0
    1758:	8b0500c6 	add	x6, x6, x5
/home/build/bsp/optee_os/lib/libutee/user_ta_entry.c:90 (discriminator 1)
    175c:	eb0600bf 	cmp	x5, x6
    1760:	54fffee0 	b.eq	173c <_get_fn_array+0x38>  // b.none
/home/build/bsp/optee_os/lib/libutee/user_ta_entry.c:91
    1764:	f9400068 	ldr	x8, [x3]
    1768:	b4000068 	cbz	x8, 1774 <_get_fn_array+0x70>
/home/build/bsp/optee_os/lib/libutee/user_ta_entry.c:91 (discriminator 1)
    176c:	f9400088 	ldr	x8, [x4]
    1770:	b5fffe68 	cbnz	x8, 173c <_get_fn_array+0x38>
/home/build/bsp/optee_os/lib/libutee/user_ta_entry.c:93
    1774:	f94000a8 	ldr	x8, [x5]
    1778:	b4fffe28 	cbz	x8, 173c <_get_fn_array+0x38>
/home/build/bsp/optee_os/lib/libutee/user_ta_entry.c:95
    177c:	eb01011f 	cmp	x8, x1
    1780:	540000e1 	b.ne	179c <_get_fn_array+0x98>  // b.any
/home/build/bsp/optee_os/lib/libutee/user_ta_entry.c:96
    1784:	f940000b 	ldr	x11, [x0]
    1788:	f94004a8 	ldr	x8, [x5, #8]
    178c:	8b0b0108 	add	x8, x8, x11
    1790:	f9000068 	str	x8, [x3]
/home/build/bsp/optee_os/lib/libutee/user_ta_entry.c:101 (discriminator 2)
    1794:	910040a5 	add	x5, x5, #0x10
/home/build/bsp/optee_os/lib/libutee/user_ta_entry.c:90 (discriminator 2)
    1798:	17fffff1 	b	175c <_get_fn_array+0x58>
/home/build/bsp/optee_os/lib/libutee/user_ta_entry.c:98
    179c:	eb02011f 	cmp	x8, x2
    17a0:	54ffffa1 	b.ne	1794 <_get_fn_array+0x90>  // b.any
/home/build/bsp/optee_os/lib/libutee/user_ta_entry.c:99
    17a4:	f94004a8 	ldr	x8, [x5, #8]
    17a8:	d343fd08 	lsr	x8, x8, #3
    17ac:	f9000088 	str	x8, [x4]
    17b0:	17fffff9 	b	1794 <_get_fn_array+0x90>

00000000000017b4 <_fini_iterate_phdr_cb>:
_fini_iterate_phdr_cb():
/home/build/bsp/optee_os/lib/libutee/user_ta_entry.c:140
    17b4:	a9bc7bfd 	stp	x29, x30, [sp, #-64]!
    17b8:	b0000081 	adrp	x1, 12000 <_DYNAMIC>
    17bc:	910003fd 	mov	x29, sp
    17c0:	f9409821 	ldr	x1, [x1, #304]
    17c4:	f9000bf3 	str	x19, [sp, #16]
/home/build/bsp/optee_os/lib/libutee/user_ta_entry.c:145
    17c8:	9100c3e4 	add	x4, sp, #0x30
    17cc:	9100a3e3 	add	x3, sp, #0x28
/home/build/bsp/optee_os/lib/libutee/user_ta_entry.c:140
    17d0:	f9400022 	ldr	x2, [x1]
    17d4:	f9001fe2 	str	x2, [sp, #56]
    17d8:	d2800002 	mov	x2, #0x0                   	// #0
/home/build/bsp/optee_os/lib/libutee/user_ta_entry.c:147
    17dc:	d2800033 	mov	x19, #0x1                   	// #1
/home/build/bsp/optee_os/lib/libutee/user_ta_entry.c:145
    17e0:	52800382 	mov	w2, #0x1c                  	// #28
    17e4:	52800341 	mov	w1, #0x1a                  	// #26
/home/build/bsp/optee_os/lib/libutee/user_ta_entry.c:142
    17e8:	a902ffff 	stp	xzr, xzr, [sp, #40]
/home/build/bsp/optee_os/lib/libutee/user_ta_entry.c:145
    17ec:	97ffffc6 	bl	1704 <_get_fn_array>
/home/build/bsp/optee_os/lib/libutee/user_ta_entry.c:147 (discriminator 1)
    17f0:	f9401be0 	ldr	x0, [sp, #48]
    17f4:	eb13001f 	cmp	x0, x19
    17f8:	54000122 	b.cs	181c <_fini_iterate_phdr_cb+0x68>  // b.hs, b.nlast
/home/build/bsp/optee_os/lib/libutee/user_ta_entry.c:151
    17fc:	b0000081 	adrp	x1, 12000 <_DYNAMIC>
    1800:	f9409821 	ldr	x1, [x1, #304]
    1804:	f9401fe0 	ldr	x0, [sp, #56]
    1808:	f9400022 	ldr	x2, [x1]
    180c:	eb020000 	subs	x0, x0, x2
    1810:	d2800002 	mov	x2, #0x0                   	// #0
    1814:	54000100 	b.eq	1834 <_fini_iterate_phdr_cb+0x80>  // b.none
    1818:	97fffba6 	bl	6b0 <__stack_chk_fail>
/home/build/bsp/optee_os/lib/libutee/user_ta_entry.c:148 (discriminator 3)
    181c:	f94017e1 	ldr	x1, [sp, #40]
    1820:	cb130000 	sub	x0, x0, x19
/home/build/bsp/optee_os/lib/libutee/user_ta_entry.c:147 (discriminator 3)
    1824:	91000673 	add	x19, x19, #0x1
/home/build/bsp/optee_os/lib/libutee/user_ta_entry.c:148 (discriminator 3)
    1828:	f8607820 	ldr	x0, [x1, x0, lsl #3]
    182c:	d63f0000 	blr	x0
/home/build/bsp/optee_os/lib/libutee/user_ta_entry.c:147 (discriminator 3)
    1830:	17fffff0 	b	17f0 <_fini_iterate_phdr_cb+0x3c>
/home/build/bsp/optee_os/lib/libutee/user_ta_entry.c:151
    1834:	52800000 	mov	w0, #0x0                   	// #0
    1838:	f9400bf3 	ldr	x19, [sp, #16]
    183c:	a8c47bfd 	ldp	x29, x30, [sp], #64
    1840:	d65f03c0 	ret

0000000000001844 <ta_header_get_session>:
ta_header_get_session():
/home/build/bsp/optee_os/lib/libutee/user_ta_entry.c:208
    1844:	2a0003e1 	mov	w1, w0
/home/build/bsp/optee_os/lib/libutee/user_ta_entry.c:211
    1848:	b0000080 	adrp	x0, 12000 <_DYNAMIC>
    184c:	f9428000 	ldr	x0, [x0, #1280]
/home/build/bsp/optee_os/lib/libutee/user_ta_entry.c:211 (discriminator 1)
    1850:	b5000040 	cbnz	x0, 1858 <ta_header_get_session+0x14>
/home/build/bsp/optee_os/lib/libutee/user_ta_entry.c:216
    1854:	d65f03c0 	ret
/home/build/bsp/optee_os/lib/libutee/user_ta_entry.c:212
    1858:	b9400002 	ldr	w2, [x0]
    185c:	6b01005f 	cmp	w2, w1
    1860:	54ffffa0 	b.eq	1854 <ta_header_get_session+0x10>  // b.none
/home/build/bsp/optee_os/lib/libutee/user_ta_entry.c:211 (discriminator 2)
    1864:	f9400800 	ldr	x0, [x0, #16]
    1868:	17fffffa 	b	1850 <ta_header_get_session+0xc>

000000000000186c <to_utee_params>:
to_utee_params():
/home/build/bsp/optee_os/lib/libutee/user_ta_entry.c:270
    186c:	2a0103e3 	mov	w3, w1
    1870:	f8008403 	str	x3, [x0], #8
    1874:	52800003 	mov	w3, #0x0                   	// #0
/home/build/bsp/optee_os/lib/libutee/user_ta_entry.c:272
    1878:	1ac32425 	lsr	w5, w1, w3
    187c:	12000ca4 	and	w4, w5, #0xf
    1880:	721e04bf 	tst	w5, #0xc
    1884:	54000181 	b.ne	18b4 <to_utee_params+0x48>  // b.any
    1888:	340001c4 	cbz	w4, 18c0 <to_utee_params+0x54>
/home/build/bsp/optee_os/lib/libutee/user_ta_entry.c:276
    188c:	b9400044 	ldr	w4, [x2]
    1890:	f9000004 	str	x4, [x0]
/home/build/bsp/optee_os/lib/libutee/user_ta_entry.c:277
    1894:	b9400444 	ldr	w4, [x2, #4]
/home/build/bsp/optee_os/lib/libutee/user_ta_entry.c:271 (discriminator 2)
    1898:	11001063 	add	w3, w3, #0x4
/home/build/bsp/optee_os/lib/libutee/user_ta_entry.c:277 (discriminator 2)
    189c:	f9000404 	str	x4, [x0, #8]
/home/build/bsp/optee_os/lib/libutee/user_ta_entry.c:271 (discriminator 2)
    18a0:	91004042 	add	x2, x2, #0x10
    18a4:	91004000 	add	x0, x0, #0x10
    18a8:	7100407f 	cmp	w3, #0x10
    18ac:	54fffe61 	b.ne	1878 <to_utee_params+0xc>  // b.any
/home/build/bsp/optee_os/lib/libutee/user_ta_entry.c:291
    18b0:	d65f03c0 	ret
/home/build/bsp/optee_os/lib/libutee/user_ta_entry.c:272
    18b4:	51001484 	sub	w4, w4, #0x5
    18b8:	7100089f 	cmp	w4, #0x2
    18bc:	54000089 	b.ls	18cc <to_utee_params+0x60>  // b.plast
/home/build/bsp/optee_os/lib/libutee/user_ta_entry.c:288
    18c0:	d2800004 	mov	x4, #0x0                   	// #0
/home/build/bsp/optee_os/lib/libutee/user_ta_entry.c:286
    18c4:	f900001f 	str	xzr, [x0]
/home/build/bsp/optee_os/lib/libutee/user_ta_entry.c:288
    18c8:	17fffff4 	b	1898 <to_utee_params+0x2c>
/home/build/bsp/optee_os/lib/libutee/user_ta_entry.c:282
    18cc:	f9400044 	ldr	x4, [x2]
    18d0:	f9000004 	str	x4, [x0]
/home/build/bsp/optee_os/lib/libutee/user_ta_entry.c:283
    18d4:	f9400444 	ldr	x4, [x2, #8]
/home/build/bsp/optee_os/lib/libutee/user_ta_entry.c:284
    18d8:	17fffff0 	b	1898 <to_utee_params+0x2c>

00000000000018dc <from_utee_params>:
from_utee_params():
/home/build/bsp/optee_os/lib/libutee/user_ta_entry.c:298
    18dc:	f8408445 	ldr	x5, [x2], #8
    18e0:	52800003 	mov	w3, #0x0                   	// #0
    18e4:	2a0503e9 	mov	w9, w5
/home/build/bsp/optee_os/lib/libutee/user_ta_entry.c:304
    18e8:	1ac32528 	lsr	w8, w9, w3
    18ec:	12000d04 	and	w4, w8, #0xf
/home/build/bsp/optee_os/lib/libutee/user_ta_entry.c:302
    18f0:	a9401847 	ldp	x7, x6, [x2]
/home/build/bsp/optee_os/lib/libutee/user_ta_entry.c:304
    18f4:	721e051f 	tst	w8, #0xc
    18f8:	54000081 	b.ne	1908 <from_utee_params+0x2c>  // b.any
    18fc:	340000c4 	cbz	w4, 1914 <from_utee_params+0x38>
/home/build/bsp/optee_os/lib/libutee/user_ta_entry.c:309
    1900:	29001807 	stp	w7, w6, [x0]
/home/build/bsp/optee_os/lib/libutee/user_ta_entry.c:310
    1904:	14000004 	b	1914 <from_utee_params+0x38>
/home/build/bsp/optee_os/lib/libutee/user_ta_entry.c:304
    1908:	51001484 	sub	w4, w4, #0x5
    190c:	7100089f 	cmp	w4, #0x2
    1910:	54000109 	b.ls	1930 <from_utee_params+0x54>  // b.plast
/home/build/bsp/optee_os/lib/libutee/user_ta_entry.c:300 (discriminator 2)
    1914:	11001063 	add	w3, w3, #0x4
    1918:	91004042 	add	x2, x2, #0x10
    191c:	91004000 	add	x0, x0, #0x10
    1920:	7100407f 	cmp	w3, #0x10
    1924:	54fffe21 	b.ne	18e8 <from_utee_params+0xc>  // b.any
/home/build/bsp/optee_os/lib/libutee/user_ta_entry.c:323
    1928:	b9000025 	str	w5, [x1]
/home/build/bsp/optee_os/lib/libutee/user_ta_entry.c:324
    192c:	d65f03c0 	ret
/home/build/bsp/optee_os/lib/libutee/user_ta_entry.c:315
    1930:	a9001807 	stp	x7, x6, [x0]
/home/build/bsp/optee_os/lib/libutee/user_ta_entry.c:316
    1934:	17fffff8 	b	1914 <from_utee_params+0x38>

0000000000001938 <_init_iterate_phdr_cb>:
_init_iterate_phdr_cb():
/home/build/bsp/optee_os/lib/libutee/user_ta_entry.c:60
    1938:	a9bd7bfd 	stp	x29, x30, [sp, #-48]!
    193c:	910003fd 	mov	x29, sp
    1940:	a90153f3 	stp	x19, x20, [sp, #16]
    1944:	aa0203f4 	mov	x20, x2
    1948:	f90013f5 	str	x21, [sp, #32]
    194c:	aa0003f5 	mov	x21, x0
/home/build/bsp/optee_os/lib/libutee/user_ta_entry.c:64
    1950:	d2800a00 	mov	x0, #0x50                  	// #80
    1954:	94002c07 	bl	c970 <malloc>
/home/build/bsp/optee_os/lib/libutee/user_ta_entry.c:65
    1958:	b5000140 	cbnz	x0, 1980 <_init_iterate_phdr_cb+0x48>
/home/build/bsp/optee_os/lib/libutee/user_ta_entry.c:66
    195c:	f0000064 	adrp	x4, 10000 <__func__.0+0x28>
    1960:	f0000060 	adrp	x0, 10000 <__func__.0+0x28>
    1964:	911cbc84 	add	x4, x4, #0x72f
    1968:	911df800 	add	x0, x0, #0x77e
    196c:	52800023 	mov	w3, #0x1                   	// #1
    1970:	52800022 	mov	w2, #0x1                   	// #1
    1974:	52800841 	mov	w1, #0x42                  	// #66
    1978:	97fffb14 	bl	5c8 <trace_printf>
/home/build/bsp/optee_os/lib/libutee/user_ta_entry.c:67
    197c:	94000262 	bl	2304 <abort>
    1980:	aa0003f3 	mov	x19, x0
/home/build/bsp/optee_os/lib/libutee/user_ta_entry.c:69
    1984:	aa1503e1 	mov	x1, x21
    1988:	d2800802 	mov	x2, #0x40                  	// #64
    198c:	97fff99d 	bl	0 <memcpy>
/home/build/bsp/optee_os/lib/libutee/user_ta_entry.c:70
    1990:	b0000080 	adrp	x0, 12000 <_DYNAMIC>
    1994:	91140000 	add	x0, x0, #0x500
/home/build/bsp/optee_os/lib/libutee/user_ta_entry.c:73
    1998:	f94013f5 	ldr	x21, [sp, #32]
/home/build/bsp/optee_os/lib/libutee/user_ta_entry.c:70
    199c:	f9400c01 	ldr	x1, [x0, #24]
    19a0:	a904067f 	stp	xzr, x1, [x19, #64]
    19a4:	f9000033 	str	x19, [x1]
    19a8:	91010273 	add	x19, x19, #0x40
    19ac:	f9000c13 	str	x19, [x0, #24]
/home/build/bsp/optee_os/lib/libutee/user_ta_entry.c:71
    19b0:	f9400280 	ldr	x0, [x20]
    19b4:	91000400 	add	x0, x0, #0x1
    19b8:	f9000280 	str	x0, [x20]
/home/build/bsp/optee_os/lib/libutee/user_ta_entry.c:73
    19bc:	52800000 	mov	w0, #0x0                   	// #0
    19c0:	a94153f3 	ldp	x19, x20, [sp, #16]
    19c4:	a8c37bfd 	ldp	x29, x30, [sp], #48
    19c8:	d65f03c0 	ret

00000000000019cc <__utee_call_elf_init_fn>:
__utee_call_elf_init_fn():
/home/build/bsp/optee_os/lib/libutee/user_ta_entry.c:107
    19cc:	a9b97bfd 	stp	x29, x30, [sp, #-112]!
    19d0:	b0000080 	adrp	x0, 12000 <_DYNAMIC>
    19d4:	910003fd 	mov	x29, sp
    19d8:	f9409800 	ldr	x0, [x0, #304]
    19dc:	a90153f3 	stp	x19, x20, [sp, #16]
/home/build/bsp/optee_os/lib/libutee/user_ta_entry.c:119
    19e0:	b0000094 	adrp	x20, 12000 <_DYNAMIC>
/home/build/bsp/optee_os/lib/libutee/user_ta_entry.c:107
    19e4:	a9025bf5 	stp	x21, x22, [sp, #32]
/home/build/bsp/optee_os/lib/libutee/user_ta_entry.c:111
    19e8:	d2800013 	mov	x19, #0x0                   	// #0
/home/build/bsp/optee_os/lib/libutee/user_ta_entry.c:107
    19ec:	a90363f7 	stp	x23, x24, [sp, #48]
/home/build/bsp/optee_os/lib/libutee/user_ta_entry.c:122
    19f0:	910183f8 	add	x24, sp, #0x60
/home/build/bsp/optee_os/lib/libutee/user_ta_entry.c:120
    19f4:	b0000097 	adrp	x23, 12000 <_DYNAMIC>
/home/build/bsp/optee_os/lib/libutee/user_ta_entry.c:107
    19f8:	f90023f9 	str	x25, [sp, #64]
/home/build/bsp/optee_os/lib/libutee/user_ta_entry.c:122
    19fc:	910143f9 	add	x25, sp, #0x50
/home/build/bsp/optee_os/lib/libutee/user_ta_entry.c:107
    1a00:	f9400001 	ldr	x1, [x0]
    1a04:	f90037e1 	str	x1, [sp, #104]
    1a08:	d2800001 	mov	x1, #0x0                   	// #0
/home/build/bsp/optee_os/lib/libutee/user_ta_entry.c:116
    1a0c:	90000000 	adrp	x0, 1000 <kprintf.constprop.0+0x734>
    1a10:	910163e1 	add	x1, sp, #0x58
    1a14:	9124e000 	add	x0, x0, #0x938
/home/build/bsp/optee_os/lib/libutee/user_ta_entry.c:109
    1a18:	a9057fff 	stp	xzr, xzr, [sp, #80]
/home/build/bsp/optee_os/lib/libutee/user_ta_entry.c:110
    1a1c:	f90033ff 	str	xzr, [sp, #96]
/home/build/bsp/optee_os/lib/libutee/user_ta_entry.c:116
    1a20:	9400148b 	bl	6c4c <dl_iterate_phdr>
/home/build/bsp/optee_os/lib/libutee/user_ta_entry.c:119
    1a24:	91140280 	add	x0, x20, #0x500
    1a28:	f9400c00 	ldr	x0, [x0, #24]
    1a2c:	f9400400 	ldr	x0, [x0, #8]
    1a30:	f9400015 	ldr	x21, [x0]
/home/build/bsp/optee_os/lib/libutee/user_ta_entry.c:120 (discriminator 1)
    1a34:	f9430ae1 	ldr	x1, [x23, #1552]
/home/build/bsp/optee_os/lib/libutee/user_ta_entry.c:119 (discriminator 1)
    1a38:	b5000155 	cbnz	x21, 1a60 <__utee_call_elf_init_fn+0x94>
/home/build/bsp/optee_os/lib/libutee/user_ta_entry.c:132
    1a3c:	91140294 	add	x20, x20, #0x500
/home/build/bsp/optee_os/lib/libutee/user_ta_entry.c:130
    1a40:	8b010273 	add	x19, x19, x1
    1a44:	f9030af3 	str	x19, [x23, #1552]
/home/build/bsp/optee_os/lib/libutee/user_ta_entry.c:132
    1a48:	f9400a80 	ldr	x0, [x20, #16]
/home/build/bsp/optee_os/lib/libutee/user_ta_entry.c:132 (discriminator 2)
    1a4c:	b40004a0 	cbz	x0, 1ae0 <__utee_call_elf_init_fn+0x114>
/home/build/bsp/optee_os/lib/libutee/user_ta_entry.c:133 (discriminator 3)
    1a50:	a9440413 	ldp	x19, x1, [x0, #64]
    1a54:	b50003b3 	cbnz	x19, 1ac8 <__utee_call_elf_init_fn+0xfc>
/home/build/bsp/optee_os/lib/libutee/user_ta_entry.c:133 (discriminator 2)
    1a58:	f9000e81 	str	x1, [x20, #24]
    1a5c:	1400001c 	b	1acc <__utee_call_elf_init_fn+0x100>
/home/build/bsp/optee_os/lib/libutee/user_ta_entry.c:120
    1a60:	f9402fe0 	ldr	x0, [sp, #88]
    1a64:	cb010000 	sub	x0, x0, x1
    1a68:	eb13001f 	cmp	x0, x19
    1a6c:	54fffe80 	b.eq	1a3c <__utee_call_elf_init_fn+0x70>  // b.none
/home/build/bsp/optee_os/lib/libutee/user_ta_entry.c:124
    1a70:	d2800016 	mov	x22, #0x0                   	// #0
/home/build/bsp/optee_os/lib/libutee/user_ta_entry.c:122
    1a74:	aa1803e4 	mov	x4, x24
    1a78:	aa1903e3 	mov	x3, x25
    1a7c:	aa1503e0 	mov	x0, x21
    1a80:	52800362 	mov	w2, #0x1b                  	// #27
    1a84:	52800321 	mov	w1, #0x19                  	// #25
    1a88:	97ffff1f 	bl	1704 <_get_fn_array>
/home/build/bsp/optee_os/lib/libutee/user_ta_entry.c:124 (discriminator 1)
    1a8c:	f94033e0 	ldr	x0, [sp, #96]
    1a90:	eb16001f 	cmp	x0, x22
    1a94:	54000108 	b.hi	1ab4 <__utee_call_elf_init_fn+0xe8>  // b.pmore
/home/build/bsp/optee_os/lib/libutee/user_ta_entry.c:119 (discriminator 2)
    1a98:	f94026a0 	ldr	x0, [x21, #72]
/home/build/bsp/optee_os/lib/libutee/user_ta_entry.c:128 (discriminator 2)
    1a9c:	91000673 	add	x19, x19, #0x1
/home/build/bsp/optee_os/lib/libutee/user_ta_entry.c:126 (discriminator 2)
    1aa0:	f9002bff 	str	xzr, [sp, #80]
/home/build/bsp/optee_os/lib/libutee/user_ta_entry.c:127 (discriminator 2)
    1aa4:	f90033ff 	str	xzr, [sp, #96]
/home/build/bsp/optee_os/lib/libutee/user_ta_entry.c:119 (discriminator 2)
    1aa8:	f9400400 	ldr	x0, [x0, #8]
    1aac:	f9400015 	ldr	x21, [x0]
    1ab0:	17ffffe1 	b	1a34 <__utee_call_elf_init_fn+0x68>
/home/build/bsp/optee_os/lib/libutee/user_ta_entry.c:125 (discriminator 3)
    1ab4:	f9402be0 	ldr	x0, [sp, #80]
    1ab8:	f8767800 	ldr	x0, [x0, x22, lsl #3]
/home/build/bsp/optee_os/lib/libutee/user_ta_entry.c:124 (discriminator 3)
    1abc:	910006d6 	add	x22, x22, #0x1
/home/build/bsp/optee_os/lib/libutee/user_ta_entry.c:125 (discriminator 3)
    1ac0:	d63f0000 	blr	x0
/home/build/bsp/optee_os/lib/libutee/user_ta_entry.c:124 (discriminator 3)
    1ac4:	17fffff2 	b	1a8c <__utee_call_elf_init_fn+0xc0>
/home/build/bsp/optee_os/lib/libutee/user_ta_entry.c:133 (discriminator 1)
    1ac8:	f9002661 	str	x1, [x19, #72]
/home/build/bsp/optee_os/lib/libutee/user_ta_entry.c:133 (discriminator 4)
    1acc:	f9402401 	ldr	x1, [x0, #72]
    1ad0:	f9000033 	str	x19, [x1]
/home/build/bsp/optee_os/lib/libutee/user_ta_entry.c:134 (discriminator 4)
    1ad4:	94002bc7 	bl	c9f0 <free>
/home/build/bsp/optee_os/lib/libutee/user_ta_entry.c:132 (discriminator 4)
    1ad8:	aa1303e0 	mov	x0, x19
    1adc:	17ffffdc 	b	1a4c <__utee_call_elf_init_fn+0x80>
/home/build/bsp/optee_os/lib/libutee/user_ta_entry.c:136
    1ae0:	b0000080 	adrp	x0, 12000 <_DYNAMIC>
    1ae4:	f9409800 	ldr	x0, [x0, #304]
    1ae8:	f94037e2 	ldr	x2, [sp, #104]
    1aec:	f9400001 	ldr	x1, [x0]
    1af0:	eb010042 	subs	x2, x2, x1
    1af4:	d2800001 	mov	x1, #0x0                   	// #0
    1af8:	54000040 	b.eq	1b00 <__utee_call_elf_init_fn+0x134>  // b.none
    1afc:	97fffaed 	bl	6b0 <__stack_chk_fail>
    1b00:	a94153f3 	ldp	x19, x20, [sp, #16]
    1b04:	a9425bf5 	ldp	x21, x22, [sp, #32]
    1b08:	a94363f7 	ldp	x23, x24, [sp, #48]
    1b0c:	f94023f9 	ldr	x25, [sp, #64]
    1b10:	a8c77bfd 	ldp	x29, x30, [sp], #112
    1b14:	d65f03c0 	ret

0000000000001b18 <__utee_call_elf_fini_fn>:
__utee_call_elf_fini_fn():
/home/build/bsp/optee_os/lib/libutee/user_ta_entry.c:155
    1b18:	d2800001 	mov	x1, #0x0                   	// #0
    1b1c:	90000000 	adrp	x0, 1000 <kprintf.constprop.0+0x734>
    1b20:	911ed000 	add	x0, x0, #0x7b4
    1b24:	1400144a 	b	6c4c <dl_iterate_phdr>

0000000000001b28 <ta_header_remove_session>:
ta_header_remove_session():
/home/build/bsp/optee_os/lib/libutee/user_ta_entry.c:245
    1b28:	a9be7bfd 	stp	x29, x30, [sp, #-32]!
    1b2c:	2a0003e2 	mov	w2, w0
    1b30:	910003fd 	mov	x29, sp
    1b34:	f9000bf3 	str	x19, [sp, #16]
/home/build/bsp/optee_os/lib/libutee/user_ta_entry.c:249
    1b38:	b0000093 	adrp	x19, 12000 <_DYNAMIC>
    1b3c:	f9428260 	ldr	x0, [x19, #1280]
/home/build/bsp/optee_os/lib/libutee/user_ta_entry.c:249 (discriminator 1)
    1b40:	b5000080 	cbnz	x0, 1b50 <ta_header_remove_session+0x28>
/home/build/bsp/optee_os/lib/libutee/user_ta_entry.c:263
    1b44:	f9400bf3 	ldr	x19, [sp, #16]
    1b48:	a8c27bfd 	ldp	x29, x30, [sp], #32
    1b4c:	d65f03c0 	ret
/home/build/bsp/optee_os/lib/libutee/user_ta_entry.c:250
    1b50:	b9400003 	ldr	w3, [x0]
/home/build/bsp/optee_os/lib/libutee/user_ta_entry.c:251
    1b54:	f9400801 	ldr	x1, [x0, #16]
/home/build/bsp/optee_os/lib/libutee/user_ta_entry.c:250
    1b58:	6b02007f 	cmp	w3, w2
    1b5c:	540002c1 	b.ne	1bb4 <ta_header_remove_session+0x8c>  // b.any
/home/build/bsp/optee_os/lib/libutee/user_ta_entry.c:251
    1b60:	f9400c02 	ldr	x2, [x0, #24]
    1b64:	b4000221 	cbz	x1, 1ba8 <ta_header_remove_session+0x80>
/home/build/bsp/optee_os/lib/libutee/user_ta_entry.c:251 (discriminator 1)
    1b68:	f9000c22 	str	x2, [x1, #24]
/home/build/bsp/optee_os/lib/libutee/user_ta_entry.c:251 (discriminator 4)
    1b6c:	f9400c02 	ldr	x2, [x0, #24]
    1b70:	f9000041 	str	x1, [x2]
/home/build/bsp/optee_os/lib/libutee/user_ta_entry.c:252 (discriminator 4)
    1b74:	940005c6 	bl	328c <TEE_Free>
/home/build/bsp/optee_os/lib/libutee/user_ta_entry.c:255 (discriminator 4)
    1b78:	b0000080 	adrp	x0, 12000 <_DYNAMIC>
    1b7c:	f940e800 	ldr	x0, [x0, #464]
    1b80:	f9400801 	ldr	x1, [x0, #16]
/home/build/bsp/optee_os/lib/libutee/user_ta_entry.c:257 (discriminator 4)
    1b84:	f9428260 	ldr	x0, [x19, #1280]
    1b88:	b5fffde0 	cbnz	x0, 1b44 <ta_header_remove_session+0x1c>
/home/build/bsp/optee_os/lib/libutee/user_ta_entry.c:257 (discriminator 1)
    1b8c:	d2c00280 	mov	x0, #0x1400000000          	// #85899345920
    1b90:	ea21001f 	bics	xzr, x0, x1
    1b94:	54fffd80 	b.eq	1b44 <ta_header_remove_session+0x1c>  // b.none
uninit_instance():
/home/build/bsp/optee_os/lib/libutee/user_ta_entry.c:192
    1b98:	97fff962 	bl	120 <TA_DestroyEntryPoint>
ta_header_remove_session():
/home/build/bsp/optee_os/lib/libutee/user_ta_entry.c:263
    1b9c:	f9400bf3 	ldr	x19, [sp, #16]
    1ba0:	a8c27bfd 	ldp	x29, x30, [sp], #32
uninit_instance():
/home/build/bsp/optee_os/lib/libutee/user_ta_entry.c:193
    1ba4:	17ffffdd 	b	1b18 <__utee_call_elf_fini_fn>
ta_header_remove_session():
/home/build/bsp/optee_os/lib/libutee/user_ta_entry.c:251 (discriminator 2)
    1ba8:	91140263 	add	x3, x19, #0x500
    1bac:	f9000462 	str	x2, [x3, #8]
    1bb0:	17ffffef 	b	1b6c <ta_header_remove_session+0x44>
/home/build/bsp/optee_os/lib/libutee/user_ta_entry.c:251
    1bb4:	aa0103e0 	mov	x0, x1
    1bb8:	17ffffe2 	b	1b40 <ta_header_remove_session+0x18>

0000000000001bbc <__utee_entry>:
__utee_entry():
/home/build/bsp/optee_os/lib/libutee/user_ta_entry.c:421
    1bbc:	a9b77bfd 	stp	x29, x30, [sp, #-144]!
    1bc0:	b0000084 	adrp	x4, 12000 <_DYNAMIC>
/home/build/bsp/optee_os/lib/libutee/user_ta_entry.c:424
    1bc4:	f100041f 	cmp	x0, #0x1
/home/build/bsp/optee_os/lib/libutee/user_ta_entry.c:421
    1bc8:	910003fd 	mov	x29, sp
    1bcc:	a9025bf5 	stp	x21, x22, [sp, #32]
    1bd0:	aa0103f5 	mov	x21, x1
    1bd4:	aa0203f6 	mov	x22, x2
    1bd8:	f9409881 	ldr	x1, [x4, #304]
    1bdc:	a90153f3 	stp	x19, x20, [sp, #16]
    1be0:	aa0403f4 	mov	x20, x4
    1be4:	a90363f7 	stp	x23, x24, [sp, #48]
    1be8:	f9400022 	ldr	x2, [x1]
    1bec:	f90047e2 	str	x2, [sp, #136]
    1bf0:	d2800002 	mov	x2, #0x0                   	// #0
/home/build/bsp/optee_os/lib/libutee/user_ta_entry.c:424
    1bf4:	54000ca0 	b.eq	1d88 <__utee_entry+0x1cc>  // b.none
    1bf8:	f100081f 	cmp	x0, #0x2
    1bfc:	54000d80 	b.eq	1dac <__utee_entry+0x1f0>  // b.none
    1c00:	b50010e0 	cbnz	x0, 1e1c <__utee_entry+0x260>
ta_header_add_session():
/home/build/bsp/optee_os/lib/libutee/user_ta_entry.c:220
    1c04:	2a1503e0 	mov	w0, w21
    1c08:	97ffff0f 	bl	1844 <ta_header_get_session>
/home/build/bsp/optee_os/lib/libutee/user_ta_entry.c:223
    1c0c:	b5000840 	cbnz	x0, 1d14 <__utee_entry+0x158>
/home/build/bsp/optee_os/lib/libutee/user_ta_entry.c:226
    1c10:	b0000080 	adrp	x0, 12000 <_DYNAMIC>
    1c14:	91184000 	add	x0, x0, #0x610
    1c18:	39402001 	ldrb	w1, [x0, #8]
    1c1c:	340000e1 	cbz	w1, 1c38 <__utee_entry+0x7c>
/home/build/bsp/optee_os/lib/libutee/user_ta_entry.c:233
    1c20:	52b00001 	mov	w1, #0x80000000            	// #-2147483648
    1c24:	d2800400 	mov	x0, #0x20                  	// #32
    1c28:	9400054e 	bl	3160 <TEE_Malloc>
/home/build/bsp/optee_os/lib/libutee/user_ta_entry.c:235
    1c2c:	b5000620 	cbnz	x0, 1cf0 <__utee_entry+0x134>
/home/build/bsp/optee_os/lib/libutee/user_ta_entry.c:236
    1c30:	129ffe73 	mov	w19, #0xffff000c            	// #-65524
    1c34:	14000022 	b	1cbc <__utee_entry+0x100>
/home/build/bsp/optee_os/lib/libutee/user_ta_entry.c:227
    1c38:	52800021 	mov	w1, #0x1                   	// #1
    1c3c:	39002001 	strb	w1, [x0, #8]
init_instance():
/home/build/bsp/optee_os/lib/libutee/user_ta_entry.c:170
    1c40:	97fff9c8 	bl	360 <tahead_get_trace_level>
    1c44:	97fff9cf 	bl	380 <trace_set_level>
/home/build/bsp/optee_os/lib/libutee/user_ta_entry.c:172
    1c48:	f9409e80 	ldr	x0, [x20, #312]
    1c4c:	f9400001 	ldr	x1, [x0]
    1c50:	f940be80 	ldr	x0, [x20, #376]
    1c54:	94002c34 	bl	cd24 <malloc_add_pool>
/home/build/bsp/optee_os/lib/libutee/user_ta_entry.c:173
    1c58:	f940a280 	ldr	x0, [x20, #320]
    1c5c:	f9400017 	ldr	x23, [x0]
    1c60:	b4000177 	cbz	x23, 1c8c <__utee_entry+0xd0>
/home/build/bsp/optee_os/lib/libutee/user_ta_entry.c:174
    1c64:	94002b6b 	bl	ca10 <raw_malloc_get_ctx_size>
    1c68:	94002b42 	bl	c970 <malloc>
    1c6c:	f940da93 	ldr	x19, [x20, #432]
    1c70:	f9000260 	str	x0, [x19]
/home/build/bsp/optee_os/lib/libutee/user_ta_entry.c:175
    1c74:	b40000c0 	cbz	x0, 1c8c <__utee_entry+0xd0>
/home/build/bsp/optee_os/lib/libutee/user_ta_entry.c:176
    1c78:	94002b68 	bl	ca18 <raw_malloc_init_ctx>
/home/build/bsp/optee_os/lib/libutee/user_ta_entry.c:177
    1c7c:	f940de81 	ldr	x1, [x20, #440]
    1c80:	aa1703e2 	mov	x2, x23
    1c84:	f9400260 	ldr	x0, [x19]
    1c88:	94002b6b 	bl	ca34 <raw_malloc_add_pool>
get_memtag_implementation():
/home/build/bsp/optee_os/lib/libutee/user_ta_entry.c:163
    1c8c:	910113e2 	add	x2, sp, #0x44
    1c90:	f0000061 	adrp	x1, 10000 <__func__.0+0x28>
    1c94:	911d2021 	add	x1, x1, #0x748
    1c98:	12800040 	mov	w0, #0xfffffffd            	// #-3
/home/build/bsp/optee_os/lib/libutee/user_ta_entry.c:161
    1c9c:	b90047ff 	str	wzr, [sp, #68]
/home/build/bsp/optee_os/lib/libutee/user_ta_entry.c:163
    1ca0:	9400109b 	bl	5f0c <TEE_GetPropertyAsU32>
init_instance():
/home/build/bsp/optee_os/lib/libutee/user_ta_entry.c:183
    1ca4:	940007f0 	bl	3c64 <_TEE_MathAPI_Init>
/home/build/bsp/optee_os/lib/libutee/user_ta_entry.c:184
    1ca8:	94001352 	bl	69f0 <__utee_tcb_init>
/home/build/bsp/optee_os/lib/libutee/user_ta_entry.c:185
    1cac:	97ffff48 	bl	19cc <__utee_call_elf_init_fn>
/home/build/bsp/optee_os/lib/libutee/user_ta_entry.c:186
    1cb0:	97fff90f 	bl	ec <TA_CreateEntryPoint>
    1cb4:	2a0003f3 	mov	w19, w0
ta_header_add_session():
/home/build/bsp/optee_os/lib/libutee/user_ta_entry.c:229
    1cb8:	34fffb40 	cbz	w0, 1c20 <__utee_entry+0x64>
ta_header_save_params():
/home/build/bsp/optee_os/lib/libutee/user_ta_entry.c:199
    1cbc:	f940d280 	ldr	x0, [x20, #416]
/home/build/bsp/optee_os/lib/libutee/user_ta_entry.c:204
    1cc0:	4f000400 	movi	v0.4s, #0x0
/home/build/bsp/optee_os/lib/libutee/user_ta_entry.c:199
    1cc4:	b900001f 	str	wzr, [x0]
/home/build/bsp/optee_os/lib/libutee/user_ta_entry.c:204
    1cc8:	f940e280 	ldr	x0, [x20, #448]
__utee_entry():
/home/build/bsp/optee_os/lib/libutee/user_ta_entry.c:446
    1ccc:	f9409a94 	ldr	x20, [x20, #304]
ta_header_save_params():
/home/build/bsp/optee_os/lib/libutee/user_ta_entry.c:204
    1cd0:	ad000000 	stp	q0, q0, [x0]
    1cd4:	ad010000 	stp	q0, q0, [x0, #32]
__utee_entry():
/home/build/bsp/optee_os/lib/libutee/user_ta_entry.c:446
    1cd8:	f94047e0 	ldr	x0, [sp, #136]
    1cdc:	f9400281 	ldr	x1, [x20]
    1ce0:	eb010000 	subs	x0, x0, x1
    1ce4:	d2800001 	mov	x1, #0x0                   	// #0
    1ce8:	54000a20 	b.eq	1e2c <__utee_entry+0x270>  // b.none
    1cec:	97fffa71 	bl	6b0 <__stack_chk_fail>
ta_header_add_session():
/home/build/bsp/optee_os/lib/libutee/user_ta_entry.c:239
    1cf0:	b0000081 	adrp	x1, 12000 <_DYNAMIC>
    1cf4:	91140021 	add	x1, x1, #0x500
    1cf8:	f9400422 	ldr	x2, [x1, #8]
/home/build/bsp/optee_os/lib/libutee/user_ta_entry.c:237
    1cfc:	b9000015 	str	w21, [x0]
/home/build/bsp/optee_os/lib/libutee/user_ta_entry.c:239
    1d00:	a900fc1f 	stp	xzr, xzr, [x0, #8]
    1d04:	f9000c02 	str	x2, [x0, #24]
    1d08:	f9000040 	str	x0, [x2]
    1d0c:	91004000 	add	x0, x0, #0x10
    1d10:	f9000420 	str	x0, [x1, #8]
entry_open_session():
/home/build/bsp/optee_os/lib/libutee/user_ta_entry.c:338
    1d14:	2a1503e0 	mov	w0, w21
    1d18:	97fffecb 	bl	1844 <ta_header_get_session>
    1d1c:	aa0003f3 	mov	x19, x0
/home/build/bsp/optee_os/lib/libutee/user_ta_entry.c:339
    1d20:	b4000820 	cbz	x0, 1e24 <__utee_entry+0x268>
/home/build/bsp/optee_os/lib/libutee/user_ta_entry.c:342
    1d24:	910123f7 	add	x23, sp, #0x48
    1d28:	aa1603e2 	mov	x2, x22
    1d2c:	910113e1 	add	x1, sp, #0x44
    1d30:	aa1703e0 	mov	x0, x23
    1d34:	97fffeea 	bl	18dc <from_utee_params>
/home/build/bsp/optee_os/lib/libutee/user_ta_entry.c:343
    1d38:	b94047f8 	ldr	w24, [sp, #68]
ta_header_save_params():
/home/build/bsp/optee_os/lib/libutee/user_ta_entry.c:199
    1d3c:	f940d280 	ldr	x0, [x20, #416]
/home/build/bsp/optee_os/lib/libutee/user_ta_entry.c:202
    1d40:	aa1703e1 	mov	x1, x23
    1d44:	d2800802 	mov	x2, #0x40                  	// #64
/home/build/bsp/optee_os/lib/libutee/user_ta_entry.c:199
    1d48:	b9000018 	str	w24, [x0]
/home/build/bsp/optee_os/lib/libutee/user_ta_entry.c:202
    1d4c:	f940e280 	ldr	x0, [x20, #448]
    1d50:	97fff8ac 	bl	0 <memcpy>
entry_open_session():
/home/build/bsp/optee_os/lib/libutee/user_ta_entry.c:345
    1d54:	91002262 	add	x2, x19, #0x8
    1d58:	aa1703e1 	mov	x1, x23
    1d5c:	2a1803e0 	mov	w0, w24
    1d60:	97fff982 	bl	368 <TA_OpenSessionEntryPoint>
/home/build/bsp/optee_os/lib/libutee/user_ta_entry.c:348
    1d64:	aa1703e2 	mov	x2, x23
/home/build/bsp/optee_os/lib/libutee/user_ta_entry.c:345
    1d68:	2a0003f3 	mov	w19, w0
/home/build/bsp/optee_os/lib/libutee/user_ta_entry.c:348
    1d6c:	2a1803e1 	mov	w1, w24
    1d70:	aa1603e0 	mov	x0, x22
    1d74:	97fffebe 	bl	186c <to_utee_params>
/home/build/bsp/optee_os/lib/libutee/user_ta_entry.c:350
    1d78:	34fffa33 	cbz	w19, 1cbc <__utee_entry+0x100>
/home/build/bsp/optee_os/lib/libutee/user_ta_entry.c:351
    1d7c:	2a1503e0 	mov	w0, w21
    1d80:	97ffff6a 	bl	1b28 <ta_header_remove_session>
    1d84:	17ffffce 	b	1cbc <__utee_entry+0x100>
entry_close_session():
/home/build/bsp/optee_os/lib/libutee/user_ta_entry.c:357
    1d88:	2a1503e0 	mov	w0, w21
    1d8c:	97fffeae 	bl	1844 <ta_header_get_session>
/home/build/bsp/optee_os/lib/libutee/user_ta_entry.c:359
    1d90:	b40004a0 	cbz	x0, 1e24 <__utee_entry+0x268>
/home/build/bsp/optee_os/lib/libutee/user_ta_entry.c:362
    1d94:	f9400400 	ldr	x0, [x0, #8]
/home/build/bsp/optee_os/lib/libutee/user_ta_entry.c:365
    1d98:	52800013 	mov	w19, #0x0                   	// #0
/home/build/bsp/optee_os/lib/libutee/user_ta_entry.c:362
    1d9c:	97fff906 	bl	1b4 <TA_CloseSessionEntryPoint>
/home/build/bsp/optee_os/lib/libutee/user_ta_entry.c:364
    1da0:	2a1503e0 	mov	w0, w21
    1da4:	97ffff61 	bl	1b28 <ta_header_remove_session>
/home/build/bsp/optee_os/lib/libutee/user_ta_entry.c:365
    1da8:	17ffffc5 	b	1cbc <__utee_entry+0x100>
entry_invoke_command():
/home/build/bsp/optee_os/lib/libutee/user_ta_entry.c:374
    1dac:	2a1503e0 	mov	w0, w21
    1db0:	97fffea5 	bl	1844 <ta_header_get_session>
    1db4:	aa0003f3 	mov	x19, x0
/home/build/bsp/optee_os/lib/libutee/user_ta_entry.c:376
    1db8:	b4000360 	cbz	x0, 1e24 <__utee_entry+0x268>
/home/build/bsp/optee_os/lib/libutee/user_ta_entry.c:379
    1dbc:	910123f5 	add	x21, sp, #0x48
    1dc0:	aa0303f7 	mov	x23, x3
    1dc4:	aa1603e2 	mov	x2, x22
    1dc8:	910113e1 	add	x1, sp, #0x44
    1dcc:	aa1503e0 	mov	x0, x21
    1dd0:	97fffec3 	bl	18dc <from_utee_params>
ta_header_save_params():
/home/build/bsp/optee_os/lib/libutee/user_ta_entry.c:199
    1dd4:	f940d280 	ldr	x0, [x20, #416]
/home/build/bsp/optee_os/lib/libutee/user_ta_entry.c:202
    1dd8:	aa1503e1 	mov	x1, x21
entry_invoke_command():
/home/build/bsp/optee_os/lib/libutee/user_ta_entry.c:380
    1ddc:	b94047f8 	ldr	w24, [sp, #68]
ta_header_save_params():
/home/build/bsp/optee_os/lib/libutee/user_ta_entry.c:202
    1de0:	d2800802 	mov	x2, #0x40                  	// #64
/home/build/bsp/optee_os/lib/libutee/user_ta_entry.c:199
    1de4:	b9000018 	str	w24, [x0]
/home/build/bsp/optee_os/lib/libutee/user_ta_entry.c:202
    1de8:	f940e280 	ldr	x0, [x20, #448]
    1dec:	97fff885 	bl	0 <memcpy>
entry_invoke_command():
/home/build/bsp/optee_os/lib/libutee/user_ta_entry.c:382
    1df0:	f9400660 	ldr	x0, [x19, #8]
    1df4:	aa1503e3 	mov	x3, x21
    1df8:	2a1803e2 	mov	w2, w24
    1dfc:	2a1703e1 	mov	w1, w23
    1e00:	97fff95d 	bl	374 <TA_InvokeCommandEntryPoint>
    1e04:	2a0003f3 	mov	w19, w0
/home/build/bsp/optee_os/lib/libutee/user_ta_entry.c:385
    1e08:	aa1503e2 	mov	x2, x21
    1e0c:	2a1803e1 	mov	w1, w24
    1e10:	aa1603e0 	mov	x0, x22
    1e14:	97fffe96 	bl	186c <to_utee_params>
/home/build/bsp/optee_os/lib/libutee/user_ta_entry.c:386
    1e18:	17ffffa9 	b	1cbc <__utee_entry+0x100>
__utee_entry():
/home/build/bsp/optee_os/lib/libutee/user_ta_entry.c:424
    1e1c:	129ffeb3 	mov	w19, #0xffff000a            	// #-65526
    1e20:	17ffffa7 	b	1cbc <__utee_entry+0x100>
entry_close_session():
/home/build/bsp/optee_os/lib/libutee/user_ta_entry.c:360
    1e24:	129fff13 	mov	w19, #0xffff0007            	// #-65529
    1e28:	17ffffa5 	b	1cbc <__utee_entry+0x100>
__utee_entry():
/home/build/bsp/optee_os/lib/libutee/user_ta_entry.c:446
    1e2c:	2a1303e0 	mov	w0, w19
    1e30:	a94153f3 	ldp	x19, x20, [sp, #16]
    1e34:	a9425bf5 	ldp	x21, x22, [sp, #32]
    1e38:	a94363f7 	ldp	x23, x24, [sp, #48]
    1e3c:	a8c97bfd 	ldp	x29, x30, [sp], #144
    1e40:	d65f03c0 	ret

0000000000001e44 <to_gp11_param>:
to_gp11_param():
/home/build/bsp/optee_os/lib/libutee/user_ta_entry_compat.c:11
    1e44:	52800003 	mov	w3, #0x0                   	// #0
/home/build/bsp/optee_os/lib/libutee/user_ta_entry_compat.c:15
    1e48:	1ac32405 	lsr	w5, w0, w3
    1e4c:	12000ca4 	and	w4, w5, #0xf
    1e50:	721e04bf 	tst	w5, #0xc
    1e54:	540000e1 	b.ne	1e70 <to_gp11_param+0x2c>  // b.any
    1e58:	34000124 	cbz	w4, 1e7c <to_gp11_param+0x38>
/home/build/bsp/optee_os/lib/libutee/user_ta_entry_compat.c:19
    1e5c:	b9400024 	ldr	w4, [x1]
    1e60:	b9000044 	str	w4, [x2]
/home/build/bsp/optee_os/lib/libutee/user_ta_entry_compat.c:20
    1e64:	b9400424 	ldr	w4, [x1, #4]
    1e68:	b9000444 	str	w4, [x2, #4]
/home/build/bsp/optee_os/lib/libutee/user_ta_entry_compat.c:21
    1e6c:	14000004 	b	1e7c <to_gp11_param+0x38>
/home/build/bsp/optee_os/lib/libutee/user_ta_entry_compat.c:15
    1e70:	51001484 	sub	w4, w4, #0x5
    1e74:	7100089f 	cmp	w4, #0x2
    1e78:	540000e9 	b.ls	1e94 <to_gp11_param+0x50>  // b.plast
/home/build/bsp/optee_os/lib/libutee/user_ta_entry_compat.c:14 (discriminator 2)
    1e7c:	11001063 	add	w3, w3, #0x4
    1e80:	91004021 	add	x1, x1, #0x10
    1e84:	91004042 	add	x2, x2, #0x10
    1e88:	7100407f 	cmp	w3, #0x10
    1e8c:	54fffde1 	b.ne	1e48 <to_gp11_param+0x4>  // b.any
/home/build/bsp/optee_os/lib/libutee/user_ta_entry_compat.c:32
    1e90:	d65f03c0 	ret
/home/build/bsp/optee_os/lib/libutee/user_ta_entry_compat.c:25
    1e94:	f9400024 	ldr	x4, [x1]
    1e98:	f9000044 	str	x4, [x2]
/home/build/bsp/optee_os/lib/libutee/user_ta_entry_compat.c:26
    1e9c:	f9400424 	ldr	x4, [x1, #8]
    1ea0:	b9000844 	str	w4, [x2, #8]
/home/build/bsp/optee_os/lib/libutee/user_ta_entry_compat.c:27
    1ea4:	17fffff6 	b	1e7c <to_gp11_param+0x38>

0000000000001ea8 <from_gp11_param>:
from_gp11_param():
/home/build/bsp/optee_os/lib/libutee/user_ta_entry_compat.c:37
    1ea8:	52800003 	mov	w3, #0x0                   	// #0
/home/build/bsp/optee_os/lib/libutee/user_ta_entry_compat.c:41
    1eac:	1ac32405 	lsr	w5, w0, w3
    1eb0:	12000ca4 	and	w4, w5, #0xf
    1eb4:	721e04bf 	tst	w5, #0xc
    1eb8:	540000e1 	b.ne	1ed4 <from_gp11_param+0x2c>  // b.any
    1ebc:	34000124 	cbz	w4, 1ee0 <from_gp11_param+0x38>
/home/build/bsp/optee_os/lib/libutee/user_ta_entry_compat.c:45
    1ec0:	b9400024 	ldr	w4, [x1]
    1ec4:	b9000044 	str	w4, [x2]
/home/build/bsp/optee_os/lib/libutee/user_ta_entry_compat.c:46
    1ec8:	b9400424 	ldr	w4, [x1, #4]
    1ecc:	b9000444 	str	w4, [x2, #4]
/home/build/bsp/optee_os/lib/libutee/user_ta_entry_compat.c:47
    1ed0:	14000004 	b	1ee0 <from_gp11_param+0x38>
/home/build/bsp/optee_os/lib/libutee/user_ta_entry_compat.c:41
    1ed4:	51001484 	sub	w4, w4, #0x5
    1ed8:	7100089f 	cmp	w4, #0x2
    1edc:	540000e9 	b.ls	1ef8 <from_gp11_param+0x50>  // b.plast
/home/build/bsp/optee_os/lib/libutee/user_ta_entry_compat.c:40 (discriminator 2)
    1ee0:	11001063 	add	w3, w3, #0x4
    1ee4:	91004021 	add	x1, x1, #0x10
    1ee8:	91004042 	add	x2, x2, #0x10
    1eec:	7100407f 	cmp	w3, #0x10
    1ef0:	54fffde1 	b.ne	1eac <from_gp11_param+0x4>  // b.any
/home/build/bsp/optee_os/lib/libutee/user_ta_entry_compat.c:58
    1ef4:	d65f03c0 	ret
/home/build/bsp/optee_os/lib/libutee/user_ta_entry_compat.c:51
    1ef8:	f9400024 	ldr	x4, [x1]
    1efc:	f9000044 	str	x4, [x2]
/home/build/bsp/optee_os/lib/libutee/user_ta_entry_compat.c:52
    1f00:	b9400824 	ldr	w4, [x1, #8]
    1f04:	f9000444 	str	x4, [x2, #8]
/home/build/bsp/optee_os/lib/libutee/user_ta_entry_compat.c:53
    1f08:	17fffff6 	b	1ee0 <from_gp11_param+0x38>

0000000000001f0c <__ta_open_sess>:
__ta_open_sess():
/home/build/bsp/optee_os/lib/libutee/user_ta_entry_compat.c:70
    1f0c:	a9b87bfd 	stp	x29, x30, [sp, #-128]!
    1f10:	aa0203e7 	mov	x7, x2
    1f14:	aa0303e6 	mov	x6, x3
/home/build/bsp/optee_os/lib/libutee/user_ta_entry_compat.c:71
    1f18:	4f000400 	movi	v0.4s, #0x0
/home/build/bsp/optee_os/lib/libutee/user_ta_entry_compat.c:70
    1f1c:	910003fd 	mov	x29, sp
    1f20:	a90153f3 	stp	x19, x20, [sp, #16]
    1f24:	b0000094 	adrp	x20, 12000 <_DYNAMIC>
/home/build/bsp/optee_os/lib/libutee/user_ta_entry_compat.c:71
    1f28:	9100e3f3 	add	x19, sp, #0x38
/home/build/bsp/optee_os/lib/libutee/user_ta_entry_compat.c:70
    1f2c:	f9409a82 	ldr	x2, [x20, #304]
    1f30:	a9025bf5 	stp	x21, x22, [sp, #32]
    1f34:	aa0103f6 	mov	x22, x1
    1f38:	f9400043 	ldr	x3, [x2]
    1f3c:	f9003fe3 	str	x3, [sp, #120]
    1f40:	d2800003 	mov	x3, #0x0                   	// #0
/home/build/bsp/optee_os/lib/libutee/user_ta_entry_compat.c:74
    1f44:	aa1303e2 	mov	x2, x19
/home/build/bsp/optee_os/lib/libutee/user_ta_entry_compat.c:71
    1f48:	ad000260 	stp	q0, q0, [x19]
/home/build/bsp/optee_os/lib/libutee/user_ta_entry_compat.c:70
    1f4c:	2a0003f5 	mov	w21, w0
/home/build/bsp/optee_os/lib/libutee/user_ta_entry_compat.c:71
    1f50:	ad010260 	stp	q0, q0, [x19, #32]
/home/build/bsp/optee_os/lib/libutee/user_ta_entry_compat.c:74
    1f54:	97ffffbc 	bl	1e44 <to_gp11_param>
/home/build/bsp/optee_os/lib/libutee/user_ta_entry_compat.c:75
    1f58:	aa0703e2 	mov	x2, x7
    1f5c:	aa1303e1 	mov	x1, x19
    1f60:	d63f00c0 	blr	x6
/home/build/bsp/optee_os/lib/libutee/user_ta_entry_compat.c:76
    1f64:	aa1303e1 	mov	x1, x19
/home/build/bsp/optee_os/lib/libutee/user_ta_entry_compat.c:75
    1f68:	2a0003e6 	mov	w6, w0
/home/build/bsp/optee_os/lib/libutee/user_ta_entry_compat.c:76
    1f6c:	aa1603e2 	mov	x2, x22
    1f70:	2a1503e0 	mov	w0, w21
    1f74:	97ffffcd 	bl	1ea8 <from_gp11_param>
/home/build/bsp/optee_os/lib/libutee/user_ta_entry_compat.c:79
    1f78:	f9409a94 	ldr	x20, [x20, #304]
    1f7c:	f9403fe0 	ldr	x0, [sp, #120]
    1f80:	f9400281 	ldr	x1, [x20]
    1f84:	eb010000 	subs	x0, x0, x1
    1f88:	d2800001 	mov	x1, #0x0                   	// #0
    1f8c:	54000040 	b.eq	1f94 <__ta_open_sess+0x88>  // b.none
    1f90:	97fff9c8 	bl	6b0 <__stack_chk_fail>
    1f94:	2a0603e0 	mov	w0, w6
    1f98:	a94153f3 	ldp	x19, x20, [sp, #16]
    1f9c:	a9425bf5 	ldp	x21, x22, [sp, #32]
    1fa0:	a8c87bfd 	ldp	x29, x30, [sp], #128
    1fa4:	d65f03c0 	ret

0000000000001fa8 <__ta_invoke_cmd>:
__ta_invoke_cmd():
/home/build/bsp/optee_os/lib/libutee/user_ta_entry_compat.c:90
    1fa8:	a9b87bfd 	stp	x29, x30, [sp, #-128]!
    1fac:	aa0003e7 	mov	x7, x0
    1fb0:	2a0103e8 	mov	w8, w1
    1fb4:	910003fd 	mov	x29, sp
    1fb8:	a9025bf5 	stp	x21, x22, [sp, #32]
    1fbc:	b0000095 	adrp	x21, 12000 <_DYNAMIC>
    1fc0:	aa0403e6 	mov	x6, x4
    1fc4:	f9409aa0 	ldr	x0, [x21, #304]
    1fc8:	a90153f3 	stp	x19, x20, [sp, #16]
/home/build/bsp/optee_os/lib/libutee/user_ta_entry_compat.c:91
    1fcc:	9100e3f3 	add	x19, sp, #0x38
    1fd0:	4f000400 	movi	v0.4s, #0x0
/home/build/bsp/optee_os/lib/libutee/user_ta_entry_compat.c:90
    1fd4:	f9400001 	ldr	x1, [x0]
    1fd8:	f9003fe1 	str	x1, [sp, #120]
    1fdc:	d2800001 	mov	x1, #0x0                   	// #0
    1fe0:	2a0203f4 	mov	w20, w2
    1fe4:	aa0303f6 	mov	x22, x3
/home/build/bsp/optee_os/lib/libutee/user_ta_entry_compat.c:94
    1fe8:	aa0303e1 	mov	x1, x3
    1fec:	aa1303e2 	mov	x2, x19
    1ff0:	2a1403e0 	mov	w0, w20
/home/build/bsp/optee_os/lib/libutee/user_ta_entry_compat.c:91
    1ff4:	ad000260 	stp	q0, q0, [x19]
    1ff8:	ad010260 	stp	q0, q0, [x19, #32]
/home/build/bsp/optee_os/lib/libutee/user_ta_entry_compat.c:94
    1ffc:	97ffff92 	bl	1e44 <to_gp11_param>
/home/build/bsp/optee_os/lib/libutee/user_ta_entry_compat.c:95
    2000:	aa1303e3 	mov	x3, x19
    2004:	2a1403e2 	mov	w2, w20
    2008:	2a0803e1 	mov	w1, w8
    200c:	aa0703e0 	mov	x0, x7
    2010:	d63f00c0 	blr	x6
/home/build/bsp/optee_os/lib/libutee/user_ta_entry_compat.c:96
    2014:	aa1303e1 	mov	x1, x19
/home/build/bsp/optee_os/lib/libutee/user_ta_entry_compat.c:95
    2018:	2a0003e6 	mov	w6, w0
/home/build/bsp/optee_os/lib/libutee/user_ta_entry_compat.c:96
    201c:	aa1603e2 	mov	x2, x22
    2020:	2a1403e0 	mov	w0, w20
    2024:	97ffffa1 	bl	1ea8 <from_gp11_param>
/home/build/bsp/optee_os/lib/libutee/user_ta_entry_compat.c:99
    2028:	f9409ab5 	ldr	x21, [x21, #304]
    202c:	f9403fe0 	ldr	x0, [sp, #120]
    2030:	f94002a1 	ldr	x1, [x21]
    2034:	eb010000 	subs	x0, x0, x1
    2038:	d2800001 	mov	x1, #0x0                   	// #0
    203c:	54000040 	b.eq	2044 <__ta_invoke_cmd+0x9c>  // b.none
    2040:	97fff99c 	bl	6b0 <__stack_chk_fail>
    2044:	2a0603e0 	mov	w0, w6
    2048:	a94153f3 	ldp	x19, x20, [sp, #16]
    204c:	a9425bf5 	ldp	x21, x22, [sp, #32]
    2050:	a8c87bfd 	ldp	x29, x30, [sp], #128
    2054:	d65f03c0 	ret

0000000000002058 <_utee_panic>:
_utee_panic():
/home/build/bsp/optee_os/lib/libutee/arch/arm/utee_syscalls_a64.S:41
    2058:	a9bf7bfd 	stp	x29, x30, [sp, #-16]!
/home/build/bsp/optee_os/lib/libutee/arch/arm/utee_syscalls_a64.S:42
    205c:	910003e1 	mov	x1, sp
/home/build/bsp/optee_os/lib/libutee/arch/arm/utee_syscalls_a64.S:43
    2060:	94000007 	bl	207c <__utee_panic>

0000000000002064 <_utee_return>:
_utee_return():
/home/build/bsp/optee_os/lib/libutee/include/utee_syscalls_asm.S:8
    2064:	d2800008 	mov	x8, #0x0                   	// #0
    2068:	d4000001 	svc	#0x0
    206c:	d65f03c0 	ret

0000000000002070 <_utee_log>:
_utee_log():
/home/build/bsp/optee_os/lib/libutee/include/utee_syscalls_asm.S:10
    2070:	d2800028 	mov	x8, #0x1                   	// #1
    2074:	d4000001 	svc	#0x0
    2078:	d65f03c0 	ret

000000000000207c <__utee_panic>:
__utee_panic():
/home/build/bsp/optee_os/lib/libutee/include/utee_syscalls_asm.S:12
    207c:	d2800048 	mov	x8, #0x2                   	// #2
    2080:	d4000001 	svc	#0x0
    2084:	d65f03c0 	ret

0000000000002088 <_utee_get_property>:
_utee_get_property():
/home/build/bsp/optee_os/lib/libutee/include/utee_syscalls_asm.S:14
    2088:	d2800068 	mov	x8, #0x3                   	// #3
    208c:	d4000001 	svc	#0x0
    2090:	d65f03c0 	ret

0000000000002094 <_utee_get_property_name_to_index>:
_utee_get_property_name_to_index():
/home/build/bsp/optee_os/lib/libutee/include/utee_syscalls_asm.S:16
    2094:	d2800088 	mov	x8, #0x4                   	// #4
    2098:	d4000001 	svc	#0x0
    209c:	d65f03c0 	ret

00000000000020a0 <_utee_open_ta_session>:
_utee_open_ta_session():
/home/build/bsp/optee_os/lib/libutee/include/utee_syscalls_asm.S:19
    20a0:	d28000a8 	mov	x8, #0x5                   	// #5
    20a4:	d4000001 	svc	#0x0
    20a8:	d65f03c0 	ret

00000000000020ac <_utee_close_ta_session>:
_utee_close_ta_session():
/home/build/bsp/optee_os/lib/libutee/include/utee_syscalls_asm.S:21
    20ac:	d28000c8 	mov	x8, #0x6                   	// #6
    20b0:	d4000001 	svc	#0x0
    20b4:	d65f03c0 	ret

00000000000020b8 <_utee_invoke_ta_command>:
_utee_invoke_ta_command():
/home/build/bsp/optee_os/lib/libutee/include/utee_syscalls_asm.S:23
    20b8:	d28000e8 	mov	x8, #0x7                   	// #7
    20bc:	d4000001 	svc	#0x0
    20c0:	d65f03c0 	ret

00000000000020c4 <_utee_get_cancellation_flag>:
_utee_get_cancellation_flag():
/home/build/bsp/optee_os/lib/libutee/include/utee_syscalls_asm.S:25
    20c4:	d2800128 	mov	x8, #0x9                   	// #9
    20c8:	d4000001 	svc	#0x0
    20cc:	d65f03c0 	ret

00000000000020d0 <_utee_check_access_rights>:
_utee_check_access_rights():
/home/build/bsp/optee_os/lib/libutee/include/utee_syscalls_asm.S:28
    20d0:	d2800108 	mov	x8, #0x8                   	// #8
    20d4:	d4000001 	svc	#0x0
    20d8:	d65f03c0 	ret

00000000000020dc <_utee_unmask_cancellation>:
_utee_unmask_cancellation():
/home/build/bsp/optee_os/lib/libutee/include/utee_syscalls_asm.S:30
    20dc:	d2800148 	mov	x8, #0xa                   	// #10
    20e0:	d4000001 	svc	#0x0
    20e4:	d65f03c0 	ret

00000000000020e8 <_utee_mask_cancellation>:
_utee_mask_cancellation():
/home/build/bsp/optee_os/lib/libutee/include/utee_syscalls_asm.S:32
    20e8:	d2800168 	mov	x8, #0xb                   	// #11
    20ec:	d4000001 	svc	#0x0
    20f0:	d65f03c0 	ret

00000000000020f4 <_utee_wait>:
_utee_wait():
/home/build/bsp/optee_os/lib/libutee/include/utee_syscalls_asm.S:34
    20f4:	d2800188 	mov	x8, #0xc                   	// #12
    20f8:	d4000001 	svc	#0x0
    20fc:	d65f03c0 	ret

0000000000002100 <_utee_get_time>:
_utee_get_time():
/home/build/bsp/optee_os/lib/libutee/include/utee_syscalls_asm.S:36
    2100:	d28001a8 	mov	x8, #0xd                   	// #13
    2104:	d4000001 	svc	#0x0
    2108:	d65f03c0 	ret

000000000000210c <_utee_set_ta_time>:
_utee_set_ta_time():
/home/build/bsp/optee_os/lib/libutee/include/utee_syscalls_asm.S:38
    210c:	d28001c8 	mov	x8, #0xe                   	// #14
    2110:	d4000001 	svc	#0x0
    2114:	d65f03c0 	ret

0000000000002118 <_utee_cryp_state_alloc>:
_utee_cryp_state_alloc():
/home/build/bsp/optee_os/lib/libutee/include/utee_syscalls_asm.S:40
    2118:	d28001e8 	mov	x8, #0xf                   	// #15
    211c:	d4000001 	svc	#0x0
    2120:	d65f03c0 	ret

0000000000002124 <_utee_cryp_state_copy>:
_utee_cryp_state_copy():
/home/build/bsp/optee_os/lib/libutee/include/utee_syscalls_asm.S:42
    2124:	d2800208 	mov	x8, #0x10                  	// #16
    2128:	d4000001 	svc	#0x0
    212c:	d65f03c0 	ret

0000000000002130 <_utee_cryp_state_free>:
_utee_cryp_state_free():
/home/build/bsp/optee_os/lib/libutee/include/utee_syscalls_asm.S:44
    2130:	d2800228 	mov	x8, #0x11                  	// #17
    2134:	d4000001 	svc	#0x0
    2138:	d65f03c0 	ret

000000000000213c <_utee_hash_init>:
_utee_hash_init():
/home/build/bsp/optee_os/lib/libutee/include/utee_syscalls_asm.S:46
    213c:	d2800248 	mov	x8, #0x12                  	// #18
    2140:	d4000001 	svc	#0x0
    2144:	d65f03c0 	ret

0000000000002148 <_utee_hash_update>:
_utee_hash_update():
/home/build/bsp/optee_os/lib/libutee/include/utee_syscalls_asm.S:48
    2148:	d2800268 	mov	x8, #0x13                  	// #19
    214c:	d4000001 	svc	#0x0
    2150:	d65f03c0 	ret

0000000000002154 <_utee_hash_final>:
_utee_hash_final():
/home/build/bsp/optee_os/lib/libutee/include/utee_syscalls_asm.S:50
    2154:	d2800288 	mov	x8, #0x14                  	// #20
    2158:	d4000001 	svc	#0x0
    215c:	d65f03c0 	ret

0000000000002160 <_utee_cipher_init>:
_utee_cipher_init():
/home/build/bsp/optee_os/lib/libutee/include/utee_syscalls_asm.S:52
    2160:	d28002a8 	mov	x8, #0x15                  	// #21
    2164:	d4000001 	svc	#0x0
    2168:	d65f03c0 	ret

000000000000216c <_utee_cipher_update>:
_utee_cipher_update():
/home/build/bsp/optee_os/lib/libutee/include/utee_syscalls_asm.S:54
    216c:	d28002c8 	mov	x8, #0x16                  	// #22
    2170:	d4000001 	svc	#0x0
    2174:	d65f03c0 	ret

0000000000002178 <_utee_cipher_final>:
_utee_cipher_final():
/home/build/bsp/optee_os/lib/libutee/include/utee_syscalls_asm.S:56
    2178:	d28002e8 	mov	x8, #0x17                  	// #23
    217c:	d4000001 	svc	#0x0
    2180:	d65f03c0 	ret

0000000000002184 <_utee_cryp_obj_get_info>:
_utee_cryp_obj_get_info():
/home/build/bsp/optee_os/lib/libutee/include/utee_syscalls_asm.S:58
    2184:	d2800308 	mov	x8, #0x18                  	// #24
    2188:	d4000001 	svc	#0x0
    218c:	d65f03c0 	ret

0000000000002190 <_utee_cryp_obj_restrict_usage>:
_utee_cryp_obj_restrict_usage():
/home/build/bsp/optee_os/lib/libutee/include/utee_syscalls_asm.S:60
    2190:	d2800328 	mov	x8, #0x19                  	// #25
    2194:	d4000001 	svc	#0x0
    2198:	d65f03c0 	ret

000000000000219c <_utee_cryp_obj_get_attr>:
_utee_cryp_obj_get_attr():
/home/build/bsp/optee_os/lib/libutee/include/utee_syscalls_asm.S:63
    219c:	d2800348 	mov	x8, #0x1a                  	// #26
    21a0:	d4000001 	svc	#0x0
    21a4:	d65f03c0 	ret

00000000000021a8 <_utee_cryp_obj_alloc>:
_utee_cryp_obj_alloc():
/home/build/bsp/optee_os/lib/libutee/include/utee_syscalls_asm.S:65
    21a8:	d2800368 	mov	x8, #0x1b                  	// #27
    21ac:	d4000001 	svc	#0x0
    21b0:	d65f03c0 	ret

00000000000021b4 <_utee_cryp_obj_close>:
_utee_cryp_obj_close():
/home/build/bsp/optee_os/lib/libutee/include/utee_syscalls_asm.S:67
    21b4:	d2800388 	mov	x8, #0x1c                  	// #28
    21b8:	d4000001 	svc	#0x0
    21bc:	d65f03c0 	ret

00000000000021c0 <_utee_cryp_obj_reset>:
_utee_cryp_obj_reset():
/home/build/bsp/optee_os/lib/libutee/include/utee_syscalls_asm.S:69
    21c0:	d28003a8 	mov	x8, #0x1d                  	// #29
    21c4:	d4000001 	svc	#0x0
    21c8:	d65f03c0 	ret

00000000000021cc <_utee_cryp_obj_populate>:
_utee_cryp_obj_populate():
/home/build/bsp/optee_os/lib/libutee/include/utee_syscalls_asm.S:71
    21cc:	d28003c8 	mov	x8, #0x1e                  	// #30
    21d0:	d4000001 	svc	#0x0
    21d4:	d65f03c0 	ret

00000000000021d8 <_utee_cryp_obj_copy>:
_utee_cryp_obj_copy():
/home/build/bsp/optee_os/lib/libutee/include/utee_syscalls_asm.S:73
    21d8:	d28003e8 	mov	x8, #0x1f                  	// #31
    21dc:	d4000001 	svc	#0x0
    21e0:	d65f03c0 	ret

00000000000021e4 <_utee_cryp_derive_key>:
_utee_cryp_derive_key():
/home/build/bsp/optee_os/lib/libutee/include/utee_syscalls_asm.S:75
    21e4:	d2800408 	mov	x8, #0x20                  	// #32
    21e8:	d4000001 	svc	#0x0
    21ec:	d65f03c0 	ret

00000000000021f0 <_utee_cryp_random_number_generate>:
_utee_cryp_random_number_generate():
/home/build/bsp/optee_os/lib/libutee/include/utee_syscalls_asm.S:77
    21f0:	d2800428 	mov	x8, #0x21                  	// #33
    21f4:	d4000001 	svc	#0x0
    21f8:	d65f03c0 	ret

00000000000021fc <_utee_authenc_init>:
_utee_authenc_init():
/home/build/bsp/optee_os/lib/libutee/include/utee_syscalls_asm.S:80
    21fc:	d2800448 	mov	x8, #0x22                  	// #34
    2200:	d4000001 	svc	#0x0
    2204:	d65f03c0 	ret

0000000000002208 <_utee_authenc_update_aad>:
_utee_authenc_update_aad():
/home/build/bsp/optee_os/lib/libutee/include/utee_syscalls_asm.S:82
    2208:	d2800468 	mov	x8, #0x23                  	// #35
    220c:	d4000001 	svc	#0x0
    2210:	d65f03c0 	ret

0000000000002214 <_utee_authenc_update_payload>:
_utee_authenc_update_payload():
/home/build/bsp/optee_os/lib/libutee/include/utee_syscalls_asm.S:84
    2214:	d2800488 	mov	x8, #0x24                  	// #36
    2218:	d4000001 	svc	#0x0
    221c:	d65f03c0 	ret

0000000000002220 <_utee_authenc_enc_final>:
_utee_authenc_enc_final():
/home/build/bsp/optee_os/lib/libutee/include/utee_syscalls_asm.S:87
    2220:	d28004a8 	mov	x8, #0x25                  	// #37
    2224:	d4000001 	svc	#0x0
    2228:	d65f03c0 	ret

000000000000222c <_utee_authenc_dec_final>:
_utee_authenc_dec_final():
/home/build/bsp/optee_os/lib/libutee/include/utee_syscalls_asm.S:89
    222c:	d28004c8 	mov	x8, #0x26                  	// #38
    2230:	d4000001 	svc	#0x0
    2234:	d65f03c0 	ret

0000000000002238 <_utee_asymm_operate>:
_utee_asymm_operate():
/home/build/bsp/optee_os/lib/libutee/include/utee_syscalls_asm.S:91
    2238:	d28004e8 	mov	x8, #0x27                  	// #39
    223c:	d4000001 	svc	#0x0
    2240:	d65f03c0 	ret

0000000000002244 <_utee_asymm_verify>:
_utee_asymm_verify():
/home/build/bsp/optee_os/lib/libutee/include/utee_syscalls_asm.S:93
    2244:	d2800508 	mov	x8, #0x28                  	// #40
    2248:	d4000001 	svc	#0x0
    224c:	d65f03c0 	ret

0000000000002250 <_utee_storage_obj_open>:
_utee_storage_obj_open():
/home/build/bsp/optee_os/lib/libutee/include/utee_syscalls_asm.S:95
    2250:	d2800528 	mov	x8, #0x29                  	// #41
    2254:	d4000001 	svc	#0x0
    2258:	d65f03c0 	ret

000000000000225c <_utee_storage_obj_create>:
_utee_storage_obj_create():
/home/build/bsp/optee_os/lib/libutee/include/utee_syscalls_asm.S:97
    225c:	d2800548 	mov	x8, #0x2a                  	// #42
    2260:	d4000001 	svc	#0x0
    2264:	d65f03c0 	ret

0000000000002268 <_utee_storage_obj_del>:
_utee_storage_obj_del():
/home/build/bsp/optee_os/lib/libutee/include/utee_syscalls_asm.S:99
    2268:	d2800568 	mov	x8, #0x2b                  	// #43
    226c:	d4000001 	svc	#0x0
    2270:	d65f03c0 	ret

0000000000002274 <_utee_storage_obj_rename>:
_utee_storage_obj_rename():
/home/build/bsp/optee_os/lib/libutee/include/utee_syscalls_asm.S:101
    2274:	d2800588 	mov	x8, #0x2c                  	// #44
    2278:	d4000001 	svc	#0x0
    227c:	d65f03c0 	ret

0000000000002280 <_utee_storage_alloc_enum>:
_utee_storage_alloc_enum():
/home/build/bsp/optee_os/lib/libutee/include/utee_syscalls_asm.S:103
    2280:	d28005a8 	mov	x8, #0x2d                  	// #45
    2284:	d4000001 	svc	#0x0
    2288:	d65f03c0 	ret

000000000000228c <_utee_storage_free_enum>:
_utee_storage_free_enum():
/home/build/bsp/optee_os/lib/libutee/include/utee_syscalls_asm.S:105
    228c:	d28005c8 	mov	x8, #0x2e                  	// #46
    2290:	d4000001 	svc	#0x0
    2294:	d65f03c0 	ret

0000000000002298 <_utee_storage_reset_enum>:
_utee_storage_reset_enum():
/home/build/bsp/optee_os/lib/libutee/include/utee_syscalls_asm.S:107
    2298:	d28005e8 	mov	x8, #0x2f                  	// #47
    229c:	d4000001 	svc	#0x0
    22a0:	d65f03c0 	ret

00000000000022a4 <_utee_storage_start_enum>:
_utee_storage_start_enum():
/home/build/bsp/optee_os/lib/libutee/include/utee_syscalls_asm.S:109
    22a4:	d2800608 	mov	x8, #0x30                  	// #48
    22a8:	d4000001 	svc	#0x0
    22ac:	d65f03c0 	ret

00000000000022b0 <_utee_storage_next_enum>:
_utee_storage_next_enum():
/home/build/bsp/optee_os/lib/libutee/include/utee_syscalls_asm.S:111
    22b0:	d2800628 	mov	x8, #0x31                  	// #49
    22b4:	d4000001 	svc	#0x0
    22b8:	d65f03c0 	ret

00000000000022bc <_utee_storage_obj_read>:
_utee_storage_obj_read():
/home/build/bsp/optee_os/lib/libutee/include/utee_syscalls_asm.S:113
    22bc:	d2800648 	mov	x8, #0x32                  	// #50
    22c0:	d4000001 	svc	#0x0
    22c4:	d65f03c0 	ret

00000000000022c8 <_utee_storage_obj_write>:
_utee_storage_obj_write():
/home/build/bsp/optee_os/lib/libutee/include/utee_syscalls_asm.S:115
    22c8:	d2800668 	mov	x8, #0x33                  	// #51
    22cc:	d4000001 	svc	#0x0
    22d0:	d65f03c0 	ret

00000000000022d4 <_utee_storage_obj_trunc>:
_utee_storage_obj_trunc():
/home/build/bsp/optee_os/lib/libutee/include/utee_syscalls_asm.S:117
    22d4:	d2800688 	mov	x8, #0x34                  	// #52
    22d8:	d4000001 	svc	#0x0
    22dc:	d65f03c0 	ret

00000000000022e0 <_utee_storage_obj_seek>:
_utee_storage_obj_seek():
/home/build/bsp/optee_os/lib/libutee/include/utee_syscalls_asm.S:119
    22e0:	d28006a8 	mov	x8, #0x35                  	// #53
    22e4:	d4000001 	svc	#0x0
    22e8:	d65f03c0 	ret

00000000000022ec <_utee_cryp_obj_generate_key>:
_utee_cryp_obj_generate_key():
/home/build/bsp/optee_os/lib/libutee/include/utee_syscalls_asm.S:121
    22ec:	d28006c8 	mov	x8, #0x36                  	// #54
    22f0:	d4000001 	svc	#0x0
    22f4:	d65f03c0 	ret

00000000000022f8 <_utee_cache_operation>:
_utee_cache_operation():
/home/build/bsp/optee_os/lib/libutee/include/utee_syscalls_asm.S:124
    22f8:	d28008c8 	mov	x8, #0x46                  	// #70
    22fc:	d4000001 	svc	#0x0
    2300:	d65f03c0 	ret

0000000000002304 <abort>:
abort():
/home/build/bsp/optee_os/lib/libutee/abort.c:12
    2304:	a9bf7bfd 	stp	x29, x30, [sp, #-16]!
/home/build/bsp/optee_os/lib/libutee/abort.c:13
    2308:	d0000060 	adrp	x0, 10000 <__func__.0+0x28>
    230c:	911e5000 	add	x0, x0, #0x794
/home/build/bsp/optee_os/lib/libutee/abort.c:12
    2310:	910003fd 	mov	x29, sp
/home/build/bsp/optee_os/lib/libutee/abort.c:13
    2314:	97fffcd0 	bl	1654 <puts>
/home/build/bsp/optee_os/lib/libutee/abort.c:14
    2318:	d2800000 	mov	x0, #0x0                   	// #0
    231c:	97ffff4f 	bl	2058 <_utee_panic>
/home/build/bsp/optee_os/lib/libutee/abort.c:16 (discriminator 1)
    2320:	14000000 	b	2320 <abort+0x1c>

0000000000002324 <copy_param>:
copy_param():
/home/build/bsp/optee_os/lib/libutee/tee_api.c:43
    2324:	2a0103e3 	mov	w3, w1
    2328:	52800004 	mov	w4, #0x0                   	// #0
    232c:	f8008403 	str	x3, [x0], #8
/home/build/bsp/optee_os/lib/libutee/tee_api.c:45
    2330:	1ac42425 	lsr	w5, w1, w4
    2334:	12000ca3 	and	w3, w5, #0xf
    2338:	71000c7f 	cmp	w3, #0x3
    233c:	540001a0 	b.eq	2370 <copy_param+0x4c>  // b.none
    2340:	721e04bf 	tst	w5, #0xc
    2344:	540000c1 	b.ne	235c <copy_param+0x38>  // b.any
    2348:	7100047f 	cmp	w3, #0x1
    234c:	54000120 	b.eq	2370 <copy_param+0x4c>  // b.none
    2350:	d2800003 	mov	x3, #0x0                   	// #0
    2354:	d2800005 	mov	x5, #0x0                   	// #0
    2358:	14000007 	b	2374 <copy_param+0x50>
    235c:	51001463 	sub	w3, w3, #0x5
    2360:	7100087f 	cmp	w3, #0x2
    2364:	54ffff68 	b.hi	2350 <copy_param+0x2c>  // b.pmore
/home/build/bsp/optee_os/lib/libutee/tee_api.c:55
    2368:	a9400c45 	ldp	x5, x3, [x2]
/home/build/bsp/optee_os/lib/libutee/tee_api.c:56
    236c:	14000002 	b	2374 <copy_param+0x50>
/home/build/bsp/optee_os/lib/libutee/tee_api.c:49
    2370:	29400c45 	ldp	w5, w3, [x2]
/home/build/bsp/optee_os/lib/libutee/tee_api.c:44 (discriminator 2)
    2374:	11001084 	add	w4, w4, #0x4
/home/build/bsp/optee_os/lib/libutee/tee_api.c:62 (discriminator 2)
    2378:	a9000c05 	stp	x5, x3, [x0]
/home/build/bsp/optee_os/lib/libutee/tee_api.c:44 (discriminator 2)
    237c:	91004042 	add	x2, x2, #0x10
    2380:	91004000 	add	x0, x0, #0x10
    2384:	7100409f 	cmp	w4, #0x10
    2388:	54fffd41 	b.ne	2330 <copy_param+0xc>  // b.any
/home/build/bsp/optee_os/lib/libutee/tee_api.c:64
    238c:	d65f03c0 	ret

0000000000002390 <copy_gp11_param>:
copy_gp11_param():
/home/build/bsp/optee_os/lib/libutee/tee_api.c:73
    2390:	2a0103e3 	mov	w3, w1
    2394:	52800004 	mov	w4, #0x0                   	// #0
    2398:	f8008403 	str	x3, [x0], #8
/home/build/bsp/optee_os/lib/libutee/tee_api.c:75
    239c:	1ac42425 	lsr	w5, w1, w4
    23a0:	12000ca3 	and	w3, w5, #0xf
    23a4:	71000c7f 	cmp	w3, #0x3
    23a8:	540001c0 	b.eq	23e0 <copy_gp11_param+0x50>  // b.none
    23ac:	721e04bf 	tst	w5, #0xc
    23b0:	540000c1 	b.ne	23c8 <copy_gp11_param+0x38>  // b.any
    23b4:	7100047f 	cmp	w3, #0x1
    23b8:	54000140 	b.eq	23e0 <copy_gp11_param+0x50>  // b.none
    23bc:	d2800003 	mov	x3, #0x0                   	// #0
    23c0:	d2800005 	mov	x5, #0x0                   	// #0
    23c4:	14000008 	b	23e4 <copy_gp11_param+0x54>
    23c8:	51001463 	sub	w3, w3, #0x5
    23cc:	7100087f 	cmp	w3, #0x2
    23d0:	54ffff68 	b.hi	23bc <copy_gp11_param+0x2c>  // b.pmore
/home/build/bsp/optee_os/lib/libutee/tee_api.c:85
    23d4:	b9400843 	ldr	w3, [x2, #8]
/home/build/bsp/optee_os/lib/libutee/tee_api.c:84
    23d8:	f9400045 	ldr	x5, [x2]
/home/build/bsp/optee_os/lib/libutee/tee_api.c:86
    23dc:	14000002 	b	23e4 <copy_gp11_param+0x54>
/home/build/bsp/optee_os/lib/libutee/tee_api.c:79
    23e0:	29400c45 	ldp	w5, w3, [x2]
/home/build/bsp/optee_os/lib/libutee/tee_api.c:74 (discriminator 2)
    23e4:	11001084 	add	w4, w4, #0x4
/home/build/bsp/optee_os/lib/libutee/tee_api.c:92 (discriminator 2)
    23e8:	a9000c05 	stp	x5, x3, [x0]
/home/build/bsp/optee_os/lib/libutee/tee_api.c:74 (discriminator 2)
    23ec:	91004042 	add	x2, x2, #0x10
    23f0:	91004000 	add	x0, x0, #0x10
    23f4:	7100409f 	cmp	w4, #0x10
    23f8:	54fffd21 	b.ne	239c <copy_gp11_param+0xc>  // b.any
/home/build/bsp/optee_os/lib/libutee/tee_api.c:94
    23fc:	d65f03c0 	ret

0000000000002400 <check_mem_access_rights_params>:
check_mem_access_rights_params():
/home/build/bsp/optee_os/lib/libutee/tee_api.c:261
    2400:	90000083 	adrp	x3, 12000 <_DYNAMIC>
bufs_intersect():
/home/build/bsp/optee_os/lib/libutee/tee_api.c:241
    2404:	d1000447 	sub	x7, x2, #0x1
    2408:	8b0100e7 	add	x7, x7, x1
check_mem_access_rights_params():
/home/build/bsp/optee_os/lib/libutee/tee_api.c:261
    240c:	52800005 	mov	w5, #0x0                   	// #0
    2410:	f940d064 	ldr	x4, [x3, #416]
    2414:	f940e063 	ldr	x3, [x3, #448]
    2418:	b9400089 	ldr	w9, [x4]
    241c:	1ac52524 	lsr	w4, w9, w5
    2420:	12000c84 	and	w4, w4, #0xf
    2424:	7100149f 	cmp	w4, #0x5
    2428:	54000300 	b.eq	2488 <check_mem_access_rights_params+0x88>  // b.none
    242c:	51001884 	sub	w4, w4, #0x6
    2430:	7100049f 	cmp	w4, #0x1
    2434:	540001e8 	b.hi	2470 <check_mem_access_rights_params+0x70>  // b.pmore
    2438:	528000c6 	mov	w6, #0x6                   	// #6
/home/build/bsp/optee_os/lib/libutee/tee_api.c:268
    243c:	f9400464 	ldr	x4, [x3, #8]
bufs_intersect():
/home/build/bsp/optee_os/lib/libutee/tee_api.c:244
    2440:	f100005f 	cmp	x2, #0x0
    2444:	fa401884 	ccmp	x4, #0x0, #0x4, ne  // ne = any
    2448:	54000140 	b.eq	2470 <check_mem_access_rights_params+0x70>  // b.none
/home/build/bsp/optee_os/lib/libutee/tee_api.c:240
    244c:	f9400068 	ldr	x8, [x3]
/home/build/bsp/optee_os/lib/libutee/tee_api.c:242
    2450:	d1000484 	sub	x4, x4, #0x1
    2454:	8b080084 	add	x4, x4, x8
/home/build/bsp/optee_os/lib/libutee/tee_api.c:247
    2458:	eb07011f 	cmp	x8, x7
    245c:	fa449022 	ccmp	x1, x4, #0x2, ls  // ls = plast
    2460:	54000088 	b.hi	2470 <check_mem_access_rights_params+0x70>  // b.pmore
check_mem_access_rights_params():
/home/build/bsp/optee_os/lib/libutee/tee_api.c:267
    2464:	320000c6 	orr	w6, w6, #0x1
/home/build/bsp/optee_os/lib/libutee/tee_api.c:271
    2468:	6a26001f 	bics	wzr, w0, w6
    246c:	54000121 	b.ne	2490 <check_mem_access_rights_params+0x90>  // b.any
/home/build/bsp/optee_os/lib/libutee/tee_api.c:258 (discriminator 2)
    2470:	110010a5 	add	w5, w5, #0x4
    2474:	91004063 	add	x3, x3, #0x10
    2478:	710040bf 	cmp	w5, #0x10
    247c:	54fffd01 	b.ne	241c <check_mem_access_rights_params+0x1c>  // b.any
/home/build/bsp/optee_os/lib/libutee/tee_api.c:280
    2480:	52800000 	mov	w0, #0x0                   	// #0
/home/build/bsp/optee_os/lib/libutee/tee_api.c:281
    2484:	d65f03c0 	ret
/home/build/bsp/optee_os/lib/libutee/tee_api.c:259
    2488:	52800086 	mov	w6, #0x4                   	// #4
    248c:	17ffffec 	b	243c <check_mem_access_rights_params+0x3c>
/home/build/bsp/optee_os/lib/libutee/tee_api.c:272
    2490:	129fffc0 	mov	w0, #0xffff0001            	// #-65535
    2494:	17fffffc 	b	2484 <check_mem_access_rights_params+0x84>

0000000000002498 <buf_overlaps_no_share_heap>:
buf_overlaps_no_share_heap():
/home/build/bsp/optee_os/lib/libutee/tee_api.c:284
    2498:	aa0003e3 	mov	x3, x0
/home/build/bsp/optee_os/lib/libutee/tee_api.c:285
    249c:	90000080 	adrp	x0, 12000 <_DYNAMIC>
    24a0:	f940d800 	ldr	x0, [x0, #432]
    24a4:	f9400000 	ldr	x0, [x0]
/home/build/bsp/optee_os/lib/libutee/tee_api.c:287
    24a8:	b4000140 	cbz	x0, 24d0 <buf_overlaps_no_share_heap+0x38>
/home/build/bsp/optee_os/lib/libutee/tee_api.c:284 (discriminator 1)
    24ac:	a9bf7bfd 	stp	x29, x30, [sp, #-16]!
    24b0:	aa0103e2 	mov	x2, x1
/home/build/bsp/optee_os/lib/libutee/tee_api.c:287 (discriminator 1)
    24b4:	aa0303e1 	mov	x1, x3
/home/build/bsp/optee_os/lib/libutee/tee_api.c:284 (discriminator 1)
    24b8:	910003fd 	mov	x29, sp
/home/build/bsp/optee_os/lib/libutee/tee_api.c:287 (discriminator 1)
    24bc:	94002993 	bl	cb08 <raw_malloc_buffer_overlaps_heap>
    24c0:	12001c00 	and	w0, w0, #0xff
/home/build/bsp/optee_os/lib/libutee/tee_api.c:288 (discriminator 1)
    24c4:	12000000 	and	w0, w0, #0x1
    24c8:	a8c17bfd 	ldp	x29, x30, [sp], #16
    24cc:	d65f03c0 	ret
/home/build/bsp/optee_os/lib/libutee/tee_api.c:287
    24d0:	52800000 	mov	w0, #0x0                   	// #0
/home/build/bsp/optee_os/lib/libutee/tee_api.c:288
    24d4:	12000000 	and	w0, w0, #0x1
    24d8:	d65f03c0 	ret

00000000000024dc <check_invoke_param>:
check_invoke_param():
/home/build/bsp/optee_os/lib/libutee/tee_api.c:291
    24dc:	a9bc7bfd 	stp	x29, x30, [sp, #-64]!
    24e0:	910003fd 	mov	x29, sp
    24e4:	a90153f3 	stp	x19, x20, [sp, #16]
    24e8:	aa0103f3 	mov	x19, x1
    24ec:	52800014 	mov	w20, #0x0                   	// #0
    24f0:	a9025bf5 	stp	x21, x22, [sp, #32]
    24f4:	2a0003f5 	mov	w21, w0
    24f8:	f9001bf7 	str	x23, [sp, #48]
/home/build/bsp/optee_os/lib/libutee/tee_api.c:299
    24fc:	1ad426a1 	lsr	w1, w21, w20
    2500:	12000c21 	and	w1, w1, #0xf
    2504:	7100143f 	cmp	w1, #0x5
    2508:	540003a0 	b.eq	257c <check_invoke_param+0xa0>  // b.none
    250c:	51001821 	sub	w1, w1, #0x6
    2510:	7100043f 	cmp	w1, #0x1
    2514:	54000228 	b.hi	2558 <check_invoke_param+0x7c>  // b.pmore
    2518:	528000c0 	mov	w0, #0x6                   	// #6
/home/build/bsp/optee_os/lib/libutee/tee_api.c:297
    251c:	a9405e76 	ldp	x22, x23, [x19]
/home/build/bsp/optee_os/lib/libutee/tee_api.c:306
    2520:	32000000 	orr	w0, w0, #0x1
    2524:	aa1703e2 	mov	x2, x23
    2528:	aa1603e1 	mov	x1, x22
    252c:	97ffffb5 	bl	2400 <check_mem_access_rights_params>
    2530:	34000060 	cbz	w0, 253c <check_invoke_param+0x60>
/home/build/bsp/optee_os/lib/libutee/tee_api.c:307
    2534:	52800000 	mov	w0, #0x0                   	// #0
    2538:	94000c13 	bl	5584 <TEE_Panic>
/home/build/bsp/optee_os/lib/libutee/tee_api.c:308
    253c:	aa1703e1 	mov	x1, x23
    2540:	aa1603e0 	mov	x0, x22
    2544:	97ffffd5 	bl	2498 <buf_overlaps_no_share_heap>
    2548:	72001c1f 	tst	w0, #0xff
    254c:	54000060 	b.eq	2558 <check_invoke_param+0x7c>  // b.none
/home/build/bsp/optee_os/lib/libutee/tee_api.c:309
    2550:	52800000 	mov	w0, #0x0                   	// #0
    2554:	94000c0c 	bl	5584 <TEE_Panic>
/home/build/bsp/optee_os/lib/libutee/tee_api.c:294 (discriminator 2)
    2558:	11001294 	add	w20, w20, #0x4
    255c:	91004273 	add	x19, x19, #0x10
    2560:	7100429f 	cmp	w20, #0x10
    2564:	54fffcc1 	b.ne	24fc <check_invoke_param+0x20>  // b.any
/home/build/bsp/optee_os/lib/libutee/tee_api.c:315
    2568:	a94153f3 	ldp	x19, x20, [sp, #16]
    256c:	a9425bf5 	ldp	x21, x22, [sp, #32]
    2570:	f9401bf7 	ldr	x23, [sp, #48]
    2574:	a8c47bfd 	ldp	x29, x30, [sp], #64
    2578:	d65f03c0 	ret
/home/build/bsp/optee_os/lib/libutee/tee_api.c:295
    257c:	52800080 	mov	w0, #0x4                   	// #4
    2580:	17ffffe7 	b	251c <check_invoke_param+0x40>

0000000000002584 <update_out_param>:
update_out_param():
/home/build/bsp/optee_os/lib/libutee/tee_api.c:180
    2584:	a9bc7bfd 	stp	x29, x30, [sp, #-64]!
    2588:	910003fd 	mov	x29, sp
    258c:	a90153f3 	stp	x19, x20, [sp, #16]
/home/build/bsp/optee_os/lib/libutee/tee_api.c:182
    2590:	aa0203f4 	mov	x20, x2
    2594:	aa0003f3 	mov	x19, x0
/home/build/bsp/optee_os/lib/libutee/tee_api.c:180
    2598:	a90363f7 	stp	x23, x24, [sp, #48]
    259c:	aa0103f8 	mov	x24, x1
/home/build/bsp/optee_os/lib/libutee/tee_api.c:182
    25a0:	f8408697 	ldr	x23, [x20], #8
/home/build/bsp/optee_os/lib/libutee/tee_api.c:180
    25a4:	a9025bf5 	stp	x21, x22, [sp, #32]
/home/build/bsp/optee_os/lib/libutee/tee_api.c:184
    25a8:	d2800015 	mov	x21, #0x0                   	// #0
/home/build/bsp/optee_os/lib/libutee/tee_api.c:188
    25ac:	531e76a0 	lsl	w0, w21, #2
/home/build/bsp/optee_os/lib/libutee/tee_api.c:186
    25b0:	a9405a82 	ldp	x2, x22, [x20]
/home/build/bsp/optee_os/lib/libutee/tee_api.c:188
    25b4:	1ac026e0 	lsr	w0, w23, w0
    25b8:	12000c01 	and	w1, w0, #0xf
    25bc:	721e041f 	tst	w0, #0xc
    25c0:	540000a1 	b.ne	25d4 <update_out_param+0x50>  // b.any
    25c4:	721f081f 	tst	w0, #0xe
    25c8:	540000c0 	b.eq	25e0 <update_out_param+0x5c>  // b.none
/home/build/bsp/optee_os/lib/libutee/tee_api.c:192
    25cc:	29005a62 	stp	w2, w22, [x19]
/home/build/bsp/optee_os/lib/libutee/tee_api.c:193
    25d0:	14000004 	b	25e0 <update_out_param+0x5c>
/home/build/bsp/optee_os/lib/libutee/tee_api.c:188
    25d4:	51001820 	sub	w0, w1, #0x6
    25d8:	7100041f 	cmp	w0, #0x1
    25dc:	54000169 	b.ls	2608 <update_out_param+0x84>  // b.plast
/home/build/bsp/optee_os/lib/libutee/tee_api.c:184 (discriminator 2)
    25e0:	910006b5 	add	x21, x21, #0x1
    25e4:	91004294 	add	x20, x20, #0x10
    25e8:	91004273 	add	x19, x19, #0x10
    25ec:	f10012bf 	cmp	x21, #0x4
    25f0:	54fffde1 	b.ne	25ac <update_out_param+0x28>  // b.any
/home/build/bsp/optee_os/lib/libutee/tee_api.c:205
    25f4:	a94153f3 	ldp	x19, x20, [sp, #16]
    25f8:	a9425bf5 	ldp	x21, x22, [sp, #32]
    25fc:	a94363f7 	ldp	x23, x24, [sp, #48]
    2600:	a8c47bfd 	ldp	x29, x30, [sp], #64
    2604:	d65f03c0 	ret
/home/build/bsp/optee_os/lib/libutee/tee_api.c:196
    2608:	f8757b01 	ldr	x1, [x24, x21, lsl #3]
    260c:	b40000a1 	cbz	x1, 2620 <update_out_param+0x9c>
/home/build/bsp/optee_os/lib/libutee/tee_api.c:198
    2610:	a9400a60 	ldp	x0, x2, [x19]
    2614:	eb16005f 	cmp	x2, x22
/home/build/bsp/optee_os/lib/libutee/tee_api.c:197
    2618:	9a969042 	csel	x2, x2, x22, ls  // ls = plast
    261c:	97fff679 	bl	0 <memcpy>
/home/build/bsp/optee_os/lib/libutee/tee_api.c:199
    2620:	f9000676 	str	x22, [x19, #8]
/home/build/bsp/optee_os/lib/libutee/tee_api.c:200
    2624:	17ffffef 	b	25e0 <update_out_param+0x5c>

0000000000002628 <update_out_gp11_param>:
update_out_gp11_param():
/home/build/bsp/optee_os/lib/libutee/tee_api.c:210
    2628:	a9bc7bfd 	stp	x29, x30, [sp, #-64]!
    262c:	910003fd 	mov	x29, sp
    2630:	a90153f3 	stp	x19, x20, [sp, #16]
/home/build/bsp/optee_os/lib/libutee/tee_api.c:212
    2634:	aa0203f4 	mov	x20, x2
    2638:	aa0003f3 	mov	x19, x0
/home/build/bsp/optee_os/lib/libutee/tee_api.c:210
    263c:	a90363f7 	stp	x23, x24, [sp, #48]
    2640:	aa0103f8 	mov	x24, x1
/home/build/bsp/optee_os/lib/libutee/tee_api.c:212
    2644:	f8408697 	ldr	x23, [x20], #8
/home/build/bsp/optee_os/lib/libutee/tee_api.c:210
    2648:	a9025bf5 	stp	x21, x22, [sp, #32]
/home/build/bsp/optee_os/lib/libutee/tee_api.c:214
    264c:	d2800015 	mov	x21, #0x0                   	// #0
/home/build/bsp/optee_os/lib/libutee/tee_api.c:218
    2650:	531e76a0 	lsl	w0, w21, #2
/home/build/bsp/optee_os/lib/libutee/tee_api.c:216
    2654:	a9405a82 	ldp	x2, x22, [x20]
/home/build/bsp/optee_os/lib/libutee/tee_api.c:218
    2658:	1ac026e0 	lsr	w0, w23, w0
    265c:	12000c01 	and	w1, w0, #0xf
    2660:	721e041f 	tst	w0, #0xc
    2664:	540000a1 	b.ne	2678 <update_out_gp11_param+0x50>  // b.any
    2668:	721f081f 	tst	w0, #0xe
    266c:	540000c0 	b.eq	2684 <update_out_gp11_param+0x5c>  // b.none
/home/build/bsp/optee_os/lib/libutee/tee_api.c:222
    2670:	29005a62 	stp	w2, w22, [x19]
/home/build/bsp/optee_os/lib/libutee/tee_api.c:223
    2674:	14000004 	b	2684 <update_out_gp11_param+0x5c>
/home/build/bsp/optee_os/lib/libutee/tee_api.c:218
    2678:	51001820 	sub	w0, w1, #0x6
    267c:	7100041f 	cmp	w0, #0x1
    2680:	54000169 	b.ls	26ac <update_out_gp11_param+0x84>  // b.plast
/home/build/bsp/optee_os/lib/libutee/tee_api.c:214 (discriminator 2)
    2684:	910006b5 	add	x21, x21, #0x1
    2688:	91004294 	add	x20, x20, #0x10
    268c:	91004273 	add	x19, x19, #0x10
    2690:	f10012bf 	cmp	x21, #0x4
    2694:	54fffde1 	b.ne	2650 <update_out_gp11_param+0x28>  // b.any
/home/build/bsp/optee_os/lib/libutee/tee_api.c:235
    2698:	a94153f3 	ldp	x19, x20, [sp, #16]
    269c:	a9425bf5 	ldp	x21, x22, [sp, #32]
    26a0:	a94363f7 	ldp	x23, x24, [sp, #48]
    26a4:	a8c47bfd 	ldp	x29, x30, [sp], #64
    26a8:	d65f03c0 	ret
/home/build/bsp/optee_os/lib/libutee/tee_api.c:226
    26ac:	f8757b01 	ldr	x1, [x24, x21, lsl #3]
    26b0:	b40000c1 	cbz	x1, 26c8 <update_out_gp11_param+0xa0>
/home/build/bsp/optee_os/lib/libutee/tee_api.c:228
    26b4:	b9400a62 	ldr	w2, [x19, #8]
/home/build/bsp/optee_os/lib/libutee/tee_api.c:227
    26b8:	f9400260 	ldr	x0, [x19]
/home/build/bsp/optee_os/lib/libutee/tee_api.c:228
    26bc:	eb16005f 	cmp	x2, x22
/home/build/bsp/optee_os/lib/libutee/tee_api.c:227
    26c0:	9a969042 	csel	x2, x2, x22, ls  // ls = plast
    26c4:	97fff64f 	bl	0 <memcpy>
/home/build/bsp/optee_os/lib/libutee/tee_api.c:229
    26c8:	b9000a76 	str	w22, [x19, #8]
/home/build/bsp/optee_os/lib/libutee/tee_api.c:230
    26cc:	17ffffee 	b	2684 <update_out_gp11_param+0x5c>

00000000000026d0 <TEE_CloseTASession>:
TEE_CloseTASession():
/home/build/bsp/optee_os/lib/libutee/tee_api.c:415
    26d0:	b4000120 	cbz	x0, 26f4 <TEE_CloseTASession+0x24>
/home/build/bsp/optee_os/lib/libutee/tee_api.c:414
    26d4:	a9bf7bfd 	stp	x29, x30, [sp, #-16]!
    26d8:	910003fd 	mov	x29, sp
/home/build/bsp/optee_os/lib/libutee/tee_api.c:416
    26dc:	97fffe74 	bl	20ac <_utee_close_ta_session>
/home/build/bsp/optee_os/lib/libutee/tee_api.c:418
    26e0:	34000060 	cbz	w0, 26ec <TEE_CloseTASession+0x1c>
/home/build/bsp/optee_os/lib/libutee/tee_api.c:421
    26e4:	a8c17bfd 	ldp	x29, x30, [sp], #16
/home/build/bsp/optee_os/lib/libutee/tee_api.c:419
    26e8:	14000ba7 	b	5584 <TEE_Panic>
/home/build/bsp/optee_os/lib/libutee/tee_api.c:421
    26ec:	a8c17bfd 	ldp	x29, x30, [sp], #16
    26f0:	d65f03c0 	ret
    26f4:	d65f03c0 	ret

00000000000026f8 <TEE_GetCancellationFlag>:
TEE_GetCancellationFlag():
/home/build/bsp/optee_os/lib/libutee/tee_api.c:530
    26f8:	a9be7bfd 	stp	x29, x30, [sp, #-32]!
    26fc:	90000081 	adrp	x1, 12000 <_DYNAMIC>
    2700:	910003fd 	mov	x29, sp
    2704:	f9409821 	ldr	x1, [x1, #304]
    2708:	f9400020 	ldr	x0, [x1]
    270c:	f9000fe0 	str	x0, [sp, #24]
    2710:	d2800000 	mov	x0, #0x0                   	// #0
/home/build/bsp/optee_os/lib/libutee/tee_api.c:532
    2714:	910053e0 	add	x0, sp, #0x14
    2718:	97fffe6b 	bl	20c4 <_utee_get_cancellation_flag>
/home/build/bsp/optee_os/lib/libutee/tee_api.c:534
    271c:	34000040 	cbz	w0, 2724 <TEE_GetCancellationFlag+0x2c>
/home/build/bsp/optee_os/lib/libutee/tee_api.c:535
    2720:	b90017ff 	str	wzr, [sp, #20]
/home/build/bsp/optee_os/lib/libutee/tee_api.c:537
    2724:	90000081 	adrp	x1, 12000 <_DYNAMIC>
/home/build/bsp/optee_os/lib/libutee/tee_api.c:536
    2728:	b94017e0 	ldr	w0, [sp, #20]
/home/build/bsp/optee_os/lib/libutee/tee_api.c:537
    272c:	f9409821 	ldr	x1, [x1, #304]
/home/build/bsp/optee_os/lib/libutee/tee_api.c:536
    2730:	7100001f 	cmp	w0, #0x0
    2734:	1a9f07e0 	cset	w0, ne  // ne = any
/home/build/bsp/optee_os/lib/libutee/tee_api.c:537
    2738:	f9400fe3 	ldr	x3, [sp, #24]
    273c:	f9400022 	ldr	x2, [x1]
    2740:	eb020063 	subs	x3, x3, x2
    2744:	d2800002 	mov	x2, #0x0                   	// #0
    2748:	54000040 	b.eq	2750 <TEE_GetCancellationFlag+0x58>  // b.none
    274c:	97fff7d9 	bl	6b0 <__stack_chk_fail>
    2750:	a8c27bfd 	ldp	x29, x30, [sp], #32
    2754:	d65f03c0 	ret

0000000000002758 <TEE_UnmaskCancellation>:
TEE_UnmaskCancellation():
/home/build/bsp/optee_os/lib/libutee/tee_api.c:540
    2758:	a9be7bfd 	stp	x29, x30, [sp, #-32]!
    275c:	90000081 	adrp	x1, 12000 <_DYNAMIC>
    2760:	910003fd 	mov	x29, sp
    2764:	f9409821 	ldr	x1, [x1, #304]
    2768:	f9400020 	ldr	x0, [x1]
    276c:	f9000fe0 	str	x0, [sp, #24]
    2770:	d2800000 	mov	x0, #0x0                   	// #0
/home/build/bsp/optee_os/lib/libutee/tee_api.c:542
    2774:	910053e0 	add	x0, sp, #0x14
    2778:	97fffe59 	bl	20dc <_utee_unmask_cancellation>
/home/build/bsp/optee_os/lib/libutee/tee_api.c:544
    277c:	34000040 	cbz	w0, 2784 <TEE_UnmaskCancellation+0x2c>
/home/build/bsp/optee_os/lib/libutee/tee_api.c:545
    2780:	94000b81 	bl	5584 <TEE_Panic>
/home/build/bsp/optee_os/lib/libutee/tee_api.c:547
    2784:	90000081 	adrp	x1, 12000 <_DYNAMIC>
/home/build/bsp/optee_os/lib/libutee/tee_api.c:546
    2788:	b94017e0 	ldr	w0, [sp, #20]
/home/build/bsp/optee_os/lib/libutee/tee_api.c:547
    278c:	f9409821 	ldr	x1, [x1, #304]
/home/build/bsp/optee_os/lib/libutee/tee_api.c:546
    2790:	7100001f 	cmp	w0, #0x0
    2794:	1a9f07e0 	cset	w0, ne  // ne = any
/home/build/bsp/optee_os/lib/libutee/tee_api.c:547
    2798:	f9400fe3 	ldr	x3, [sp, #24]
    279c:	f9400022 	ldr	x2, [x1]
    27a0:	eb020063 	subs	x3, x3, x2
    27a4:	d2800002 	mov	x2, #0x0                   	// #0
    27a8:	54000040 	b.eq	27b0 <TEE_UnmaskCancellation+0x58>  // b.none
    27ac:	97fff7c1 	bl	6b0 <__stack_chk_fail>
    27b0:	a8c27bfd 	ldp	x29, x30, [sp], #32
    27b4:	d65f03c0 	ret

00000000000027b8 <TEE_MaskCancellation>:
TEE_MaskCancellation():
/home/build/bsp/optee_os/lib/libutee/tee_api.c:550
    27b8:	a9be7bfd 	stp	x29, x30, [sp, #-32]!
    27bc:	90000081 	adrp	x1, 12000 <_DYNAMIC>
    27c0:	910003fd 	mov	x29, sp
    27c4:	f9409821 	ldr	x1, [x1, #304]
    27c8:	f9400020 	ldr	x0, [x1]
    27cc:	f9000fe0 	str	x0, [sp, #24]
    27d0:	d2800000 	mov	x0, #0x0                   	// #0
/home/build/bsp/optee_os/lib/libutee/tee_api.c:552
    27d4:	910053e0 	add	x0, sp, #0x14
    27d8:	97fffe44 	bl	20e8 <_utee_mask_cancellation>
/home/build/bsp/optee_os/lib/libutee/tee_api.c:554
    27dc:	34000040 	cbz	w0, 27e4 <TEE_MaskCancellation+0x2c>
/home/build/bsp/optee_os/lib/libutee/tee_api.c:555
    27e0:	94000b69 	bl	5584 <TEE_Panic>
/home/build/bsp/optee_os/lib/libutee/tee_api.c:557
    27e4:	90000081 	adrp	x1, 12000 <_DYNAMIC>
/home/build/bsp/optee_os/lib/libutee/tee_api.c:556
    27e8:	b94017e0 	ldr	w0, [sp, #20]
/home/build/bsp/optee_os/lib/libutee/tee_api.c:557
    27ec:	f9409821 	ldr	x1, [x1, #304]
/home/build/bsp/optee_os/lib/libutee/tee_api.c:556
    27f0:	7100001f 	cmp	w0, #0x0
    27f4:	1a9f07e0 	cset	w0, ne  // ne = any
/home/build/bsp/optee_os/lib/libutee/tee_api.c:557
    27f8:	f9400fe3 	ldr	x3, [sp, #24]
    27fc:	f9400022 	ldr	x2, [x1]
    2800:	eb020063 	subs	x3, x3, x2
    2804:	d2800002 	mov	x2, #0x0                   	// #0
    2808:	54000040 	b.eq	2810 <TEE_MaskCancellation+0x58>  // b.none
    280c:	97fff7a9 	bl	6b0 <__stack_chk_fail>
    2810:	a8c27bfd 	ldp	x29, x30, [sp], #32
    2814:	d65f03c0 	ret

0000000000002818 <TEE_CheckMemoryAccessRights>:
TEE_CheckMemoryAccessRights():
/home/build/bsp/optee_os/lib/libutee/tee_api.c:566
    2818:	b5000102 	cbnz	x2, 2838 <TEE_CheckMemoryAccessRights+0x20>
/home/build/bsp/optee_os/lib/libutee/tee_api.c:567
    281c:	52800000 	mov	w0, #0x0                   	// #0
/home/build/bsp/optee_os/lib/libutee/tee_api.c:592
    2820:	d65f03c0 	ret
/home/build/bsp/optee_os/lib/libutee/tee_api.c:567
    2824:	52800000 	mov	w0, #0x0                   	// #0
/home/build/bsp/optee_os/lib/libutee/tee_api.c:592
    2828:	a94153f3 	ldp	x19, x20, [sp, #16]
    282c:	f94013f5 	ldr	x21, [sp, #32]
    2830:	a8c37bfd 	ldp	x29, x30, [sp], #48
    2834:	d65f03c0 	ret
/home/build/bsp/optee_os/lib/libutee/tee_api.c:563
    2838:	a9bd7bfd 	stp	x29, x30, [sp, #-48]!
    283c:	910003fd 	mov	x29, sp
    2840:	a90153f3 	stp	x19, x20, [sp, #16]
    2844:	aa0103f4 	mov	x20, x1
    2848:	aa0203f3 	mov	x19, x2
    284c:	f90013f5 	str	x21, [sp, #32]
    2850:	2a0003f5 	mov	w21, w0
/home/build/bsp/optee_os/lib/libutee/tee_api.c:573
    2854:	97fffe1f 	bl	20d0 <_utee_check_access_rights>
    2858:	35000200 	cbnz	w0, 2898 <TEE_CheckMemoryAccessRights+0x80>
/home/build/bsp/optee_os/lib/libutee/tee_api.c:584
    285c:	aa1303e2 	mov	x2, x19
    2860:	aa1403e1 	mov	x1, x20
    2864:	12000aa0 	and	w0, w21, #0x7
    2868:	97fffee6 	bl	2400 <check_mem_access_rights_params>
    286c:	35000160 	cbnz	w0, 2898 <TEE_CheckMemoryAccessRights+0x80>
/home/build/bsp/optee_os/lib/libutee/tee_api.c:587
    2870:	aa1303e1 	mov	x1, x19
    2874:	aa1403e0 	mov	x0, x20
    2878:	94002935 	bl	cd4c <malloc_buffer_overlaps_heap>
    287c:	72001c1f 	tst	w0, #0xff
    2880:	54fffd20 	b.eq	2824 <TEE_CheckMemoryAccessRights+0xc>  // b.none
/home/build/bsp/optee_os/lib/libutee/tee_api.c:588
    2884:	aa1303e1 	mov	x1, x19
    2888:	aa1403e0 	mov	x0, x20
    288c:	9400292b 	bl	cd38 <malloc_buffer_is_within_alloced>
/home/build/bsp/optee_os/lib/libutee/tee_api.c:587
    2890:	72001c1f 	tst	w0, #0xff
    2894:	54fffc81 	b.ne	2824 <TEE_CheckMemoryAccessRights+0xc>  // b.any
/home/build/bsp/optee_os/lib/libutee/tee_api.c:589
    2898:	129fffc0 	mov	w0, #0xffff0001            	// #-65535
    289c:	17ffffe3 	b	2828 <TEE_CheckMemoryAccessRights+0x10>

00000000000028a0 <map_tmp_param>:
map_tmp_param():
/home/build/bsp/optee_os/lib/libutee/tee_api.c:98
    28a0:	a9b87bfd 	stp	x29, x30, [sp, #-128]!
    28a4:	90000084 	adrp	x4, 12000 <_DYNAMIC>
    28a8:	910003fd 	mov	x29, sp
    28ac:	f9409884 	ldr	x4, [x4, #304]
    28b0:	a90153f3 	stp	x19, x20, [sp, #16]
/home/build/bsp/optee_os/lib/libutee/tee_api.c:116
    28b4:	d2800013 	mov	x19, #0x0                   	// #0
/home/build/bsp/optee_os/lib/libutee/tee_api.c:98
    28b8:	a9025bf5 	stp	x21, x22, [sp, #32]
    28bc:	aa0203f6 	mov	x22, x2
    28c0:	aa0303f5 	mov	x21, x3
    28c4:	a90363f7 	stp	x23, x24, [sp, #48]
    28c8:	aa0103f7 	mov	x23, x1
/home/build/bsp/optee_os/lib/libutee/tee_api.c:135
    28cc:	52800023 	mov	w3, #0x1                   	// #1
/home/build/bsp/optee_os/lib/libutee/tee_api.c:98
    28d0:	a9046bf9 	stp	x25, x26, [sp, #64]
    28d4:	aa0003f9 	mov	x25, x0
    28d8:	91002338 	add	x24, x25, #0x8
    28dc:	a90573fb 	stp	x27, x28, [sp, #80]
/home/build/bsp/optee_os/lib/libutee/tee_api.c:115
    28e0:	aa1803fb 	mov	x27, x24
/home/build/bsp/optee_os/lib/libutee/tee_api.c:135
    28e4:	9101c3fc 	add	x28, sp, #0x70
/home/build/bsp/optee_os/lib/libutee/tee_api.c:98
    28e8:	f9400080 	ldr	x0, [x4]
    28ec:	f9003fe0 	str	x0, [sp, #120]
    28f0:	d2800000 	mov	x0, #0x0                   	// #0
/home/build/bsp/optee_os/lib/libutee/tee_api.c:114
    28f4:	f900003f 	str	xzr, [x1]
/home/build/bsp/optee_os/lib/libutee/tee_api.c:101
    28f8:	d280001a 	mov	x26, #0x0                   	// #0
/home/build/bsp/optee_os/lib/libutee/tee_api.c:115
    28fc:	f900005f 	str	xzr, [x2]
/home/build/bsp/optee_os/lib/libutee/tee_api.c:103
    2900:	b90073ff 	str	wzr, [sp, #112]
/home/build/bsp/optee_os/lib/libutee/tee_api.c:118
    2904:	f9400321 	ldr	x1, [x25]
    2908:	531e7660 	lsl	w0, w19, #2
/home/build/bsp/optee_os/lib/libutee/tee_api.c:117
    290c:	f8337abf 	str	xzr, [x21, x19, lsl #3]
/home/build/bsp/optee_os/lib/libutee/tee_api.c:118
    2910:	1ac02421 	lsr	w1, w1, w0
    2914:	12000c21 	and	w1, w1, #0xf
    2918:	51001421 	sub	w1, w1, #0x5
    291c:	7100083f 	cmp	w1, #0x2
    2920:	540001e8 	b.hi	295c <map_tmp_param+0xbc>  // b.pmore
/home/build/bsp/optee_os/lib/libutee/tee_api.c:123
    2924:	a9405361 	ldp	x1, x20, [x27]
/home/build/bsp/optee_os/lib/libutee/tee_api.c:133
    2928:	f100003f 	cmp	x1, #0x0
    292c:	fa401a84 	ccmp	x20, #0x0, #0x4, ne  // ne = any
    2930:	54000160 	b.eq	295c <map_tmp_param+0xbc>  // b.none
/home/build/bsp/optee_os/lib/libutee/tee_api.c:134 (discriminator 1)
    2934:	aa1403e2 	mov	x2, x20
    2938:	52800020 	mov	w0, #0x1                   	// #1
    293c:	b9006fe3 	str	w3, [sp, #108]
    2940:	97ffffb6 	bl	2818 <TEE_CheckMemoryAccessRights>
/home/build/bsp/optee_os/lib/libutee/tee_api.c:133 (discriminator 1)
    2944:	b9406fe3 	ldr	w3, [sp, #108]
    2948:	350000a0 	cbnz	w0, 295c <map_tmp_param+0xbc>
/home/build/bsp/optee_os/lib/libutee/tee_api.c:136
    294c:	91003e94 	add	x20, x20, #0xf
/home/build/bsp/optee_os/lib/libutee/tee_api.c:135
    2950:	383c6a63 	strb	w3, [x19, x28]
/home/build/bsp/optee_os/lib/libutee/tee_api.c:136
    2954:	927cee94 	and	x20, x20, #0xfffffffffffffff0
    2958:	8b14035a 	add	x26, x26, x20
/home/build/bsp/optee_os/lib/libutee/tee_api.c:116 (discriminator 2)
    295c:	91000673 	add	x19, x19, #0x1
    2960:	9100437b 	add	x27, x27, #0x10
    2964:	f100127f 	cmp	x19, #0x4
    2968:	54fffce1 	b.ne	2904 <map_tmp_param+0x64>  // b.any
/home/build/bsp/optee_os/lib/libutee/tee_api.c:144
    296c:	b400053a 	cbz	x26, 2a10 <map_tmp_param+0x170>
/home/build/bsp/optee_os/lib/libutee/tee_api.c:145
    2970:	2a1303e1 	mov	w1, w19
    2974:	aa1a03e0 	mov	x0, x26
    2978:	94000f90 	bl	67b8 <tee_map_zi>
/home/build/bsp/optee_os/lib/libutee/tee_api.c:146
    297c:	b40004e0 	cbz	x0, 2a18 <map_tmp_param+0x178>
/home/build/bsp/optee_os/lib/libutee/tee_api.c:148
    2980:	f90002e0 	str	x0, [x23]
/home/build/bsp/optee_os/lib/libutee/tee_api.c:149
    2984:	f90002da 	str	x26, [x22]
/home/build/bsp/optee_os/lib/libutee/tee_api.c:157
    2988:	9101c3f6 	add	x22, sp, #0x70
/home/build/bsp/optee_os/lib/libutee/tee_api.c:100
    298c:	d2800013 	mov	x19, #0x0                   	// #0
/home/build/bsp/optee_os/lib/libutee/tee_api.c:153
    2990:	f9400323 	ldr	x3, [x25]
    2994:	531e7661 	lsl	w1, w19, #2
    2998:	1ac12463 	lsr	w3, w3, w1
    299c:	12000c63 	and	w3, w3, #0xf
    29a0:	51001461 	sub	w1, w3, #0x5
    29a4:	7100083f 	cmp	w1, #0x2
    29a8:	540001a8 	b.hi	29dc <map_tmp_param+0x13c>  // b.pmore
/home/build/bsp/optee_os/lib/libutee/tee_api.c:157
    29ac:	38766a61 	ldrb	w1, [x19, x22]
    29b0:	34000161 	cbz	w1, 29dc <map_tmp_param+0x13c>
/home/build/bsp/optee_os/lib/libutee/tee_api.c:159
    29b4:	a9400b01 	ldp	x1, x2, [x24]
/home/build/bsp/optee_os/lib/libutee/tee_api.c:161
    29b8:	f8337aa0 	str	x0, [x21, x19, lsl #3]
/home/build/bsp/optee_os/lib/libutee/tee_api.c:163
    29bc:	f9000300 	str	x0, [x24]
/home/build/bsp/optee_os/lib/libutee/tee_api.c:162
    29c0:	91003c54 	add	x20, x2, #0xf
    29c4:	927cee94 	and	x20, x20, #0xfffffffffffffff0
    29c8:	8b140014 	add	x20, x0, x20
/home/build/bsp/optee_os/lib/libutee/tee_api.c:164
    29cc:	7100187f 	cmp	w3, #0x6
    29d0:	54000040 	b.eq	29d8 <map_tmp_param+0x138>  // b.none
/home/build/bsp/optee_os/lib/libutee/tee_api.c:166
    29d4:	97fff58b 	bl	0 <memcpy>
/home/build/bsp/optee_os/lib/libutee/tee_api.c:162
    29d8:	aa1403e0 	mov	x0, x20
/home/build/bsp/optee_os/lib/libutee/tee_api.c:152 (discriminator 2)
    29dc:	91000673 	add	x19, x19, #0x1
    29e0:	91004318 	add	x24, x24, #0x10
    29e4:	f100127f 	cmp	x19, #0x4
    29e8:	54fffd41 	b.ne	2990 <map_tmp_param+0xf0>  // b.any
/home/build/bsp/optee_os/lib/libutee/tee_api.c:173
    29ec:	52800000 	mov	w0, #0x0                   	// #0
/home/build/bsp/optee_os/lib/libutee/tee_api.c:175
    29f0:	90000084 	adrp	x4, 12000 <_DYNAMIC>
    29f4:	f9409884 	ldr	x4, [x4, #304]
    29f8:	f9403fe1 	ldr	x1, [sp, #120]
    29fc:	f9400082 	ldr	x2, [x4]
    2a00:	eb020021 	subs	x1, x1, x2
    2a04:	d2800002 	mov	x2, #0x0                   	// #0
    2a08:	540000c0 	b.eq	2a20 <map_tmp_param+0x180>  // b.none
    2a0c:	97fff729 	bl	6b0 <__stack_chk_fail>
/home/build/bsp/optee_os/lib/libutee/tee_api.c:100
    2a10:	d2800000 	mov	x0, #0x0                   	// #0
    2a14:	17ffffdd 	b	2988 <map_tmp_param+0xe8>
/home/build/bsp/optee_os/lib/libutee/tee_api.c:147
    2a18:	129ffe60 	mov	w0, #0xffff000c            	// #-65524
    2a1c:	17fffff5 	b	29f0 <map_tmp_param+0x150>
/home/build/bsp/optee_os/lib/libutee/tee_api.c:175
    2a20:	a94153f3 	ldp	x19, x20, [sp, #16]
    2a24:	a9425bf5 	ldp	x21, x22, [sp, #32]
    2a28:	a94363f7 	ldp	x23, x24, [sp, #48]
    2a2c:	a9446bf9 	ldp	x25, x26, [sp, #64]
    2a30:	a94573fb 	ldp	x27, x28, [sp, #80]
    2a34:	a8c87bfd 	ldp	x29, x30, [sp], #128
    2a38:	d65f03c0 	ret

0000000000002a3c <TEE_OpenTASession>:
TEE_OpenTASession():
/home/build/bsp/optee_os/lib/libutee/tee_api.c:323
    2a3c:	a9b27bfd 	stp	x29, x30, [sp, #-224]!
    2a40:	90000086 	adrp	x6, 12000 <_DYNAMIC>
    2a44:	910003fd 	mov	x29, sp
    2a48:	f94098c6 	ldr	x6, [x6, #304]
    2a4c:	a90153f3 	stp	x19, x20, [sp, #16]
    2a50:	2a0203f3 	mov	w19, w2
    2a54:	a9025bf5 	stp	x21, x22, [sp, #32]
    2a58:	aa0303f4 	mov	x20, x3
    2a5c:	aa0403f5 	mov	x21, x4
    2a60:	a90363f7 	stp	x23, x24, [sp, #48]
    2a64:	aa0003f7 	mov	x23, x0
    2a68:	2a0103f8 	mov	w24, w1
    2a6c:	a9046bf9 	stp	x25, x26, [sp, #64]
    2a70:	aa0503f9 	mov	x25, x5
    2a74:	f94000c0 	ldr	x0, [x6]
    2a78:	f9006fe0 	str	x0, [sp, #216]
    2a7c:	d2800000 	mov	x0, #0x0                   	// #0
/home/build/bsp/optee_os/lib/libutee/tee_api.c:326
    2a80:	b9005fff 	str	wzr, [sp, #92]
/home/build/bsp/optee_os/lib/libutee/tee_api.c:328
    2a84:	a9067fff 	stp	xzr, xzr, [sp, #96]
/home/build/bsp/optee_os/lib/libutee/tee_api.c:329
    2a88:	a9077fff 	stp	xzr, xzr, [sp, #112]
    2a8c:	a9087fff 	stp	xzr, xzr, [sp, #128]
/home/build/bsp/optee_os/lib/libutee/tee_api.c:325
    2a90:	a9097fff 	stp	xzr, xzr, [sp, #144]
    2a94:	a90a7fff 	stp	xzr, xzr, [sp, #160]
    2a98:	a90b7fff 	stp	xzr, xzr, [sp, #176]
    2a9c:	a90c7fff 	stp	xzr, xzr, [sp, #192]
    2aa0:	f9006bff 	str	xzr, [sp, #208]
/home/build/bsp/optee_os/lib/libutee/tee_api.c:331
    2aa4:	340000e2 	cbz	w2, 2ac0 <TEE_OpenTASession+0x84>
/home/build/bsp/optee_os/lib/libutee/tee_api.c:332
    2aa8:	aa0303e0 	mov	x0, x3
    2aac:	d2800801 	mov	x1, #0x40                  	// #64
    2ab0:	94000b25 	bl	5744 <__utee_check_inout_annotation>
/home/build/bsp/optee_os/lib/libutee/tee_api.c:335
    2ab4:	aa1403e1 	mov	x1, x20
    2ab8:	2a1303e0 	mov	w0, w19
    2abc:	97fffe88 	bl	24dc <check_invoke_param>
/home/build/bsp/optee_os/lib/libutee/tee_api.c:337
    2ac0:	aa1503e0 	mov	x0, x21
/home/build/bsp/optee_os/lib/libutee/tee_api.c:339
    2ac4:	910243f6 	add	x22, sp, #0x90
/home/build/bsp/optee_os/lib/libutee/tee_api.c:337
    2ac8:	d2800101 	mov	x1, #0x8                   	// #8
    2acc:	94000b0c 	bl	56fc <__utee_check_out_annotation>
/home/build/bsp/optee_os/lib/libutee/tee_api.c:339
    2ad0:	2a1303e1 	mov	w1, w19
    2ad4:	aa1403e2 	mov	x2, x20
    2ad8:	aa1603e0 	mov	x0, x22
/home/build/bsp/optee_os/lib/libutee/tee_api.c:340
    2adc:	9101c3fa 	add	x26, sp, #0x70
/home/build/bsp/optee_os/lib/libutee/tee_api.c:339
    2ae0:	97fffe11 	bl	2324 <copy_param>
/home/build/bsp/optee_os/lib/libutee/tee_api.c:340
    2ae4:	910183e1 	add	x1, sp, #0x60
    2ae8:	aa1a03e3 	mov	x3, x26
    2aec:	9101a3e2 	add	x2, sp, #0x68
    2af0:	aa1603e0 	mov	x0, x22
    2af4:	97ffff6b 	bl	28a0 <map_tmp_param>
    2af8:	2a0003f3 	mov	w19, w0
/home/build/bsp/optee_os/lib/libutee/tee_api.c:341
    2afc:	35000260 	cbnz	w0, 2b48 <TEE_OpenTASession+0x10c>
/home/build/bsp/optee_os/lib/libutee/tee_api.c:343
    2b00:	aa1903e4 	mov	x4, x25
    2b04:	910173e3 	add	x3, sp, #0x5c
    2b08:	aa1603e2 	mov	x2, x22
    2b0c:	2a1803e1 	mov	w1, w24
    2b10:	aa1703e0 	mov	x0, x23
    2b14:	97fffd63 	bl	20a0 <_utee_open_ta_session>
/home/build/bsp/optee_os/lib/libutee/tee_api.c:345
    2b18:	aa1603e2 	mov	x2, x22
/home/build/bsp/optee_os/lib/libutee/tee_api.c:343
    2b1c:	2a0003f3 	mov	w19, w0
/home/build/bsp/optee_os/lib/libutee/tee_api.c:345
    2b20:	aa1a03e1 	mov	x1, x26
    2b24:	aa1403e0 	mov	x0, x20
    2b28:	97fffe97 	bl	2584 <update_out_param>
/home/build/bsp/optee_os/lib/libutee/tee_api.c:346
    2b2c:	f94033e0 	ldr	x0, [sp, #96]
    2b30:	b40000a0 	cbz	x0, 2b44 <TEE_OpenTASession+0x108>
/home/build/bsp/optee_os/lib/libutee/tee_api.c:347
    2b34:	f94037e1 	ldr	x1, [sp, #104]
    2b38:	94000f45 	bl	684c <tee_unmap>
/home/build/bsp/optee_os/lib/libutee/tee_api.c:349
    2b3c:	34000040 	cbz	w0, 2b44 <TEE_OpenTASession+0x108>
/home/build/bsp/optee_os/lib/libutee/tee_api.c:350
    2b40:	94000a91 	bl	5584 <TEE_Panic>
/home/build/bsp/optee_os/lib/libutee/tee_api.c:359
    2b44:	34000053 	cbz	w19, 2b4c <TEE_OpenTASession+0x110>
/home/build/bsp/optee_os/lib/libutee/tee_api.c:360
    2b48:	b9005fff 	str	wzr, [sp, #92]
/home/build/bsp/optee_os/lib/libutee/tee_api.c:364
    2b4c:	90000086 	adrp	x6, 12000 <_DYNAMIC>
/home/build/bsp/optee_os/lib/libutee/tee_api.c:362
    2b50:	b9405fe0 	ldr	w0, [sp, #92]
    2b54:	f90002a0 	str	x0, [x21]
/home/build/bsp/optee_os/lib/libutee/tee_api.c:364
    2b58:	f94098c6 	ldr	x6, [x6, #304]
    2b5c:	f9406fe0 	ldr	x0, [sp, #216]
    2b60:	f94000c1 	ldr	x1, [x6]
    2b64:	eb010000 	subs	x0, x0, x1
    2b68:	d2800001 	mov	x1, #0x0                   	// #0
    2b6c:	54000040 	b.eq	2b74 <TEE_OpenTASession+0x138>  // b.none
    2b70:	97fff6d0 	bl	6b0 <__stack_chk_fail>
    2b74:	2a1303e0 	mov	w0, w19
    2b78:	a94153f3 	ldp	x19, x20, [sp, #16]
    2b7c:	a9425bf5 	ldp	x21, x22, [sp, #32]
    2b80:	a94363f7 	ldp	x23, x24, [sp, #48]
    2b84:	a9446bf9 	ldp	x25, x26, [sp, #64]
    2b88:	a8ce7bfd 	ldp	x29, x30, [sp], #224
    2b8c:	d65f03c0 	ret

0000000000002b90 <__GP11_TEE_OpenTASession>:
__GP11_TEE_OpenTASession():
/home/build/bsp/optee_os/lib/libutee/tee_api.c:372
    2b90:	a9b27bfd 	stp	x29, x30, [sp, #-224]!
    2b94:	90000086 	adrp	x6, 12000 <_DYNAMIC>
    2b98:	910003fd 	mov	x29, sp
    2b9c:	f94098c6 	ldr	x6, [x6, #304]
    2ba0:	a90153f3 	stp	x19, x20, [sp, #16]
    2ba4:	2a0203f3 	mov	w19, w2
    2ba8:	a9025bf5 	stp	x21, x22, [sp, #32]
    2bac:	aa0303f4 	mov	x20, x3
    2bb0:	aa0403f5 	mov	x21, x4
    2bb4:	a90363f7 	stp	x23, x24, [sp, #48]
    2bb8:	aa0003f7 	mov	x23, x0
    2bbc:	2a0103f8 	mov	w24, w1
    2bc0:	a9046bf9 	stp	x25, x26, [sp, #64]
    2bc4:	aa0503f9 	mov	x25, x5
    2bc8:	f94000c0 	ldr	x0, [x6]
    2bcc:	f9006fe0 	str	x0, [sp, #216]
    2bd0:	d2800000 	mov	x0, #0x0                   	// #0
/home/build/bsp/optee_os/lib/libutee/tee_api.c:375
    2bd4:	b9005fff 	str	wzr, [sp, #92]
/home/build/bsp/optee_os/lib/libutee/tee_api.c:377
    2bd8:	a9067fff 	stp	xzr, xzr, [sp, #96]
/home/build/bsp/optee_os/lib/libutee/tee_api.c:378
    2bdc:	a9077fff 	stp	xzr, xzr, [sp, #112]
    2be0:	a9087fff 	stp	xzr, xzr, [sp, #128]
/home/build/bsp/optee_os/lib/libutee/tee_api.c:374
    2be4:	a9097fff 	stp	xzr, xzr, [sp, #144]
    2be8:	a90a7fff 	stp	xzr, xzr, [sp, #160]
    2bec:	a90b7fff 	stp	xzr, xzr, [sp, #176]
    2bf0:	a90c7fff 	stp	xzr, xzr, [sp, #192]
    2bf4:	f9006bff 	str	xzr, [sp, #208]
/home/build/bsp/optee_os/lib/libutee/tee_api.c:380
    2bf8:	34000082 	cbz	w2, 2c08 <__GP11_TEE_OpenTASession+0x78>
/home/build/bsp/optee_os/lib/libutee/tee_api.c:381
    2bfc:	aa0303e0 	mov	x0, x3
    2c00:	d2800801 	mov	x1, #0x40                  	// #64
    2c04:	94000ad0 	bl	5744 <__utee_check_inout_annotation>
/home/build/bsp/optee_os/lib/libutee/tee_api.c:384
    2c08:	aa1503e0 	mov	x0, x21
/home/build/bsp/optee_os/lib/libutee/tee_api.c:386
    2c0c:	910243f6 	add	x22, sp, #0x90
/home/build/bsp/optee_os/lib/libutee/tee_api.c:384
    2c10:	d2800101 	mov	x1, #0x8                   	// #8
    2c14:	94000aba 	bl	56fc <__utee_check_out_annotation>
/home/build/bsp/optee_os/lib/libutee/tee_api.c:386
    2c18:	2a1303e1 	mov	w1, w19
    2c1c:	aa1403e2 	mov	x2, x20
    2c20:	aa1603e0 	mov	x0, x22
/home/build/bsp/optee_os/lib/libutee/tee_api.c:387
    2c24:	9101c3fa 	add	x26, sp, #0x70
/home/build/bsp/optee_os/lib/libutee/tee_api.c:386
    2c28:	97fffdda 	bl	2390 <copy_gp11_param>
/home/build/bsp/optee_os/lib/libutee/tee_api.c:387
    2c2c:	910183e1 	add	x1, sp, #0x60
    2c30:	aa1a03e3 	mov	x3, x26
    2c34:	9101a3e2 	add	x2, sp, #0x68
    2c38:	aa1603e0 	mov	x0, x22
    2c3c:	97ffff19 	bl	28a0 <map_tmp_param>
    2c40:	2a0003f3 	mov	w19, w0
/home/build/bsp/optee_os/lib/libutee/tee_api.c:388
    2c44:	35000260 	cbnz	w0, 2c90 <__GP11_TEE_OpenTASession+0x100>
/home/build/bsp/optee_os/lib/libutee/tee_api.c:390
    2c48:	aa1903e4 	mov	x4, x25
    2c4c:	910173e3 	add	x3, sp, #0x5c
    2c50:	aa1603e2 	mov	x2, x22
    2c54:	2a1803e1 	mov	w1, w24
    2c58:	aa1703e0 	mov	x0, x23
    2c5c:	97fffd11 	bl	20a0 <_utee_open_ta_session>
/home/build/bsp/optee_os/lib/libutee/tee_api.c:392
    2c60:	aa1603e2 	mov	x2, x22
/home/build/bsp/optee_os/lib/libutee/tee_api.c:390
    2c64:	2a0003f3 	mov	w19, w0
/home/build/bsp/optee_os/lib/libutee/tee_api.c:392
    2c68:	aa1a03e1 	mov	x1, x26
    2c6c:	aa1403e0 	mov	x0, x20
    2c70:	97fffe6e 	bl	2628 <update_out_gp11_param>
/home/build/bsp/optee_os/lib/libutee/tee_api.c:393
    2c74:	f94033e0 	ldr	x0, [sp, #96]
    2c78:	b40000a0 	cbz	x0, 2c8c <__GP11_TEE_OpenTASession+0xfc>
/home/build/bsp/optee_os/lib/libutee/tee_api.c:394
    2c7c:	f94037e1 	ldr	x1, [sp, #104]
    2c80:	94000ef3 	bl	684c <tee_unmap>
/home/build/bsp/optee_os/lib/libutee/tee_api.c:396
    2c84:	34000040 	cbz	w0, 2c8c <__GP11_TEE_OpenTASession+0xfc>
/home/build/bsp/optee_os/lib/libutee/tee_api.c:397
    2c88:	94000a3f 	bl	5584 <TEE_Panic>
/home/build/bsp/optee_os/lib/libutee/tee_api.c:406
    2c8c:	34000053 	cbz	w19, 2c94 <__GP11_TEE_OpenTASession+0x104>
/home/build/bsp/optee_os/lib/libutee/tee_api.c:407
    2c90:	b9005fff 	str	wzr, [sp, #92]
/home/build/bsp/optee_os/lib/libutee/tee_api.c:411
    2c94:	90000086 	adrp	x6, 12000 <_DYNAMIC>
/home/build/bsp/optee_os/lib/libutee/tee_api.c:409
    2c98:	b9405fe0 	ldr	w0, [sp, #92]
    2c9c:	f90002a0 	str	x0, [x21]
/home/build/bsp/optee_os/lib/libutee/tee_api.c:411
    2ca0:	f94098c6 	ldr	x6, [x6, #304]
    2ca4:	f9406fe0 	ldr	x0, [sp, #216]
    2ca8:	f94000c1 	ldr	x1, [x6]
    2cac:	eb010000 	subs	x0, x0, x1
    2cb0:	d2800001 	mov	x1, #0x0                   	// #0
    2cb4:	54000040 	b.eq	2cbc <__GP11_TEE_OpenTASession+0x12c>  // b.none
    2cb8:	97fff67e 	bl	6b0 <__stack_chk_fail>
    2cbc:	2a1303e0 	mov	w0, w19
    2cc0:	a94153f3 	ldp	x19, x20, [sp, #16]
    2cc4:	a9425bf5 	ldp	x21, x22, [sp, #32]
    2cc8:	a94363f7 	ldp	x23, x24, [sp, #48]
    2ccc:	a9446bf9 	ldp	x25, x26, [sp, #64]
    2cd0:	a8ce7bfd 	ldp	x29, x30, [sp], #224
    2cd4:	d65f03c0 	ret

0000000000002cd8 <TEE_InvokeTACommand>:
TEE_InvokeTACommand():
/home/build/bsp/optee_os/lib/libutee/tee_api.c:428
    2cd8:	a9b27bfd 	stp	x29, x30, [sp, #-224]!
    2cdc:	90000086 	adrp	x6, 12000 <_DYNAMIC>
    2ce0:	910003fd 	mov	x29, sp
    2ce4:	f94098c6 	ldr	x6, [x6, #304]
    2ce8:	a90153f3 	stp	x19, x20, [sp, #16]
    2cec:	2a0303f3 	mov	w19, w3
    2cf0:	a9025bf5 	stp	x21, x22, [sp, #32]
    2cf4:	aa0003f6 	mov	x22, x0
    2cf8:	aa0403f5 	mov	x21, x4
    2cfc:	a90363f7 	stp	x23, x24, [sp, #48]
    2d00:	aa0503f4 	mov	x20, x5
    2d04:	2a0103f7 	mov	w23, w1
    2d08:	a9046bf9 	stp	x25, x26, [sp, #64]
    2d0c:	2a0203f8 	mov	w24, w2
    2d10:	f94000c0 	ldr	x0, [x6]
    2d14:	f9006fe0 	str	x0, [sp, #216]
    2d18:	d2800000 	mov	x0, #0x0                   	// #0
/home/build/bsp/optee_os/lib/libutee/tee_api.c:433
    2d1c:	a9067fff 	stp	xzr, xzr, [sp, #96]
/home/build/bsp/optee_os/lib/libutee/tee_api.c:430
    2d20:	52800060 	mov	w0, #0x3                   	// #3
    2d24:	b9005fe0 	str	w0, [sp, #92]
/home/build/bsp/optee_os/lib/libutee/tee_api.c:434
    2d28:	a9077fff 	stp	xzr, xzr, [sp, #112]
    2d2c:	a9087fff 	stp	xzr, xzr, [sp, #128]
/home/build/bsp/optee_os/lib/libutee/tee_api.c:431
    2d30:	a9097fff 	stp	xzr, xzr, [sp, #144]
    2d34:	a90a7fff 	stp	xzr, xzr, [sp, #160]
    2d38:	a90b7fff 	stp	xzr, xzr, [sp, #176]
    2d3c:	a90c7fff 	stp	xzr, xzr, [sp, #192]
    2d40:	f9006bff 	str	xzr, [sp, #208]
/home/build/bsp/optee_os/lib/libutee/tee_api.c:436
    2d44:	340000e3 	cbz	w3, 2d60 <TEE_InvokeTACommand+0x88>
/home/build/bsp/optee_os/lib/libutee/tee_api.c:437
    2d48:	aa0403e0 	mov	x0, x4
    2d4c:	d2800801 	mov	x1, #0x40                  	// #64
    2d50:	94000a7d 	bl	5744 <__utee_check_inout_annotation>
/home/build/bsp/optee_os/lib/libutee/tee_api.c:440
    2d54:	aa1503e1 	mov	x1, x21
    2d58:	2a1303e0 	mov	w0, w19
    2d5c:	97fffde0 	bl	24dc <check_invoke_param>
/home/build/bsp/optee_os/lib/libutee/tee_api.c:442
    2d60:	b4000094 	cbz	x20, 2d70 <TEE_InvokeTACommand+0x98>
/home/build/bsp/optee_os/lib/libutee/tee_api.c:443
    2d64:	aa1403e0 	mov	x0, x20
    2d68:	d2800081 	mov	x1, #0x4                   	// #4
    2d6c:	94000a64 	bl	56fc <__utee_check_out_annotation>
/home/build/bsp/optee_os/lib/libutee/tee_api.c:446
    2d70:	910243f9 	add	x25, sp, #0x90
    2d74:	2a1303e1 	mov	w1, w19
    2d78:	aa1503e2 	mov	x2, x21
    2d7c:	aa1903e0 	mov	x0, x25
/home/build/bsp/optee_os/lib/libutee/tee_api.c:447
    2d80:	9101c3fa 	add	x26, sp, #0x70
/home/build/bsp/optee_os/lib/libutee/tee_api.c:446
    2d84:	97fffd68 	bl	2324 <copy_param>
/home/build/bsp/optee_os/lib/libutee/tee_api.c:447
    2d88:	aa1a03e3 	mov	x3, x26
    2d8c:	9101a3e2 	add	x2, sp, #0x68
    2d90:	910183e1 	add	x1, sp, #0x60
    2d94:	aa1903e0 	mov	x0, x25
    2d98:	97fffec2 	bl	28a0 <map_tmp_param>
    2d9c:	2a0003f3 	mov	w19, w0
/home/build/bsp/optee_os/lib/libutee/tee_api.c:448
    2da0:	35000240 	cbnz	w0, 2de8 <TEE_InvokeTACommand+0x110>
/home/build/bsp/optee_os/lib/libutee/tee_api.c:450
    2da4:	910173e4 	add	x4, sp, #0x5c
    2da8:	aa1903e3 	mov	x3, x25
    2dac:	2a1803e2 	mov	w2, w24
    2db0:	2a1703e1 	mov	w1, w23
    2db4:	aa1603e0 	mov	x0, x22
    2db8:	97fffcc0 	bl	20b8 <_utee_invoke_ta_command>
/home/build/bsp/optee_os/lib/libutee/tee_api.c:453
    2dbc:	aa1903e2 	mov	x2, x25
/home/build/bsp/optee_os/lib/libutee/tee_api.c:450
    2dc0:	2a0003f3 	mov	w19, w0
/home/build/bsp/optee_os/lib/libutee/tee_api.c:453
    2dc4:	aa1a03e1 	mov	x1, x26
    2dc8:	aa1503e0 	mov	x0, x21
    2dcc:	97fffdee 	bl	2584 <update_out_param>
/home/build/bsp/optee_os/lib/libutee/tee_api.c:454
    2dd0:	f94033e0 	ldr	x0, [sp, #96]
    2dd4:	b40000a0 	cbz	x0, 2de8 <TEE_InvokeTACommand+0x110>
/home/build/bsp/optee_os/lib/libutee/tee_api.c:455
    2dd8:	f94037e1 	ldr	x1, [sp, #104]
    2ddc:	94000e9c 	bl	684c <tee_unmap>
/home/build/bsp/optee_os/lib/libutee/tee_api.c:457
    2de0:	34000040 	cbz	w0, 2de8 <TEE_InvokeTACommand+0x110>
/home/build/bsp/optee_os/lib/libutee/tee_api.c:458
    2de4:	940009e8 	bl	5584 <TEE_Panic>
/home/build/bsp/optee_os/lib/libutee/tee_api.c:463
    2de8:	b9405fe0 	ldr	w0, [sp, #92]
/home/build/bsp/optee_os/lib/libutee/tee_api.c:462
    2dec:	b4000054 	cbz	x20, 2df4 <TEE_InvokeTACommand+0x11c>
/home/build/bsp/optee_os/lib/libutee/tee_api.c:463
    2df0:	b9000280 	str	w0, [x20]
/home/build/bsp/optee_os/lib/libutee/tee_api.c:465
    2df4:	7100101f 	cmp	w0, #0x4
    2df8:	54000140 	b.eq	2e20 <TEE_InvokeTACommand+0x148>  // b.none
/home/build/bsp/optee_os/lib/libutee/tee_api.c:468
    2dfc:	7100027f 	cmp	w19, #0x0
    2e00:	129ffe60 	mov	w0, #0xffff000c            	// #-65524
    2e04:	7a401264 	ccmp	w19, w0, #0x4, ne  // ne = any
    2e08:	540000c0 	b.eq	2e20 <TEE_InvokeTACommand+0x148>  // b.none
/home/build/bsp/optee_os/lib/libutee/tee_api.c:469
    2e0c:	1299fb60 	mov	w0, #0xffff3024            	// #-53212
    2e10:	6b00027f 	cmp	w19, w0
    2e14:	54000060 	b.eq	2e20 <TEE_InvokeTACommand+0x148>  // b.none
/home/build/bsp/optee_os/lib/libutee/tee_api.c:471
    2e18:	2a1303e0 	mov	w0, w19
    2e1c:	940009da 	bl	5584 <TEE_Panic>
/home/build/bsp/optee_os/lib/libutee/tee_api.c:474
    2e20:	90000086 	adrp	x6, 12000 <_DYNAMIC>
    2e24:	f94098c6 	ldr	x6, [x6, #304]
    2e28:	f9406fe0 	ldr	x0, [sp, #216]
    2e2c:	f94000c1 	ldr	x1, [x6]
    2e30:	eb010000 	subs	x0, x0, x1
    2e34:	d2800001 	mov	x1, #0x0                   	// #0
    2e38:	54000040 	b.eq	2e40 <TEE_InvokeTACommand+0x168>  // b.none
    2e3c:	97fff61d 	bl	6b0 <__stack_chk_fail>
    2e40:	2a1303e0 	mov	w0, w19
    2e44:	a94153f3 	ldp	x19, x20, [sp, #16]
    2e48:	a9425bf5 	ldp	x21, x22, [sp, #32]
    2e4c:	a94363f7 	ldp	x23, x24, [sp, #48]
    2e50:	a9446bf9 	ldp	x25, x26, [sp, #64]
    2e54:	a8ce7bfd 	ldp	x29, x30, [sp], #224
    2e58:	d65f03c0 	ret

0000000000002e5c <__GP11_TEE_InvokeTACommand>:
__GP11_TEE_InvokeTACommand():
/home/build/bsp/optee_os/lib/libutee/tee_api.c:481
    2e5c:	a9b27bfd 	stp	x29, x30, [sp, #-224]!
    2e60:	90000086 	adrp	x6, 12000 <_DYNAMIC>
    2e64:	910003fd 	mov	x29, sp
    2e68:	f94098c6 	ldr	x6, [x6, #304]
    2e6c:	a90153f3 	stp	x19, x20, [sp, #16]
    2e70:	2a0303f3 	mov	w19, w3
    2e74:	a9025bf5 	stp	x21, x22, [sp, #32]
    2e78:	aa0503f4 	mov	x20, x5
    2e7c:	aa0403f5 	mov	x21, x4
    2e80:	a90363f7 	stp	x23, x24, [sp, #48]
    2e84:	aa0003f7 	mov	x23, x0
    2e88:	2a0103f8 	mov	w24, w1
    2e8c:	a9046bf9 	stp	x25, x26, [sp, #64]
    2e90:	2a0203f9 	mov	w25, w2
    2e94:	f94000c0 	ldr	x0, [x6]
    2e98:	f9006fe0 	str	x0, [sp, #216]
    2e9c:	d2800000 	mov	x0, #0x0                   	// #0
/home/build/bsp/optee_os/lib/libutee/tee_api.c:486
    2ea0:	a9067fff 	stp	xzr, xzr, [sp, #96]
/home/build/bsp/optee_os/lib/libutee/tee_api.c:483
    2ea4:	52800060 	mov	w0, #0x3                   	// #3
    2ea8:	b9005fe0 	str	w0, [sp, #92]
/home/build/bsp/optee_os/lib/libutee/tee_api.c:487
    2eac:	a9077fff 	stp	xzr, xzr, [sp, #112]
    2eb0:	a9087fff 	stp	xzr, xzr, [sp, #128]
/home/build/bsp/optee_os/lib/libutee/tee_api.c:484
    2eb4:	a9097fff 	stp	xzr, xzr, [sp, #144]
    2eb8:	a90a7fff 	stp	xzr, xzr, [sp, #160]
    2ebc:	a90b7fff 	stp	xzr, xzr, [sp, #176]
    2ec0:	a90c7fff 	stp	xzr, xzr, [sp, #192]
    2ec4:	f9006bff 	str	xzr, [sp, #208]
/home/build/bsp/optee_os/lib/libutee/tee_api.c:489
    2ec8:	34000083 	cbz	w3, 2ed8 <__GP11_TEE_InvokeTACommand+0x7c>
/home/build/bsp/optee_os/lib/libutee/tee_api.c:490
    2ecc:	aa0403e0 	mov	x0, x4
    2ed0:	d2800801 	mov	x1, #0x40                  	// #64
    2ed4:	94000a1c 	bl	5744 <__utee_check_inout_annotation>
/home/build/bsp/optee_os/lib/libutee/tee_api.c:493
    2ed8:	b4000094 	cbz	x20, 2ee8 <__GP11_TEE_InvokeTACommand+0x8c>
/home/build/bsp/optee_os/lib/libutee/tee_api.c:494
    2edc:	aa1403e0 	mov	x0, x20
    2ee0:	d2800081 	mov	x1, #0x4                   	// #4
    2ee4:	94000a06 	bl	56fc <__utee_check_out_annotation>
/home/build/bsp/optee_os/lib/libutee/tee_api.c:497
    2ee8:	910243f6 	add	x22, sp, #0x90
    2eec:	2a1303e1 	mov	w1, w19
    2ef0:	aa1503e2 	mov	x2, x21
    2ef4:	aa1603e0 	mov	x0, x22
/home/build/bsp/optee_os/lib/libutee/tee_api.c:498
    2ef8:	9101c3fa 	add	x26, sp, #0x70
/home/build/bsp/optee_os/lib/libutee/tee_api.c:497
    2efc:	97fffd25 	bl	2390 <copy_gp11_param>
/home/build/bsp/optee_os/lib/libutee/tee_api.c:498
    2f00:	aa1a03e3 	mov	x3, x26
    2f04:	9101a3e2 	add	x2, sp, #0x68
    2f08:	910183e1 	add	x1, sp, #0x60
    2f0c:	aa1603e0 	mov	x0, x22
    2f10:	97fffe64 	bl	28a0 <map_tmp_param>
    2f14:	2a0003f3 	mov	w19, w0
/home/build/bsp/optee_os/lib/libutee/tee_api.c:499
    2f18:	35000240 	cbnz	w0, 2f60 <__GP11_TEE_InvokeTACommand+0x104>
/home/build/bsp/optee_os/lib/libutee/tee_api.c:501
    2f1c:	910173e4 	add	x4, sp, #0x5c
    2f20:	aa1603e3 	mov	x3, x22
    2f24:	2a1903e2 	mov	w2, w25
    2f28:	2a1803e1 	mov	w1, w24
    2f2c:	aa1703e0 	mov	x0, x23
    2f30:	97fffc62 	bl	20b8 <_utee_invoke_ta_command>
/home/build/bsp/optee_os/lib/libutee/tee_api.c:504
    2f34:	aa1603e2 	mov	x2, x22
/home/build/bsp/optee_os/lib/libutee/tee_api.c:501
    2f38:	2a0003f3 	mov	w19, w0
/home/build/bsp/optee_os/lib/libutee/tee_api.c:504
    2f3c:	aa1a03e1 	mov	x1, x26
    2f40:	aa1503e0 	mov	x0, x21
    2f44:	97fffdb9 	bl	2628 <update_out_gp11_param>
/home/build/bsp/optee_os/lib/libutee/tee_api.c:505
    2f48:	f94033e0 	ldr	x0, [sp, #96]
    2f4c:	b40000a0 	cbz	x0, 2f60 <__GP11_TEE_InvokeTACommand+0x104>
/home/build/bsp/optee_os/lib/libutee/tee_api.c:506
    2f50:	f94037e1 	ldr	x1, [sp, #104]
    2f54:	94000e3e 	bl	684c <tee_unmap>
/home/build/bsp/optee_os/lib/libutee/tee_api.c:508
    2f58:	34000040 	cbz	w0, 2f60 <__GP11_TEE_InvokeTACommand+0x104>
/home/build/bsp/optee_os/lib/libutee/tee_api.c:509
    2f5c:	9400098a 	bl	5584 <TEE_Panic>
/home/build/bsp/optee_os/lib/libutee/tee_api.c:514
    2f60:	b9405fe0 	ldr	w0, [sp, #92]
/home/build/bsp/optee_os/lib/libutee/tee_api.c:513
    2f64:	b4000054 	cbz	x20, 2f6c <__GP11_TEE_InvokeTACommand+0x110>
/home/build/bsp/optee_os/lib/libutee/tee_api.c:514
    2f68:	b9000280 	str	w0, [x20]
/home/build/bsp/optee_os/lib/libutee/tee_api.c:516
    2f6c:	7100101f 	cmp	w0, #0x4
    2f70:	54000140 	b.eq	2f98 <__GP11_TEE_InvokeTACommand+0x13c>  // b.none
/home/build/bsp/optee_os/lib/libutee/tee_api.c:519
    2f74:	7100027f 	cmp	w19, #0x0
    2f78:	129ffe60 	mov	w0, #0xffff000c            	// #-65524
    2f7c:	7a401264 	ccmp	w19, w0, #0x4, ne  // ne = any
    2f80:	540000c0 	b.eq	2f98 <__GP11_TEE_InvokeTACommand+0x13c>  // b.none
/home/build/bsp/optee_os/lib/libutee/tee_api.c:520
    2f84:	1299fb60 	mov	w0, #0xffff3024            	// #-53212
    2f88:	6b00027f 	cmp	w19, w0
    2f8c:	54000060 	b.eq	2f98 <__GP11_TEE_InvokeTACommand+0x13c>  // b.none
/home/build/bsp/optee_os/lib/libutee/tee_api.c:522
    2f90:	2a1303e0 	mov	w0, w19
    2f94:	9400097c 	bl	5584 <TEE_Panic>
/home/build/bsp/optee_os/lib/libutee/tee_api.c:525
    2f98:	90000086 	adrp	x6, 12000 <_DYNAMIC>
    2f9c:	f94098c6 	ldr	x6, [x6, #304]
    2fa0:	f9406fe0 	ldr	x0, [sp, #216]
    2fa4:	f94000c1 	ldr	x1, [x6]
    2fa8:	eb010000 	subs	x0, x0, x1
    2fac:	d2800001 	mov	x1, #0x0                   	// #0
    2fb0:	54000040 	b.eq	2fb8 <__GP11_TEE_InvokeTACommand+0x15c>  // b.none
    2fb4:	97fff5bf 	bl	6b0 <__stack_chk_fail>
    2fb8:	2a1303e0 	mov	w0, w19
    2fbc:	a94153f3 	ldp	x19, x20, [sp, #16]
    2fc0:	a9425bf5 	ldp	x21, x22, [sp, #32]
    2fc4:	a94363f7 	ldp	x23, x24, [sp, #48]
    2fc8:	a9446bf9 	ldp	x25, x26, [sp, #64]
    2fcc:	a8ce7bfd 	ldp	x29, x30, [sp], #224
    2fd0:	d65f03c0 	ret

0000000000002fd4 <__GP11_TEE_CheckMemoryAccessRights>:
__GP11_TEE_CheckMemoryAccessRights():
/home/build/bsp/optee_os/lib/libutee/tee_api.c:597
    2fd4:	2a0203e2 	mov	w2, w2
    2fd8:	17fffe10 	b	2818 <TEE_CheckMemoryAccessRights>

0000000000002fdc <TEE_SetInstanceData>:
TEE_SetInstanceData():
/home/build/bsp/optee_os/lib/libutee/tee_api.c:602
    2fdc:	90000081 	adrp	x1, 12000 <_DYNAMIC>
    2fe0:	f9034020 	str	x0, [x1, #1664]
/home/build/bsp/optee_os/lib/libutee/tee_api.c:603
    2fe4:	d65f03c0 	ret

0000000000002fe8 <TEE_GetInstanceData>:
TEE_GetInstanceData():
/home/build/bsp/optee_os/lib/libutee/tee_api.c:608
    2fe8:	90000080 	adrp	x0, 12000 <_DYNAMIC>
    2fec:	f9434000 	ldr	x0, [x0, #1664]
    2ff0:	d65f03c0 	ret

0000000000002ff4 <TEE_MemMove>:
TEE_MemMove():
/home/build/bsp/optee_os/lib/libutee/tee_api.c:612
    2ff4:	140027a6 	b	ce8c <memmove>

0000000000002ff8 <__GP11_TEE_MemMove>:
__GP11_TEE_MemMove():
/home/build/bsp/optee_os/lib/libutee/tee_api.c:617
    2ff8:	2a0203e2 	mov	w2, w2
    2ffc:	17fffffe 	b	2ff4 <TEE_MemMove>

0000000000003000 <TEE_MemCompare>:
TEE_MemCompare():
/home/build/bsp/optee_os/lib/libutee/tee_api.c:622
    3000:	1400283e 	b	d0f8 <consttime_memcmp>

0000000000003004 <__GP11_TEE_MemCompare>:
__GP11_TEE_MemCompare():
/home/build/bsp/optee_os/lib/libutee/tee_api.c:628
    3004:	2a0203e2 	mov	w2, w2
    3008:	17fffffe 	b	3000 <TEE_MemCompare>

000000000000300c <TEE_MemFill>:
TEE_MemFill():
/home/build/bsp/optee_os/lib/libutee/tee_api.c:633
    300c:	140027b7 	b	cee8 <memset>

0000000000003010 <__GP11_TEE_MemFill>:
__GP11_TEE_MemFill():
/home/build/bsp/optee_os/lib/libutee/tee_api.c:638
    3010:	2a0203e2 	mov	w2, w2
    3014:	17fffffe 	b	300c <TEE_MemFill>

0000000000003018 <TEE_GetSystemTime>:
TEE_GetSystemTime():
/home/build/bsp/optee_os/lib/libutee/tee_api.c:644
    3018:	a9bf7bfd 	stp	x29, x30, [sp, #-16]!
/home/build/bsp/optee_os/lib/libutee/tee_api.c:645
    301c:	aa0003e1 	mov	x1, x0
    3020:	d2800000 	mov	x0, #0x0                   	// #0
/home/build/bsp/optee_os/lib/libutee/tee_api.c:644
    3024:	910003fd 	mov	x29, sp
/home/build/bsp/optee_os/lib/libutee/tee_api.c:645
    3028:	97fffc36 	bl	2100 <_utee_get_time>
/home/build/bsp/optee_os/lib/libutee/tee_api.c:647
    302c:	34000060 	cbz	w0, 3038 <TEE_GetSystemTime+0x20>
/home/build/bsp/optee_os/lib/libutee/tee_api.c:649
    3030:	a8c17bfd 	ldp	x29, x30, [sp], #16
/home/build/bsp/optee_os/lib/libutee/tee_api.c:648
    3034:	14000954 	b	5584 <TEE_Panic>
/home/build/bsp/optee_os/lib/libutee/tee_api.c:649
    3038:	a8c17bfd 	ldp	x29, x30, [sp], #16
    303c:	d65f03c0 	ret

0000000000003040 <TEE_Wait>:
TEE_Wait():
/home/build/bsp/optee_os/lib/libutee/tee_api.c:652
    3040:	a9be7bfd 	stp	x29, x30, [sp, #-32]!
/home/build/bsp/optee_os/lib/libutee/tee_api.c:653
    3044:	2a0003e0 	mov	w0, w0
/home/build/bsp/optee_os/lib/libutee/tee_api.c:652
    3048:	910003fd 	mov	x29, sp
    304c:	f9000bf3 	str	x19, [sp, #16]
/home/build/bsp/optee_os/lib/libutee/tee_api.c:653
    3050:	97fffc29 	bl	20f4 <_utee_wait>
/home/build/bsp/optee_os/lib/libutee/tee_api.c:655
    3054:	7100001f 	cmp	w0, #0x0
    3058:	129fffa1 	mov	w1, #0xffff0002            	// #-65534
/home/build/bsp/optee_os/lib/libutee/tee_api.c:653
    305c:	2a0003f3 	mov	w19, w0
/home/build/bsp/optee_os/lib/libutee/tee_api.c:655
    3060:	7a411004 	ccmp	w0, w1, #0x4, ne  // ne = any
    3064:	54000040 	b.eq	306c <TEE_Wait+0x2c>  // b.none
/home/build/bsp/optee_os/lib/libutee/tee_api.c:656
    3068:	94000947 	bl	5584 <TEE_Panic>
/home/build/bsp/optee_os/lib/libutee/tee_api.c:659
    306c:	2a1303e0 	mov	w0, w19
    3070:	f9400bf3 	ldr	x19, [sp, #16]
    3074:	a8c27bfd 	ldp	x29, x30, [sp], #32
    3078:	d65f03c0 	ret

000000000000307c <TEE_GetTAPersistentTime>:
TEE_GetTAPersistentTime():
/home/build/bsp/optee_os/lib/libutee/tee_api.c:662
    307c:	a9be7bfd 	stp	x29, x30, [sp, #-32]!
/home/build/bsp/optee_os/lib/libutee/tee_api.c:665
    3080:	aa0003e1 	mov	x1, x0
/home/build/bsp/optee_os/lib/libutee/tee_api.c:662
    3084:	910003fd 	mov	x29, sp
    3088:	a90153f3 	stp	x19, x20, [sp, #16]
    308c:	aa0003f4 	mov	x20, x0
/home/build/bsp/optee_os/lib/libutee/tee_api.c:665
    3090:	d2800020 	mov	x0, #0x1                   	// #1
    3094:	97fffc1b 	bl	2100 <_utee_get_time>
/home/build/bsp/optee_os/lib/libutee/tee_api.c:667
    3098:	7100001f 	cmp	w0, #0x0
/home/build/bsp/optee_os/lib/libutee/tee_api.c:665
    309c:	2a0003f3 	mov	w19, w0
/home/build/bsp/optee_os/lib/libutee/tee_api.c:667
    30a0:	1a9f07e2 	cset	w2, ne  // ne = any
    30a4:	1299fe00 	mov	w0, #0xffff300f            	// #-53233
    30a8:	6b00027f 	cmp	w19, w0
    30ac:	1a9f07e0 	cset	w0, ne  // ne = any
    30b0:	6a000040 	ands	w0, w2, w0
    30b4:	54000040 	b.eq	30bc <TEE_GetTAPersistentTime+0x40>  // b.none
/home/build/bsp/optee_os/lib/libutee/tee_api.c:669
    30b8:	29007e9f 	stp	wzr, wzr, [x20]
/home/build/bsp/optee_os/lib/libutee/tee_api.c:673
    30bc:	11402e61 	add	w1, w19, #0xb, lsl #12
/home/build/bsp/optee_os/lib/libutee/tee_api.c:672
    30c0:	7100005f 	cmp	w2, #0x0
    30c4:	7a411820 	ccmp	w1, #0x1, #0x0, ne  // ne = any
    30c8:	540000e9 	b.ls	30e4 <TEE_GetTAPersistentTime+0x68>  // b.plast
/home/build/bsp/optee_os/lib/libutee/tee_api.c:674
    30cc:	340000c0 	cbz	w0, 30e4 <TEE_GetTAPersistentTime+0x68>
/home/build/bsp/optee_os/lib/libutee/tee_api.c:675
    30d0:	129ffe60 	mov	w0, #0xffff000c            	// #-65524
    30d4:	6b00027f 	cmp	w19, w0
    30d8:	54000060 	b.eq	30e4 <TEE_GetTAPersistentTime+0x68>  // b.none
/home/build/bsp/optee_os/lib/libutee/tee_api.c:677
    30dc:	2a1303e0 	mov	w0, w19
    30e0:	94000929 	bl	5584 <TEE_Panic>
/home/build/bsp/optee_os/lib/libutee/tee_api.c:680
    30e4:	2a1303e0 	mov	w0, w19
    30e8:	a94153f3 	ldp	x19, x20, [sp, #16]
    30ec:	a8c27bfd 	ldp	x29, x30, [sp], #32
    30f0:	d65f03c0 	ret

00000000000030f4 <TEE_SetTAPersistentTime>:
TEE_SetTAPersistentTime():
/home/build/bsp/optee_os/lib/libutee/tee_api.c:683
    30f4:	a9be7bfd 	stp	x29, x30, [sp, #-32]!
    30f8:	910003fd 	mov	x29, sp
    30fc:	f9000bf3 	str	x19, [sp, #16]
/home/build/bsp/optee_os/lib/libutee/tee_api.c:686
    3100:	97fffc03 	bl	210c <_utee_set_ta_time>
/home/build/bsp/optee_os/lib/libutee/tee_api.c:688
    3104:	7100001f 	cmp	w0, #0x0
    3108:	129ffe61 	mov	w1, #0xffff000c            	// #-65524
/home/build/bsp/optee_os/lib/libutee/tee_api.c:686
    310c:	2a0003f3 	mov	w19, w0
/home/build/bsp/optee_os/lib/libutee/tee_api.c:688
    3110:	7a411004 	ccmp	w0, w1, #0x4, ne  // ne = any
