
67f7d1a5-dba8-48bc-9e79-79aa289e7d74.elf:     file format elf64-littleaarch64
67f7d1a5-dba8-48bc-9e79-79aa289e7d74.elf
architecture: aarch64, flags 0x00000150:
HAS_SYMS, DYNAMIC, D_PAGED
start address 0x000000000000034c

Program Header:
    LOAD off    0x0000000000001000 vaddr 0x0000000000000000 paddr 0x0000000000000000 align 2**12
         filesz 0x0000000000011838 memsz 0x0000000000011838 flags r-x
    LOAD off    0x0000000000013000 vaddr 0x0000000000012000 paddr 0x0000000000012000 align 2**12
         filesz 0x000000000000060c memsz 0x000000000000beb0 flags rw-
 DYNAMIC off    0x0000000000013000 vaddr 0x0000000000012000 paddr 0x0000000000012000 align 2**3
         filesz 0x0000000000000110 memsz 0x0000000000000110 flags rw-
   STACK off    0x0000000000000000 vaddr 0x0000000000000000 paddr 0x0000000000000000 align 2**4
         filesz 0x0000000000000000 memsz 0x0000000000000000 flags rw-

Dynamic Section:
  HASH                 0x00000000000114c0
  GNU_HASH             0x0000000000011388
  STRTAB               0x0000000000011488
  SYMTAB               0x00000000000113e0
  STRSZ                0x0000000000000036
  SYMENT               0x0000000000000018
  DEBUG                0x0000000000000000
  RELA                 0x00000000000114f0
  RELASZ               0x0000000000000558
  RELAENT              0x0000000000000018
  FLAGS_1              0x0000000008000000
  RELACOUNT            0x0000000000000023
private flags = 0x0:

Sections:
Idx Name          Size      VMA               LMA               File off  Algn
  0 .text         0000d168  0000000000000000  0000000000000000  00001000  2**4
                  CONTENTS, ALLOC, LOAD, READONLY, CODE
  1 .eh_frame     00002e2c  000000000000d168  000000000000d168  0000e168  2**3
                  CONTENTS, ALLOC, LOAD, READONLY, DATA
  2 .rodata       000013f0  000000000000ff98  000000000000ff98  00010f98  2**3
                  CONTENTS, ALLOC, LOAD, READONLY, DATA
  3 .gnu.hash     00000034  0000000000011388  0000000000011388  00012388  2**3
                  CONTENTS, ALLOC, LOAD, READONLY, DATA
  4 .ta_head      00000020  00000000000113c0  00000000000113c0  000123c0  2**3
                  CONTENTS, ALLOC, LOAD, READONLY, DATA
  5 .dynsym       000000a8  00000000000113e0  00000000000113e0  000123e0  2**3
                  CONTENTS, ALLOC, LOAD, READONLY, DATA
  6 .dynstr       00000036  0000000000011488  0000000000011488  00012488  2**0
                  CONTENTS, ALLOC, LOAD, READONLY, DATA
  7 .hash         00000030  00000000000114c0  00000000000114c0  000124c0  2**3
                  CONTENTS, ALLOC, LOAD, READONLY, DATA
  8 .rela.dyn     00000348  00000000000114f0  00000000000114f0  000124f0  2**3
                  CONTENTS, ALLOC, LOAD, READONLY, DATA
  9 .dynamic      00000110  0000000000012000  0000000000012000  00013000  2**3
                  CONTENTS, ALLOC, LOAD, DATA
 10 .got          000000d0  0000000000012110  0000000000012110  00013110  2**3
                  CONTENTS, ALLOC, LOAD, DATA
 11 .rela.got     00000210  00000000000121e0  00000000000121e0  000131e0  2**3
                  CONTENTS, ALLOC, LOAD, READONLY, DATA
 12 .data         0000021c  00000000000123f0  00000000000123f0  000133f0  2**3
                  CONTENTS, ALLOC, LOAD, DATA
 13 .bss          0000b8a0  0000000000012610  0000000000012610  0001360c  2**3
                  ALLOC
 14 .debug_info   0001bb13  0000000000000000  0000000000000000  0001360c  2**0
                  CONTENTS, READONLY, DEBUGGING, OCTETS
 15 .debug_abbrev 0000493e  0000000000000000  0000000000000000  0002f11f  2**0
                  CONTENTS, READONLY, DEBUGGING, OCTETS
 16 .debug_loclists 0000fdb0  0000000000000000  0000000000000000  00033a5d  2**0
                  CONTENTS, READONLY, DEBUGGING, OCTETS
 17 .debug_aranges 000009b0  0000000000000000  0000000000000000  00043810  2**4
                  CONTENTS, READONLY, DEBUGGING, OCTETS
 18 .debug_rnglists 000009a9  0000000000000000  0000000000000000  000441c0  2**0
                  CONTENTS, READONLY, DEBUGGING, OCTETS
 19 .debug_macro  0001ad4c  0000000000000000  0000000000000000  00044b69  2**0
                  CONTENTS, READONLY, DEBUGGING, OCTETS
 20 .debug_line   0000bf21  0000000000000000  0000000000000000  0005f8b5  2**0
                  CONTENTS, READONLY, DEBUGGING, OCTETS
 21 .debug_str    0001c281  0000000000000000  0000000000000000  0006b7d6  2**0
                  CONTENTS, READONLY, DEBUGGING, OCTETS
 22 .debug_line_str 00000a78  0000000000000000  0000000000000000  00087a57  2**0
                  CONTENTS, READONLY, DEBUGGING, OCTETS
 23 .comment      00000033  0000000000000000  0000000000000000  000884cf  2**0
                  CONTENTS, READONLY
SYMBOL TABLE:
0000000000000000 l    d  .text	0000000000000000 .text
000000000000d168 l    d  .eh_frame	0000000000000000 .eh_frame
000000000000ff98 l    d  .rodata	0000000000000000 .rodata
0000000000011388 l    d  .gnu.hash	0000000000000000 .gnu.hash
00000000000113c0 l    d  .ta_head	0000000000000000 .ta_head
00000000000113e0 l    d  .dynsym	0000000000000000 .dynsym
0000000000011488 l    d  .dynstr	0000000000000000 .dynstr
00000000000114c0 l    d  .hash	0000000000000000 .hash
00000000000114f0 l    d  .rela.dyn	0000000000000000 .rela.dyn
0000000000012000 l    d  .dynamic	0000000000000000 .dynamic
0000000000012110 l    d  .got	0000000000000000 .got
00000000000121e0 l    d  .rela.got	0000000000000000 .rela.got
00000000000123f0 l    d  .data	0000000000000000 .data
0000000000012610 l    d  .bss	0000000000000000 .bss
0000000000000000 l    d  .debug_info	0000000000000000 .debug_info
0000000000000000 l    d  .debug_abbrev	0000000000000000 .debug_abbrev
0000000000000000 l    d  .debug_loclists	0000000000000000 .debug_loclists
0000000000000000 l    d  .debug_aranges	0000000000000000 .debug_aranges
0000000000000000 l    d  .debug_rnglists	0000000000000000 .debug_rnglists
0000000000000000 l    d  .debug_macro	0000000000000000 .debug_macro
0000000000000000 l    d  .debug_line	0000000000000000 .debug_line
0000000000000000 l    d  .debug_str	0000000000000000 .debug_str
0000000000000000 l    d  .debug_line_str	0000000000000000 .debug_line_str
0000000000000000 l    d  .comment	0000000000000000 .comment
0000000000000000 l    df *ABS*	0000000000000000 memcpy.c
0000000000000000 l    df *ABS*	0000000000000000 test_performance_ta.c
00000000000104c8 l     O .rodata	0000000000000014 __func__.6
00000000000104dc l     O .rodata	0000000000000015 __func__.5
00000000000104f1 l     O .rodata	0000000000000020 __func__.4
0000000000010511 l     O .rodata	000000000000001a __func__.3
000000000001052b l     O .rodata	0000000000000022 __func__.2
000000000001054d l     O .rodata	000000000000000a __func__.1
0000000000010557 l     O .rodata	000000000000000a __func__.0
0000000000000000 l    df *ABS*	0000000000000000 user_ta_header.c
000000000000ffa0 l     O .rodata	0000000000000004 __compound_literal.7
000000000000ffa4 l     O .rodata	0000000000000001 __compound_literal.6
000000000000ffa8 l     O .rodata	0000000000000004 __compound_literal.5
000000000000ffac l     O .rodata	0000000000000004 __compound_literal.4
000000000000ffb0 l     O .rodata	0000000000000004 __compound_literal.3
000000000000ffb4 l     O .rodata	0000000000000001 __compound_literal.2
000000000000ffb5 l     O .rodata	0000000000000001 __compound_literal.1
000000000000ffb6 l     O .rodata	0000000000000001 __compound_literal.0
0000000000000000 l    df *ABS*	0000000000000000 trace.c
00000000000106da l     O .rodata	0000000000000005 lvl_strs.0
0000000000000000 l    df *ABS*	0000000000000000 stack_check.c
0000000000000000 l    df *ABS*	0000000000000000 snprintk.c
00000000000008cc l     F .text	0000000000000bc4 kprintf.constprop.0
000000000001007a l     O .rodata	0000000000000011 hexdigits
000000000001008b l     O .rodata	0000000000000011 HEXDIGITS
0000000000000000 l    df *ABS*	0000000000000000 memchr.c
0000000000000000 l    df *ABS*	0000000000000000 strlen.c
0000000000000000 l    df *ABS*	0000000000000000 trace_ext.c
0000000000000000 l    df *ABS*	0000000000000000 user_ta_entry.c
0000000000001704 l     F .text	00000000000000b0 _get_fn_array
00000000000017b4 l     F .text	0000000000000090 _fini_iterate_phdr_cb
0000000000001844 l     F .text	0000000000000028 ta_header_get_session
000000000000186c l     F .text	0000000000000070 to_utee_params
00000000000018dc l     F .text	000000000000005c from_utee_params
0000000000001938 l     F .text	0000000000000094 _init_iterate_phdr_cb
0000000000001b28 l     F .text	0000000000000094 ta_header_remove_session
000000000001077e l     O .rodata	0000000000000016 __func__.0
0000000000012610 l     O .bss	0000000000000008 _num_mod_init
0000000000012618 l     O .bss	0000000000000001 init_done
0000000000012500 l     O .data	0000000000000010 ta_sessions
0000000000012510 l     O .data	0000000000000010 __phdr_info_head
0000000000000000 l    df *ABS*	0000000000000000 user_ta_entry_compat.c
0000000000001e44 l     F .text	0000000000000064 to_gp11_param
0000000000001ea8 l     F .text	0000000000000064 from_gp11_param
0000000000000000 l    df *ABS*	0000000000000000 utee_syscalls_a64.o
0000000000000000 l    df *ABS*	0000000000000000 abort.c
0000000000000000 l    df *ABS*	0000000000000000 tee_api.c
0000000000002324 l     F .text	000000000000006c copy_param
0000000000002390 l     F .text	0000000000000070 copy_gp11_param
0000000000002400 l     F .text	0000000000000098 check_mem_access_rights_params
0000000000002498 l     F .text	0000000000000044 buf_overlaps_no_share_heap
00000000000024dc l     F .text	00000000000000a8 check_invoke_param
0000000000002584 l     F .text	00000000000000a4 update_out_param
0000000000002628 l     F .text	00000000000000a8 update_out_gp11_param
00000000000028a0 l     F .text	000000000000019c map_tmp_param
0000000000012680 l     O .bss	0000000000000008 tee_api_instance_data
000000000000ffd8 l     O .rodata	000000000000000b __func__.0
0000000000000000 l    df *ABS*	0000000000000000 tee_api_arith_mpi.c
0000000000003400 l     F .text	0000000000000030 api_panic
0000000000003430 l     F .text	0000000000000030 mpi_panic
0000000000003460 l     F .text	0000000000000098 get_mpi
00000000000034f8 l     F .text	0000000000000064 copy_mpi_to_bigint
000000000000355c l     F .text	000000000000014c bigint_binary
00000000000036a8 l     F .text	0000000000000020 mpi_is_odd
00000000000036c8 l     F .text	0000000000000028 rng_read
00000000000036f0 l     F .text	0000000000000574 mpi_egcd
0000000000012690 l     O .bss	0000000000003800 data.18
000000000000419c l     F .text	00000000000001d0 bigint_binary_mod
0000000000010875 l     O .rodata	0000000000000008 __func__.15
000000000001087d l     O .rodata	000000000000000e __func__.11
000000000001088b l     O .rodata	0000000000000009 __func__.2
0000000000010894 l     O .rodata	0000000000000012 __func__.17
00000000000108a6 l     O .rodata	000000000000000f __func__.16
00000000000108b5 l     O .rodata	000000000000001f __func__.14
00000000000108d4 l     O .rodata	0000000000000019 __func__.13
00000000000108ed l     O .rodata	0000000000000012 __func__.7
00000000000108ff l     O .rodata	0000000000000015 __func__.12
0000000000010914 l     O .rodata	000000000000000e __func__.10
0000000000010922 l     O .rodata	000000000000000e __func__.9
0000000000010930 l     O .rodata	000000000000000e __func__.8
000000000001093e l     O .rodata	0000000000000011 __func__.6
000000000001094f l     O .rodata	0000000000000018 __func__.5
0000000000010967 l     O .rodata	0000000000000011 __func__.4
0000000000010978 l     O .rodata	000000000000001d __func__.3
0000000000010995 l     O .rodata	0000000000000019 __func__.1
00000000000109ae l     O .rodata	0000000000000015 __func__.0
0000000000000000 l    df *ABS*	0000000000000000 tee_api_panic.c
0000000000005568 l     F .text	000000000000001c check_access
000000000000558c l     F .text	0000000000000010 check_res.constprop.0
000000000000571c l     F .text	0000000000000024 __utee_check_attr_in_annotation.localalias
0000000000000000 l    df *ABS*	0000000000000000 tee_api_property.c
0000000000005764 l     F .text	000000000000006c propset_get
00000000000057d0 l     F .text	000000000000002c is_propset_pseudo_handle
00000000000057fc l     F .text	0000000000000140 propget_get_ext_prop
000000000000593c l     F .text	00000000000001f8 propget_get_property
00000000000100ac l     O .rodata	0000000000000004 __compound_literal.3
00000000000100b0 l     O .rodata	0000000000000004 __compound_literal.2
00000000000100b4 l     O .rodata	0000000000000004 __compound_literal.1
00000000000100b8 l     O .rodata	0000000000000004 __compound_literal.0
0000000000000000 l    df *ABS*	0000000000000000 tee_system_pta.c
0000000000006734 l     F .text	0000000000000084 invoke_system_pta
00000000000100bc l     O .rodata	0000000000000010 uuid.2
00000000000100cc l     O .rodata	000000000000000a __func__.1
00000000000100d6 l     O .rodata	0000000000000017 __func__.0
0000000000015e90 l     O .bss	0000000000000008 sess.3
0000000000000000 l    df *ABS*	0000000000000000 tcb.c
0000000000010b25 l     O .rodata	0000000000000010 __func__.1
0000000000010b35 l     O .rodata	0000000000000010 __func__.0
0000000000015e98 l     O .bss	0000000000000008 _tls_size
0000000000015ea0 l     O .bss	0000000000000008 _tcb
0000000000000000 l    df *ABS*	0000000000000000 assert.c
0000000000000000 l    df *ABS*	0000000000000000 base64.c
00000000000100f4 l     O .rodata	0000000000000041 base64_table
0000000000000000 l    df *ABS*	0000000000000000 bignum.c
0000000000006fe4 l     F .text	0000000000000064 mpi_get_digit
0000000000007048 l     F .text	0000000000000068 mpi_select
00000000000070b0 l     F .text	000000000000001c mpi_montmul.isra.0
00000000000070cc l     F .text	0000000000000078 mpi_montred
00000000000072d4 l     F .text	000000000000006c mbedtls_mpi_resize_clear
0000000000007d50 l     F .text	00000000000000a4 add_sub_mpi
0000000000008ccc l     F .text	00000000000000c4 mpi_check_small_factors
00000000000096a0 l     F .text	00000000000002a4 mpi_miller_rabin
0000000000010138 l     O .rodata	00000000000002a0 small_prime
00000000000103d8 l     O .rodata	0000000000000024 gcd_pairs
0000000000000000 l    df *ABS*	0000000000000000 bignum_core.c
0000000000000000 l    df *ABS*	0000000000000000 constant_time.c
000000000000b4f0 l     F .text	0000000000000020 mbedtls_ct_uchar_mask_of_range
0000000000000000 l    df *ABS*	0000000000000000 platform_util.c
000000000000bcd0 l     F .text	000000000000005c mbedtls_get_unaligned_uint32.localalias
000000000000bd2c l     F .text	0000000000000020 mbedtls_put_unaligned_uint32.localalias
0000000000012580 l     O .data	0000000000000008 memset_func
0000000000000000 l    df *ABS*	0000000000000000 bget_malloc.c
000000000000be80 l     F .text	0000000000000010 _assert_trap
000000000000be90 l     F .text	0000000000000028 bget_buf_size.part.0
000000000000beb8 l     F .text	0000000000000038 raw_malloc_return_hook.constprop.0
000000000001127b l     O .rodata	000000000000000e __func__.2
0000000000011289 l     O .rodata	0000000000000005 __func__.8
000000000001128e l     O .rodata	0000000000000006 __func__.7
0000000000011294 l     O .rodata	0000000000000005 __func__.5
0000000000011299 l     O .rodata	0000000000000006 __func__.6
000000000001129f l     O .rodata	0000000000000006 __func__.4
00000000000112a5 l     O .rodata	0000000000000007 __func__.3
00000000000112ac l     O .rodata	0000000000000014 __func__.1
00000000000112c0 l     O .rodata	0000000000000013 __func__.0
0000000000012588 l     O .data	0000000000000080 malloc_ctx
0000000000000000 l    df *ABS*	0000000000000000 snprintf.c
0000000000000000 l    df *ABS*	0000000000000000 memmove.c
0000000000000000 l    df *ABS*	0000000000000000 memset.c
0000000000000000 l    df *ABS*	0000000000000000 strcmp.c
0000000000000000 l    df *ABS*	0000000000000000 strlcpy.c
0000000000000000 l    df *ABS*	0000000000000000 mempool.c
000000000001135c l     O .rodata	0000000000000013 __func__.2
000000000001136f l     O .rodata	000000000000000b __func__.1
000000000001137a l     O .rodata	000000000000000e __func__.0
0000000000000000 l    df *ABS*	0000000000000000 consttime_memcmp.c
0000000000000000 l    df *ABS*	0000000000000000 
0000000000012000 l     O *ABS*	0000000000000000 _DYNAMIC
0000000000012128 l     O *ABS*	0000000000000000 _GLOBAL_OFFSET_TABLE_
0000000000001694 g     F .text	0000000000000070 putchar
0000000000003de4 g     F .text	0000000000000008 __GP11_TEE_BigIntConvertFromOctetString
000000000000abcc g     F .text	0000000000000070 mbedtls_mpi_core_add_if
0000000000005344 g     F .text	0000000000000004 TEE_BigIntConvertToFMM
0000000000004b98 g     F .text	000000000000000c TEE_BigIntSquareMod
000000000000436c g     F .text	00000000000001a0 TEE_BigIntShiftRight
000000000000ca34 g     F .text	00000000000000d4 raw_malloc_add_pool
0000000000006908 g     F .text	00000000000000e8 tee_invoke_supp_plugin
000000000000afe0 g     F .text	00000000000000b0 mbedtls_mpi_core_fill_random
00000000000071ec g     F .text	00000000000000e8 mbedtls_mpi_grow
0000000000006498 g     F .text	0000000000000130 __GP11_TEE_GetPropertyName
00000000000032ec g     F .text	00000000000000f4 TEE_Realloc
000000000000aab4 g     F .text	00000000000000dc mbedtls_mpi_core_shift_r
0000000000005744 g     F .text	0000000000000020 __utee_check_inout_annotation
000000000000c7fc g     F .text	0000000000000010 raw_free
0000000000001554 g     F .text	0000000000000100 printf
0000000000004710 g     F .text	000000000000002c TEE_BigIntAbs
0000000000002070 g     F .text	000000000000000c _utee_log
0000000000002cd8 g     F .text	0000000000000184 TEE_InvokeTACommand
000000000000559c g     F .text	000000000000004c __utee_check_outbuf_annotation
000000000000a9fc g     F .text	00000000000000b8 mbedtls_mpi_core_write_be
0000000000007158 g     F .text	0000000000000028 mbedtls_mpi_init_mempool
00000000000021f0 g     F .text	000000000000000c _utee_cryp_random_number_generate
0000000000007810 g     F .text	0000000000000010 mbedtls_mpi_write_binary
00000000000007a4 g     F .text	0000000000000058 vsnprintk
0000000000007e7c g     F .text	0000000000000078 mbedtls_mpi_sub_int
000000000000ce8c g     F .text	000000000000005c memmove
000000000000cd60 g     F .text	00000000000000d4 snprintf
000000000000411c g     F .text	0000000000000080 TEE_BigIntCmpS32
0000000000002ff8 g     F .text	0000000000000008 __GP11_TEE_MemMove
00000000000124f8 g     O .data	0000000000000008 __stack_chk_guard
000000000000ba60 g     F .text	0000000000000204 mbedtls_ct_rsaes_pkcs1_v15_unpadding
0000000000007340 g     F .text	0000000000000118 mbedtls_mpi_shrink
0000000000003010 g     F .text	0000000000000008 __GP11_TEE_MemFill
000000000000473c g     F .text	000000000000000c TEE_BigIntAdd
0000000000002190 g     F .text	000000000000000c _utee_cryp_obj_restrict_usage
000000000000ffc0 g     O .rodata	0000000000000008 ta_heap_size
0000000000002238 g     F .text	000000000000000c _utee_asymm_operate
0000000000006d94 g     F .text	0000000000000018 _base64_enc_len
0000000000008164 g     F .text	000000000000020c mbedtls_mpi_read_string
000000000000ac80 g     F .text	00000000000001cc mbedtls_mpi_core_mla
0000000000004754 g     F .text	00000000000000e4 TEE_BigIntNeg
000000000000228c g     F .text	000000000000000c _utee_storage_free_enum
0000000000000000 g       .text	0000000000000000 __text_start
0000000000006654 g     F .text	00000000000000e0 TEE_GetNextProperty
0000000000007930 g     F .text	0000000000000030 mbedtls_mpi_shift_r
000000000000cd4c g     F .text	0000000000000014 malloc_buffer_overlaps_heap
000000000000213c g     F .text	000000000000000c _utee_hash_init
0000000000004b80 g     F .text	000000000000000c TEE_BigIntSubMod
0000000000009f14 g     F .text	000000000000034c mbedtls_mpi_gen_prime
00000000000061c4 g     F .text	000000000000009c TEE_GetPropertyAsBinaryBlock
0000000000007618 g     F .text	000000000000002c mbedtls_mpi_get_bit
000000000000b090 g     F .text	00000000000000f8 mbedtls_mpi_core_random
000000000000ffb8 g     O .rodata	0000000000000008 __ta_no_share_heap_size
00000000000077a4 g     F .text	000000000000005c mbedtls_mpi_read_binary
00000000000005c8 g     F .text	00000000000000e4 trace_printf
0000000000008db8 g     F .text	000000000000000c mbedtls_mpi_montmul
00000000000022f8 g     F .text	000000000000000c _utee_cache_operation
0000000000000000 g     F .text	00000000000000ec memcpy
000000000000b1b0 g     F .text	0000000000000260 mbedtls_mpi_core_exp_mod
0000000000005348 g     F .text	00000000000000d4 TEE_BigIntConvertFromFMM
0000000000005584 g     F .text	0000000000000008 TEE_Panic
0000000000001654 g     F .text	0000000000000040 puts
000000000000541c g     F .text	000000000000014c TEE_BigIntComputeFMM
000000000000cd14 g     F .text	0000000000000010 malloc_get_stats
0000000000003138 g     F .text	0000000000000028 TEE_GetREETime
000000000000ccd8 g     F .text	000000000000003c raw_malloc_get_stats
00000000000123f0 g     O .data	0000000000000108 ta_props
0000000000003284 g     F .text	0000000000000008 __GP11_TEE_Malloc
0000000000002b90 g     F .text	0000000000000148 __GP11_TEE_OpenTASession
0000000000005634 g     F .text	0000000000000030 __utee_check_instring_annotation
000000000000c970 g     F .text	0000000000000018 malloc
0000000000006484 g     F .text	0000000000000004 TEE_FreePropertyEnumerator
000000000000b554 g     F .text	0000000000000010 mbedtls_ct_mpi_uint_mask
000000000000ce34 g     F .text	0000000000000058 vsnprintf
0000000000012608 g     O .data	0000000000000004 trace_level
0000000000004084 g     F .text	0000000000000098 TEE_BigIntCmp
000000000000ff98 g     O .rodata	0000000000000008 ta_num_props
000000000000c51c g     F .text	00000000000000d0 bgetr
0000000000002250 g     F .text	000000000000000c _utee_storage_obj_open
0000000000003004 g     F .text	0000000000000008 __GP11_TEE_MemCompare
000000000000d0dc g     F .text	000000000000001c mempool_free
0000000000002148 g     F .text	000000000000000c _utee_hash_update
0000000000003dec g     F .text	00000000000000c8 TEE_BigIntConvertToOctetString
0000000000007724 g     F .text	0000000000000008 mbedtls_mpi_bitlen
0000000000004514 g     F .text	0000000000000084 TEE_BigIntGetBit
000000000000ffc8 g     O .rodata	0000000000000003 trace_ext_prefix
00000000000022b0 g     F .text	000000000000000c _utee_storage_next_enum
000000000000c7ec g     F .text	0000000000000010 raw_malloc
000000000000c1d0 g     F .text	0000000000000088 bgetz
000000000000b564 g     F .text	0000000000000018 mbedtls_ct_size_bool_eq
0000000000002fe8 g     F .text	000000000000000c TEE_GetInstanceData
0000000000003040 g     F .text	000000000000003c TEE_Wait
0000000000007ef4 g     F .text	00000000000001bc mbedtls_mpi_mul_mpi
000000000000450c g     F .text	0000000000000008 __GP11_TEE_BigIntShiftRight
000000000000bda8 g     F .text	0000000000000020 mbedtls_put_unaligned_uint64
00000000000033f0 g     F .text	0000000000000008 TEE_CacheFlush
00000000000003ac g     F .text	000000000000021c trace_vprintf
0000000000000120 g     F .text	0000000000000024 TA_DestroyEntryPoint
0000000000007144 g     F .text	0000000000000014 mbedtls_mpi_init
0000000000002268 g     F .text	000000000000000c _utee_storage_obj_del
00000000000076d0 g     F .text	0000000000000054 mbedtls_mpi_lsb
0000000000006d3c g     F .text	0000000000000044 _assert_log
0000000000002124 g     F .text	000000000000000c _utee_cryp_state_copy
0000000000005324 g     F .text	0000000000000008 TEE_BigIntFMMContextSizeInU32
000000000000684c g     F .text	00000000000000bc tee_unmap
000000000000b598 g     F .text	0000000000000030 mbedtls_ct_uint_if
0000000000003c64 g     F .text	0000000000000050 _TEE_MathAPI_Init
000000000000bdc8 g     F .text	0000000000000098 mbedtls_xor
00000000000069f0 g     F .text	0000000000000240 __utee_tcb_init
0000000000007df4 g     F .text	0000000000000008 mbedtls_mpi_add_mpi
0000000000002304 g     F .text	0000000000000020 abort
0000000000009944 g     F .text	0000000000000094 mbedtls_mpi_random
00000000000006b0 g     F .text	0000000000000030 __stack_chk_fail
00000000000056fc g     F .text	0000000000000020 __utee_check_out_annotation
0000000000015eb0 g     O .bss	0000000000008000 ta_heap
0000000000004ba4 g     F .text	0000000000000150 TEE_BigIntInvMod
00000000000019cc g     F .text	000000000000014c __utee_call_elf_init_fn
00000000000001b4 g     F .text	0000000000000024 TA_CloseSessionEntryPoint
00000000000001d8 g     F .text	0000000000000174 __GP11_TA_InvokeCommandEntryPoint
00000000000020ac g     F .text	000000000000000c _utee_close_ta_session
00000000000052ec g     F .text	0000000000000008 __GP11_TEE_BigIntInitFMMContext
000000000000b440 g     F .text	0000000000000028 mbedtls_mpi_core_check_zero_ct
0000000000007dfc g     F .text	0000000000000008 mbedtls_mpi_sub_mpi
000000000000d0f8 g     F .text	0000000000000070 consttime_memcmp
0000000000002064 g     F .text	000000000000000c _utee_return
000000000000207c g     F .text	000000000000000c __utee_panic
000000000000b510 g     F .text	0000000000000034 mbedtls_ct_memcmp
0000000000006c30 g     F .text	000000000000001c __tls_get_addr
0000000000000374 g     F .text	000000000000000c TA_InvokeCommandEntryPoint
0000000000001b18 g     F .text	0000000000000010 __utee_call_elf_fini_fn
000000000000ca00 g     F .text	0000000000000010 free_wipe
000000000000d028 g     F .text	0000000000000064 mempool_alloc
0000000000002058 g     F .text	000000000000000c _utee_panic
000000000000ca18 g     F .text	000000000000001c raw_malloc_init_ctx
000000000000d08c g     F .text	0000000000000050 mempool_calloc
00000000000022ec g     F .text	000000000000000c _utee_cryp_obj_generate_key
00000000000022d4 g     F .text	000000000000000c _utee_storage_obj_trunc
0000000000012520 g     O .data	0000000000000060 tee_props
00000000000020dc g     F .text	000000000000000c _utee_unmask_cancellation
0000000000006430 g     F .text	000000000000000c TEE_ResetPropertyEnumerator
000000000000c988 g     F .text	000000000000001c calloc
0000000000003160 g     F .text	0000000000000124 TEE_Malloc
0000000000002818 g     F .text	0000000000000088 TEE_CheckMemoryAccessRights
000000000000bcd0 g     F .text	000000000000005c mbedtls_get_unaligned_uint32
0000000000006260 g     F .text	00000000000000e8 TEE_GetPropertyAsUUID
0000000000002088 g     F .text	000000000000000c _utee_get_property
0000000000004610 g     F .text	00000000000000b0 TEE_BigIntSetBit
00000000000075b0 g     F .text	0000000000000068 mbedtls_mpi_lset
0000000000000368 g     F .text	000000000000000c TA_OpenSessionEntryPoint
000000000000b410 g     F .text	0000000000000030 mbedtls_mpi_core_sub_int
0000000000000144 g     F .text	0000000000000070 __GP11_TA_OpenSessionEntryPoint
0000000000006c4c g     F .text	00000000000000f0 dl_iterate_phdr
000000000001deb0 g       .bss	0000000000000000 __ftrace_buf_end
0000000000012678 g     O .bss	0000000000000004 ta_param_types
0000000000008890 g     F .text	0000000000000078 mbedtls_mpi_div_int
000000000000a950 g     F .text	00000000000000ac mbedtls_mpi_core_write_le
0000000000009e30 g     F .text	00000000000000e4 mbedtls_mpi_is_prime_ext
0000000000005244 g     F .text	0000000000000098 TEE_BigIntIsProbablePrime
000000000000bd2c g     F .text	0000000000000020 mbedtls_put_unaligned_uint32
00000000000080b0 g     F .text	00000000000000b4 mbedtls_mpi_mul_int
0000000000008dc8 g     F .text	0000000000000698 mbedtls_mpi_exp_mod
000000000000b774 g     F .text	00000000000000bc mbedtls_mpi_safe_cond_assign
0000000000005b34 g     F .text	0000000000000264 TEE_GetPropertyAsString
000000000000b968 g     F .text	00000000000000f8 mbedtls_mpi_lt_mpi_ct
0000000000003cb4 g     F .text	0000000000000060 TEE_BigIntInit
0000000000003eb4 g     F .text	0000000000000064 __GP11_TEE_BigIntConvertToOctetString
00000000000046c0 g     F .text	0000000000000050 TEE_BigIntAssign
0000000000005664 g     F .text	000000000000004c __utee_check_outstring_annotation
0000000000002ff4 g     F .text	0000000000000004 TEE_MemMove
000000000000be60 g     F .text	0000000000000020 mbedtls_platform_zeroize
0000000000003d1c g     F .text	00000000000000c8 TEE_BigIntConvertFromOctetString
000000000000222c g     F .text	000000000000000c _utee_authenc_dec_final
0000000000007960 g     F .text	000000000000009c mbedtls_mpi_cmp_abs
00000000000022bc g     F .text	000000000000000c _utee_storage_obj_read
00000000000014dc g     F .text	000000000000002c memchr
0000000000002758 g     F .text	0000000000000060 TEE_UnmaskCancellation
000000000000a260 g     F .text	0000000000000420 mbedtls_mpi_self_test
00000000000055e8 g     F .text	000000000000004c __utee_check_gp11_outbuf_annotation
00000000000022e0 g     F .text	000000000000000c _utee_storage_obj_seek
000000000000a7b8 g     F .text	000000000000007c mbedtls_mpi_core_cond_swap
00000000000020d0 g     F .text	000000000000000c _utee_check_access_rights
000000000000a8c0 g     F .text	0000000000000090 mbedtls_mpi_core_read_be
0000000000002e5c g     F .text	0000000000000178 __GP11_TEE_InvokeTACommand
0000000000007acc g     F .text	0000000000000078 mbedtls_mpi_cmp_int
0000000000006ec0 g     F .text	0000000000000124 _base64_dec
0000000000002298 g     F .text	000000000000000c _utee_storage_reset_enum
000000000000b6b8 g     F .text	00000000000000bc mbedtls_ct_base64_dec_value
000000000000571c g     F .text	0000000000000024 __utee_check_attr_in_annotation
0000000000002214 g     F .text	000000000000000c _utee_authenc_update_payload
0000000000004b08 g     F .text	000000000000006c TEE_BigIntMod
00000000000089bc g     F .text	000000000000009c mbedtls_mpi_mod_int
0000000000007748 g     F .text	000000000000005c mbedtls_mpi_read_binary_le
0000000000004954 g     F .text	00000000000001b4 TEE_BigIntDiv
00000000000021a8 g     F .text	000000000000000c _utee_cryp_obj_alloc
000000000001deb0 g       .bss	0000000000000000 __ftrace_buf_start
000000000000cf28 g     F .text	0000000000000038 strlcpy
000000000000b604 g     F .text	00000000000000b4 mbedtls_ct_base64_enc_char
0000000000007458 g     F .text	00000000000000cc mbedtls_mpi_copy
000000000000a680 g     F .text	0000000000000028 mbedtls_mpi_core_clz
000000000000c750 g     F .text	0000000000000018 malloc_reset_stats
0000000000006348 g     F .text	00000000000000e8 TEE_GetPropertyAsIdentity
0000000000001490 g     F .text	000000000000004c __vsprintf
0000000000005ff4 g     F .text	00000000000000e8 TEE_GetPropertyAsU64
000000000000210c g     F .text	000000000000000c _utee_set_ta_time
00000000000020b8 g     F .text	000000000000000c _utee_invoke_ta_command
000000000000bcb8 g     F .text	0000000000000018 mbedtls_put_unaligned_uint16
000000000000c9a4 g     F .text	0000000000000018 realloc
0000000000007524 g     F .text	000000000000008c mbedtls_mpi_swap
000000000000cf60 g     F .text	00000000000000c8 mempool_alloc_pool
0000000000004838 g     F .text	0000000000000114 TEE_BigIntMul
000000000000ca10 g     F .text	0000000000000008 raw_malloc_get_ctx_size
0000000000007820 g     F .text	0000000000000110 mbedtls_mpi_shift_l
00000000000079fc g     F .text	00000000000000d0 mbedtls_mpi_cmp_mpi
000000000000300c g     F .text	0000000000000004 TEE_MemFill
000000000000cd24 g     F .text	0000000000000014 malloc_add_pool
000000000000039c g     F .text	0000000000000010 trace_get_level
0000000000007b44 g     F .text	00000000000000f8 mbedtls_mpi_add_abs
00000000000052fc g     F .text	0000000000000010 TEE_BigIntFMMSizeInU32
0000000000005e34 g     F .text	00000000000000d8 TEE_GetPropertyAsBool
000000000000c87c g     F .text	00000000000000f4 raw_realloc
00000000000052dc g     F .text	0000000000000004 TEE_BigIntInitFMM
0000000000002160 g     F .text	000000000000000c _utee_cipher_init
0000000000001bbc g     F .text	0000000000000288 __utee_entry
0000000000005f0c g     F .text	00000000000000e8 TEE_GetPropertyAsU32
000000000000d168 g       .text	0000000000000000 __text_end
0000000000004cf4 g     F .text	0000000000000108 TEE_BigIntRelativePrime
0000000000008908 g     F .text	00000000000000b4 mbedtls_mpi_mod_mpi
000000000000b8e8 g     F .text	0000000000000080 mbedtls_mpi_core_lt_ct
0000000000002184 g     F .text	000000000000000c _utee_cryp_obj_get_info
000000000000ac3c g     F .text	0000000000000044 mbedtls_mpi_core_sub
000000000000c5ec g     F .text	00000000000000d0 bpool
000000000000643c g     F .text	0000000000000048 TEE_AllocatePropertyEnumerator
0000000000002118 g     F .text	000000000000000c _utee_cryp_state_alloc
00000000000026f8 g     F .text	0000000000000060 TEE_GetCancellationFlag
000000000000bc64 g     F .text	0000000000000054 mbedtls_get_unaligned_uint16
0000000000009460 g     F .text	00000000000001d8 mbedtls_mpi_gcd
00000000000030f4 g     F .text	0000000000000044 TEE_SetTAPersistentTime
0000000000007800 g     F .text	0000000000000010 mbedtls_mpi_write_binary_le
000000000000cee8 g     F .text	000000000000001c memset
000000000000c768 g     F .text	0000000000000084 raw_memalign
000000000000307c g     F .text	0000000000000078 TEE_GetTAPersistentTime
000000000000bd4c g     F .text	000000000000005c mbedtls_get_unaligned_uint64
00000000000006ac g     F .text	0000000000000004 dhex_dump
000000000000a6fc g     F .text	0000000000000034 mbedtls_mpi_core_bigendian_to_host
00000000000027b8 g     F .text	0000000000000060 TEE_MaskCancellation
000000000000219c g     F .text	000000000000000c _utee_cryp_obj_get_attr
0000000000002178 g     F .text	000000000000000c _utee_cipher_final
0000000000000380 g     F .text	000000000000001c trace_set_level
000000000000b468 g     F .text	000000000000001c mbedtls_mpi_core_to_mont_rep
000000000000b57c g     F .text	000000000000001c mbedtls_ct_mpi_uint_lt
0000000000002130 g     F .text	000000000000000c _utee_cryp_state_free
000000000000cf04 g     F .text	0000000000000024 strcmp
00000000000020a0 g     F .text	000000000000000c _utee_open_ta_session
0000000000003fcc g     F .text	00000000000000b8 TEE_BigIntConvertToS32
0000000000004748 g     F .text	000000000000000c TEE_BigIntSub
0000000000000360 g     F .text	0000000000000008 tahead_get_trace_level
00000000000022a4 g     F .text	000000000000000c _utee_storage_start_enum
00000000000067b8 g     F .text	0000000000000094 tee_map_zi
0000000000008dc4 g     F .text	0000000000000004 mbedtls_mpi_montred
000000000000c9bc g     F .text	000000000000001c memalign
000000000000b544 g     F .text	0000000000000010 mbedtls_ct_uint_mask
0000000000003d14 g     F .text	0000000000000008 __GP11_TEE_BigIntInit
0000000000003f18 g     F .text	00000000000000b4 TEE_BigIntConvertFromS32
0000000000007e04 g     F .text	0000000000000078 mbedtls_mpi_add_int
0000000000002220 g     F .text	000000000000000c _utee_authenc_enc_final
000000000000cd38 g     F .text	0000000000000014 malloc_buffer_is_within_alloced
00000000000021b4 g     F .text	000000000000000c _utee_cryp_obj_close
00000000000052e8 g     F .text	0000000000000004 TEE_BigIntInitFMMContext
00000000000020e8 g     F .text	000000000000000c _utee_mask_cancellation
0000000000012630 g     O .bss	0000000000000008 __ta_no_share_malloc_ctx
0000000000002274 g     F .text	000000000000000c _utee_storage_obj_rename
0000000000002fd4 g     F .text	0000000000000008 __GP11_TEE_CheckMemoryAccessRights
000000000000494c g     F .text	0000000000000008 TEE_BigIntSquare
00000000000022c8 g     F .text	000000000000000c _utee_storage_obj_write
000000000000a6a8 g     F .text	0000000000000054 mbedtls_mpi_core_bitlen
00000000000000ec g     F .text	0000000000000034 TA_CreateEntryPoint
000000000000034c g     F .text	0000000000000014 __ta_entry
0000000000015eb0 g     O .bss	0000000000000000 __ta_no_share_heap
0000000000002208 g     F .text	000000000000000c _utee_authenc_update_aad
0000000000008d90 g     F .text	0000000000000028 mbedtls_mpi_montg_init
00000000000007fc g     F .text	00000000000000d0 snprintk
0000000000004598 g     F .text	0000000000000078 TEE_BigIntGetBitCount
00000000000021d8 g     F .text	000000000000000c _utee_cryp_obj_copy
0000000000004b8c g     F .text	000000000000000c TEE_BigIntMulMod
00000000000099d8 g     F .text	0000000000000458 mbedtls_mpi_inv_mod
0000000000005740 g     F .text	0000000000000004 __utee_check_gp11_attr_in_annotation
0000000000012638 g     O .bss	0000000000000040 ta_params
0000000000008370 g     F .text	0000000000000520 mbedtls_mpi_div_mpi
00000000000056b0 g     F .text	000000000000004c __utee_check_gp11_outstring_annotation
000000000000772c g     F .text	000000000000001c mbedtls_mpi_size
000000000000bef0 g     F .text	00000000000002e0 bget
000000000000532c g     F .text	0000000000000018 __GP11_TEE_BigIntFMMContextSizeInU32
0000000000006488 g     F .text	0000000000000010 TEE_StartPropertyEnumerator
00000000000020f4 g     F .text	000000000000000c _utee_wait
0000000000007644 g     F .text	000000000000008c mbedtls_mpi_set_bit
000000000000a730 g     F .text	0000000000000064 mbedtls_mpi_core_uint_le_mpi
000000000000328c g     F .text	0000000000000060 TEE_Free
00000000000033f8 g     F .text	0000000000000008 TEE_CacheInvalidate
0000000000006d80 g     F .text	0000000000000014 _assert_break
000000000000b188 g     F .text	0000000000000028 mbedtls_mpi_core_exp_mod_working_limbs
0000000000004b74 g     F .text	000000000000000c TEE_BigIntAddMod
000000000000b5c8 g     F .text	000000000000003c mbedtls_ct_mpi_uint_cond_assign
00000000000052e0 g     F .text	0000000000000008 __GP11_TEE_BigIntInitFMM
0000000000002100 g     F .text	000000000000000c _utee_get_time
000000000000ab90 g     F .text	000000000000003c mbedtls_mpi_core_add
00000000000065c8 g     F .text	000000000000008c TEE_GetPropertyName
00000000000033e0 g     F .text	0000000000000008 __GP11_TEE_Realloc
00000000000021cc g     F .text	000000000000000c _utee_cryp_obj_populate
000000000000a834 g     F .text	000000000000008c mbedtls_mpi_core_read_le
0000000000003000 g     F .text	0000000000000004 TEE_MemCompare
000000000000216c g     F .text	000000000000000c _utee_cipher_update
00000000000006e0 g     F .text	00000000000000c4 __vsnprintf
0000000000012620 g     O .bss	0000000000000010 __elf_phdr_info
0000000000002a3c g     F .text	0000000000000154 TEE_OpenTASession
000000000000b484 g     F .text	000000000000006c mbedtls_mpi_core_from_mont_rep
0000000000001524 g     F .text	0000000000000028 trace_ext_puts
0000000000005d98 g     F .text	000000000000009c __GP11_TEE_GetPropertyAsString
000000000000cb88 g     F .text	0000000000000150 raw_malloc_buffer_is_within_alloced
000000000000154c g     F .text	0000000000000008 trace_ext_get_thread_id
000000000000cb08 g     F .text	0000000000000080 raw_malloc_buffer_overlaps_heap
00000000000021e4 g     F .text	000000000000000c _utee_cryp_derive_key
0000000000007180 g     F .text	000000000000006c mbedtls_mpi_free
00000000000021c0 g     F .text	000000000000000c _utee_cryp_obj_reset
00000000000033e8 g     F .text	0000000000000008 TEE_CacheClean
0000000000002094 g     F .text	000000000000000c _utee_get_property_name_to_index
000000000000ae80 g     F .text	00000000000000f8 mbedtls_mpi_core_montmul
000000000000c80c g     F .text	0000000000000070 raw_calloc
0000000000006dac g     F .text	0000000000000114 _base64_enc
000000000000b830 g     F .text	00000000000000b8 mbedtls_mpi_safe_cond_swap
00000000000021fc g     F .text	000000000000000c _utee_authenc_init
0000000000001508 g     F .text	000000000000001c strlen
0000000000004fd4 g     F .text	0000000000000270 TEE_BigIntComputeExtendedGcd
0000000000002280 g     F .text	000000000000000c _utee_storage_alloc_enum
0000000000004dfc g     F .text	00000000000001d8 TEE_BigIntExpMod
0000000000003018 g     F .text	0000000000000028 TEE_GetSystemTime
0000000000002244 g     F .text	000000000000000c _utee_asymm_verify
00000000000113c0 g     O .ta_head	0000000000000020 ta_head
000000000000c258 g     F .text	00000000000002c4 brel
0000000000001fa8 g     F .text	00000000000000b0 __ta_invoke_cmd
00000000000060dc g     F .text	00000000000000e8 __GP11_TEE_GetPropertyAsBinaryBlock
0000000000007c3c g     F .text	0000000000000114 mbedtls_mpi_sub_abs
0000000000009638 g     F .text	0000000000000068 mbedtls_mpi_fill_random
0000000000001f0c g     F .text	000000000000009c __ta_open_sess
0000000000002fdc g     F .text	000000000000000c TEE_SetInstanceData
00000000000020c4 g     F .text	000000000000000c _utee_get_cancellation_flag
000000000000a794 g     F .text	0000000000000024 mbedtls_mpi_core_cond_assign
0000000000008a58 g     F .text	0000000000000274 mbedtls_mpi_write_string
000000000000c9d8 g     F .text	0000000000000018 aligned_alloc
000000000000ae4c g     F .text	0000000000000034 mbedtls_mpi_core_montmul_init
00000000000052f4 g     F .text	0000000000000008 TEE_BigIntInitFMMContext1
000000000000af78 g     F .text	0000000000000068 mbedtls_mpi_core_get_mont_r2_unsafe
00000000000026d0 g     F .text	0000000000000028 TEE_CloseTASession
000000000000225c g     F .text	000000000000000c _utee_storage_obj_create
000000000000530c g     F .text	0000000000000018 __GP11_TEE_BigIntFMMSizeInU32
000000000000c9f0 g     F .text	0000000000000010 free
000000000000c6bc g     F .text	0000000000000094 bstats
0000000000015ea8 g     O .bss	0000000000000008 mbedtls_mpi_mempool
0000000000002154 g     F .text	000000000000000c _utee_hash_final



Disassembly of section .text:

0000000000000000 <memcpy>:
memcpy():
/home/build/bsp/optee_os/lib/libutils/isoc/newlib/memcpy.c:106
       0:	f1007c5f 	cmp	x2, #0x1f
       4:	54000629 	b.ls	c8 <memcpy+0xc8>  // b.plast
/home/build/bsp/optee_os/lib/libutils/isoc/newlib/memcpy.c:106 (discriminator 1)
       8:	aa010005 	orr	x5, x0, x1
       c:	f24008a5 	ands	x5, x5, #0x7
      10:	54000641 	b.ne	d8 <memcpy+0xd8>  // b.any
      14:	d1008048 	sub	x8, x2, #0x20
/home/build/bsp/optee_os/lib/libutils/isoc/newlib/memcpy.c:108
      18:	aa0103e3 	mov	x3, x1
      1c:	927be908 	and	x8, x8, #0xffffffffffffffe0
/home/build/bsp/optee_os/lib/libutils/isoc/newlib/memcpy.c:107
      20:	aa0003e4 	mov	x4, x0
      24:	91008108 	add	x8, x8, #0x20
      28:	8b080007 	add	x7, x0, x8
      2c:	d503201f 	nop
/home/build/bsp/optee_os/lib/libutils/isoc/newlib/memcpy.c:112
      30:	f9400066 	ldr	x6, [x3]
      34:	f9000086 	str	x6, [x4]
/home/build/bsp/optee_os/lib/libutils/isoc/newlib/memcpy.c:113
      38:	91008063 	add	x3, x3, #0x20
      3c:	91008084 	add	x4, x4, #0x20
      40:	f85e8066 	ldur	x6, [x3, #-24]
      44:	f81e8086 	stur	x6, [x4, #-24]
/home/build/bsp/optee_os/lib/libutils/isoc/newlib/memcpy.c:114
      48:	f85f0066 	ldur	x6, [x3, #-16]
      4c:	f81f0086 	stur	x6, [x4, #-16]
/home/build/bsp/optee_os/lib/libutils/isoc/newlib/memcpy.c:115
      50:	f85f8066 	ldur	x6, [x3, #-8]
      54:	f81f8086 	stur	x6, [x4, #-8]
/home/build/bsp/optee_os/lib/libutils/isoc/newlib/memcpy.c:111
      58:	eb0400ff 	cmp	x7, x4
      5c:	54fffea1 	b.ne	30 <memcpy+0x30>  // b.any
/home/build/bsp/optee_os/lib/libutils/isoc/newlib/memcpy.c:115
      60:	8b080021 	add	x1, x1, x8
/home/build/bsp/optee_os/lib/libutils/isoc/newlib/memcpy.c:116
      64:	92401043 	and	x3, x2, #0x1f
/home/build/bsp/optee_os/lib/libutils/isoc/newlib/memcpy.c:120
      68:	f27d045f 	tst	x2, #0x18
      6c:	540003c0 	b.eq	e4 <memcpy+0xe4>  // b.none
/home/build/bsp/optee_os/lib/libutils/isoc/newlib/memcpy.c:121
      70:	f8656826 	ldr	x6, [x1, x5]
      74:	f8256886 	str	x6, [x4, x5]
/home/build/bsp/optee_os/lib/libutils/isoc/newlib/memcpy.c:120
      78:	910020a5 	add	x5, x5, #0x8
      7c:	cb050066 	sub	x6, x3, x5
      80:	f1001cdf 	cmp	x6, #0x7
      84:	54ffff68 	b.hi	70 <memcpy+0x70>  // b.pmore
      88:	d1002063 	sub	x3, x3, #0x8
/home/build/bsp/optee_os/lib/libutils/isoc/newlib/memcpy.c:122
      8c:	92400842 	and	x2, x2, #0x7
      90:	927df063 	and	x3, x3, #0xfffffffffffffff8
/home/build/bsp/optee_os/lib/libutils/isoc/newlib/memcpy.c:130
      94:	d1000446 	sub	x6, x2, #0x1
      98:	91002063 	add	x3, x3, #0x8
/home/build/bsp/optee_os/lib/libutils/isoc/newlib/memcpy.c:121
      9c:	8b030084 	add	x4, x4, x3
      a0:	8b030021 	add	x1, x1, x3
/home/build/bsp/optee_os/lib/libutils/isoc/newlib/memcpy.c:130
      a4:	b4000102 	cbz	x2, c4 <memcpy+0xc4>
/home/build/bsp/optee_os/lib/libutils/isoc/newlib/memcpy.c:99
      a8:	d2800002 	mov	x2, #0x0                   	// #0
      ac:	d503201f 	nop
/home/build/bsp/optee_os/lib/libutils/isoc/newlib/memcpy.c:131
      b0:	38626825 	ldrb	w5, [x1, x2]
/home/build/bsp/optee_os/lib/libutils/isoc/newlib/memcpy.c:130
      b4:	eb0200df 	cmp	x6, x2
/home/build/bsp/optee_os/lib/libutils/isoc/newlib/memcpy.c:131
      b8:	38226885 	strb	w5, [x4, x2]
/home/build/bsp/optee_os/lib/libutils/isoc/newlib/memcpy.c:130
      bc:	91000442 	add	x2, x2, #0x1
      c0:	54ffff81 	b.ne	b0 <memcpy+0xb0>  // b.any
/home/build/bsp/optee_os/lib/libutils/isoc/newlib/memcpy.c:135
      c4:	d65f03c0 	ret
/home/build/bsp/optee_os/lib/libutils/isoc/newlib/memcpy.c:99
      c8:	aa0003e4 	mov	x4, x0
/home/build/bsp/optee_os/lib/libutils/isoc/newlib/memcpy.c:130
      cc:	d1000446 	sub	x6, x2, #0x1
      d0:	b5fffec2 	cbnz	x2, a8 <memcpy+0xa8>
/home/build/bsp/optee_os/lib/libutils/isoc/newlib/memcpy.c:135
      d4:	d65f03c0 	ret
/home/build/bsp/optee_os/lib/libutils/isoc/newlib/memcpy.c:130
      d8:	d1000446 	sub	x6, x2, #0x1
/home/build/bsp/optee_os/lib/libutils/isoc/newlib/memcpy.c:99
      dc:	aa0003e4 	mov	x4, x0
      e0:	17fffff2 	b	a8 <memcpy+0xa8>
/home/build/bsp/optee_os/lib/libutils/isoc/newlib/memcpy.c:120
      e4:	aa0303e2 	mov	x2, x3
      e8:	17fffff9 	b	cc <memcpy+0xcc>

00000000000000ec <TA_CreateEntryPoint>:
TA_CreateEntryPoint():
/home/build/bsp/optee_examples/test_performance/ta/test_performance_ta.c:38
      ec:	a9bf7bfd 	stp	x29, x30, [sp, #-16]!
/home/build/bsp/optee_examples/test_performance/ta/test_performance_ta.c:39
      f0:	52800023 	mov	w3, #0x1                   	// #1
      f4:	52800062 	mov	w2, #0x3                   	// #3
/home/build/bsp/optee_examples/test_performance/ta/test_performance_ta.c:38
      f8:	910003fd 	mov	x29, sp
/home/build/bsp/optee_examples/test_performance/ta/test_performance_ta.c:39
      fc:	528004e1 	mov	w1, #0x27                  	// #39
     100:	90000084 	adrp	x4, 10000 <__func__.0+0x28>
     104:	90000080 	adrp	x0, 10000 <__func__.0+0x28>
     108:	910ff084 	add	x4, x4, #0x3fc
     10c:	91132000 	add	x0, x0, #0x4c8
     110:	9400012e 	bl	5c8 <trace_printf>
/home/build/bsp/optee_examples/test_performance/ta/test_performance_ta.c:42
     114:	52800000 	mov	w0, #0x0                   	// #0
     118:	a8c17bfd 	ldp	x29, x30, [sp], #16
     11c:	d65f03c0 	ret

0000000000000120 <TA_DestroyEntryPoint>:
TA_DestroyEntryPoint():
/home/build/bsp/optee_examples/test_performance/ta/test_performance_ta.c:50
     120:	90000080 	adrp	x0, 10000 <__func__.0+0x28>
     124:	91132000 	add	x0, x0, #0x4c8
     128:	91005000 	add	x0, x0, #0x14
     12c:	90000084 	adrp	x4, 10000 <__func__.0+0x28>
     130:	52800023 	mov	w3, #0x1                   	// #1
     134:	910ff084 	add	x4, x4, #0x3fc
     138:	52800062 	mov	w2, #0x3                   	// #3
     13c:	52800641 	mov	w1, #0x32                  	// #50
     140:	14000122 	b	5c8 <trace_printf>

0000000000000144 <__GP11_TA_OpenSessionEntryPoint>:
__GP11_TA_OpenSessionEntryPoint():
/home/build/bsp/optee_examples/test_performance/ta/test_performance_ta.c:62
     144:	a9be7bfd 	stp	x29, x30, [sp, #-32]!
/home/build/bsp/optee_examples/test_performance/ta/test_performance_ta.c:68
     148:	90000084 	adrp	x4, 10000 <__func__.0+0x28>
     14c:	52800023 	mov	w3, #0x1                   	// #1
/home/build/bsp/optee_examples/test_performance/ta/test_performance_ta.c:62
     150:	910003fd 	mov	x29, sp
     154:	a90153f3 	stp	x19, x20, [sp, #16]
/home/build/bsp/optee_examples/test_performance/ta/test_performance_ta.c:68
     158:	90000093 	adrp	x19, 10000 <__func__.0+0x28>
     15c:	91132273 	add	x19, x19, #0x4c8
     160:	9100a673 	add	x19, x19, #0x29
/home/build/bsp/optee_examples/test_performance/ta/test_performance_ta.c:62
     164:	2a0003f4 	mov	w20, w0
/home/build/bsp/optee_examples/test_performance/ta/test_performance_ta.c:68
     168:	910ff084 	add	x4, x4, #0x3fc
     16c:	aa1303e0 	mov	x0, x19
     170:	52800062 	mov	w2, #0x3                   	// #3
     174:	52800881 	mov	w1, #0x44                  	// #68
     178:	94000114 	bl	5c8 <trace_printf>
/home/build/bsp/optee_examples/test_performance/ta/test_performance_ta.c:70
     17c:	35000194 	cbnz	w20, 1ac <__GP11_TA_OpenSessionEntryPoint+0x68>
/home/build/bsp/optee_examples/test_performance/ta/test_performance_ta.c:81
     180:	90000084 	adrp	x4, 10000 <__func__.0+0x28>
     184:	aa1303e0 	mov	x0, x19
     188:	91103084 	add	x4, x4, #0x40c
     18c:	52800023 	mov	w3, #0x1                   	// #1
     190:	52800042 	mov	w2, #0x2                   	// #2
     194:	52800a21 	mov	w1, #0x51                  	// #81
     198:	9400010c 	bl	5c8 <trace_printf>
/home/build/bsp/optee_examples/test_performance/ta/test_performance_ta.c:85
     19c:	2a1403e0 	mov	w0, w20
     1a0:	a94153f3 	ldp	x19, x20, [sp, #16]
     1a4:	a8c27bfd 	ldp	x29, x30, [sp], #32
     1a8:	d65f03c0 	ret
/home/build/bsp/optee_examples/test_performance/ta/test_performance_ta.c:71
     1ac:	129fff34 	mov	w20, #0xffff0006            	// #-65530
     1b0:	17fffffb 	b	19c <__GP11_TA_OpenSessionEntryPoint+0x58>

00000000000001b4 <TA_CloseSessionEntryPoint>:
TA_CloseSessionEntryPoint():
/home/build/bsp/optee_examples/test_performance/ta/test_performance_ta.c:94
     1b4:	90000080 	adrp	x0, 10000 <__func__.0+0x28>
     1b8:	91132000 	add	x0, x0, #0x4c8
     1bc:	91012400 	add	x0, x0, #0x49
     1c0:	90000084 	adrp	x4, 10000 <__func__.0+0x28>
     1c4:	52800023 	mov	w3, #0x1                   	// #1
     1c8:	91106884 	add	x4, x4, #0x41a
     1cc:	52800042 	mov	w2, #0x2                   	// #2
     1d0:	52800bc1 	mov	w1, #0x5e                  	// #94
     1d4:	140000fd 	b	5c8 <trace_printf>

00000000000001d8 <__GP11_TA_InvokeCommandEntryPoint>:
__GP11_TA_InvokeCommandEntryPoint():
/home/build/bsp/optee_examples/test_performance/ta/test_performance_ta.c:144
     1d8:	a9bd7bfd 	stp	x29, x30, [sp, #-48]!
     1dc:	910003fd 	mov	x29, sp
     1e0:	a90153f3 	stp	x19, x20, [sp, #16]
     1e4:	2a0103f3 	mov	w19, w1
     1e8:	a9025bf5 	stp	x21, x22, [sp, #32]
     1ec:	2a0203f6 	mov	w22, w2
     1f0:	aa0303f5 	mov	x21, x3
/home/build/bsp/optee_examples/test_performance/ta/test_performance_ta.c:147
     1f4:	34000121 	cbz	w1, 218 <__GP11_TA_InvokeCommandEntryPoint+0x40>
     1f8:	7100043f 	cmp	w1, #0x1
     1fc:	540005a0 	b.eq	2b0 <__GP11_TA_InvokeCommandEntryPoint+0xd8>  // b.none
inc_value():
/home/build/bsp/optee_examples/test_performance/ta/test_performance_ta.c:108
     200:	129fff33 	mov	w19, #0xffff0006            	// #-65530
__GP11_TA_InvokeCommandEntryPoint():
/home/build/bsp/optee_examples/test_performance/ta/test_performance_ta.c:157
     204:	2a1303e0 	mov	w0, w19
     208:	a94153f3 	ldp	x19, x20, [sp, #16]
     20c:	a9425bf5 	ldp	x21, x22, [sp, #32]
     210:	a8c37bfd 	ldp	x29, x30, [sp], #48
     214:	d65f03c0 	ret
/home/build/bsp/optee_examples/test_performance/ta/test_performance_ta.c:149
     218:	90000094 	adrp	x20, 10000 <__func__.0+0x28>
     21c:	91132294 	add	x20, x20, #0x4c8
     220:	91018e80 	add	x0, x20, #0x63
     224:	52800023 	mov	w3, #0x1                   	// #1
     228:	52800042 	mov	w2, #0x2                   	// #2
     22c:	528012a1 	mov	w1, #0x95                  	// #149
inc_value():
/home/build/bsp/optee_examples/test_performance/ta/test_performance_ta.c:105
     230:	91021694 	add	x20, x20, #0x85
__GP11_TA_InvokeCommandEntryPoint():
/home/build/bsp/optee_examples/test_performance/ta/test_performance_ta.c:149
     234:	90000084 	adrp	x4, 10000 <__func__.0+0x28>
     238:	91109084 	add	x4, x4, #0x424
     23c:	940000e3 	bl	5c8 <trace_printf>
inc_value():
/home/build/bsp/optee_examples/test_performance/ta/test_performance_ta.c:105
     240:	90000084 	adrp	x4, 10000 <__func__.0+0x28>
     244:	aa1403e0 	mov	x0, x20
     248:	910ff084 	add	x4, x4, #0x3fc
     24c:	52800023 	mov	w3, #0x1                   	// #1
     250:	52800062 	mov	w2, #0x3                   	// #3
     254:	52800d21 	mov	w1, #0x69                  	// #105
     258:	940000dc 	bl	5c8 <trace_printf>
/home/build/bsp/optee_examples/test_performance/ta/test_performance_ta.c:107
     25c:	71000edf 	cmp	w22, #0x3
     260:	54fffd01 	b.ne	200 <__GP11_TA_InvokeCommandEntryPoint+0x28>  // b.any
/home/build/bsp/optee_examples/test_performance/ta/test_performance_ta.c:110
     264:	b94002a5 	ldr	w5, [x21]
     268:	aa1403e0 	mov	x0, x20
     26c:	52800023 	mov	w3, #0x1                   	// #1
     270:	52800042 	mov	w2, #0x2                   	// #2
     274:	52800dc1 	mov	w1, #0x6e                  	// #110
     278:	90000084 	adrp	x4, 10000 <__func__.0+0x28>
     27c:	91115484 	add	x4, x4, #0x455
     280:	940000d2 	bl	5c8 <trace_printf>
/home/build/bsp/optee_examples/test_performance/ta/test_performance_ta.c:111
     284:	b94002a5 	ldr	w5, [x21]
/home/build/bsp/optee_examples/test_performance/ta/test_performance_ta.c:112
     288:	aa1403e0 	mov	x0, x20
     28c:	90000084 	adrp	x4, 10000 <__func__.0+0x28>
     290:	52800023 	mov	w3, #0x1                   	// #1
/home/build/bsp/optee_examples/test_performance/ta/test_performance_ta.c:111
     294:	110004a5 	add	w5, w5, #0x1
     298:	b90002a5 	str	w5, [x21]
/home/build/bsp/optee_examples/test_performance/ta/test_performance_ta.c:112
     29c:	9111ac84 	add	x4, x4, #0x46b
     2a0:	52800042 	mov	w2, #0x2                   	// #2
     2a4:	52800e01 	mov	w1, #0x70                  	// #112
     2a8:	940000c8 	bl	5c8 <trace_printf>
/home/build/bsp/optee_examples/test_performance/ta/test_performance_ta.c:114
     2ac:	17ffffd6 	b	204 <__GP11_TA_InvokeCommandEntryPoint+0x2c>
__GP11_TA_InvokeCommandEntryPoint():
/home/build/bsp/optee_examples/test_performance/ta/test_performance_ta.c:152
     2b0:	90000094 	adrp	x20, 10000 <__func__.0+0x28>
     2b4:	91132294 	add	x20, x20, #0x4c8
     2b8:	2a0103e3 	mov	w3, w1
     2bc:	91018e80 	add	x0, x20, #0x63
     2c0:	52800042 	mov	w2, #0x2                   	// #2
     2c4:	52801301 	mov	w1, #0x98                  	// #152
dec_value():
/home/build/bsp/optee_examples/test_performance/ta/test_performance_ta.c:125
     2c8:	91023e94 	add	x20, x20, #0x8f
__GP11_TA_InvokeCommandEntryPoint():
/home/build/bsp/optee_examples/test_performance/ta/test_performance_ta.c:152
     2cc:	90000084 	adrp	x4, 10000 <__func__.0+0x28>
     2d0:	91120484 	add	x4, x4, #0x481
     2d4:	940000bd 	bl	5c8 <trace_printf>
dec_value():
/home/build/bsp/optee_examples/test_performance/ta/test_performance_ta.c:125
     2d8:	90000084 	adrp	x4, 10000 <__func__.0+0x28>
     2dc:	2a1303e3 	mov	w3, w19
     2e0:	910ff084 	add	x4, x4, #0x3fc
     2e4:	aa1403e0 	mov	x0, x20
     2e8:	52800062 	mov	w2, #0x3                   	// #3
     2ec:	52800fa1 	mov	w1, #0x7d                  	// #125
     2f0:	940000b6 	bl	5c8 <trace_printf>
/home/build/bsp/optee_examples/test_performance/ta/test_performance_ta.c:127
     2f4:	71000edf 	cmp	w22, #0x3
     2f8:	54fff841 	b.ne	200 <__GP11_TA_InvokeCommandEntryPoint+0x28>  // b.any
/home/build/bsp/optee_examples/test_performance/ta/test_performance_ta.c:130
     2fc:	b94002a5 	ldr	w5, [x21]
     300:	2a1303e3 	mov	w3, w19
     304:	aa1403e0 	mov	x0, x20
     308:	52800042 	mov	w2, #0x2                   	// #2
     30c:	52801041 	mov	w1, #0x82                  	// #130
     310:	90000084 	adrp	x4, 10000 <__func__.0+0x28>
     314:	91115484 	add	x4, x4, #0x455
     318:	940000ac 	bl	5c8 <trace_printf>
/home/build/bsp/optee_examples/test_performance/ta/test_performance_ta.c:131
     31c:	b94002a5 	ldr	w5, [x21]
/home/build/bsp/optee_examples/test_performance/ta/test_performance_ta.c:132
     320:	2a1303e3 	mov	w3, w19
     324:	aa1403e0 	mov	x0, x20
     328:	90000084 	adrp	x4, 10000 <__func__.0+0x28>
/home/build/bsp/optee_examples/test_performance/ta/test_performance_ta.c:131
     32c:	510004a5 	sub	w5, w5, #0x1
     330:	b90002a5 	str	w5, [x21]
/home/build/bsp/optee_examples/test_performance/ta/test_performance_ta.c:132
     334:	9112c884 	add	x4, x4, #0x4b2
     338:	52800042 	mov	w2, #0x2                   	// #2
     33c:	52801081 	mov	w1, #0x84                  	// #132
/home/build/bsp/optee_examples/test_performance/ta/test_performance_ta.c:134
     340:	52800013 	mov	w19, #0x0                   	// #0
/home/build/bsp/optee_examples/test_performance/ta/test_performance_ta.c:132
     344:	940000a1 	bl	5c8 <trace_printf>
/home/build/bsp/optee_examples/test_performance/ta/test_performance_ta.c:134
     348:	17ffffaf 	b	204 <__GP11_TA_InvokeCommandEntryPoint+0x2c>

000000000000034c <__ta_entry>:
__ta_entry():
/home/build/bsp/optee_os/out/arm-plat-k3/export-ta_arm64/src/user_ta_header.c:51
     34c:	a9bf7bfd 	stp	x29, x30, [sp, #-16]!
     350:	910003fd 	mov	x29, sp
/home/build/bsp/optee_os/out/arm-plat-k3/export-ta_arm64/src/user_ta_header.c:70
     354:	9400061a 	bl	1bbc <__utee_entry>
/home/build/bsp/optee_os/out/arm-plat-k3/export-ta_arm64/src/user_ta_header.c:81
     358:	2a0003e0 	mov	w0, w0
     35c:	94000742 	bl	2064 <_utee_return>

0000000000000360 <tahead_get_trace_level>:
tahead_get_trace_level():
/home/build/bsp/optee_os/out/arm-plat-k3/export-ta_arm64/src/user_ta_header.c:193
     360:	52800080 	mov	w0, #0x4                   	// #4
     364:	d65f03c0 	ret

0000000000000368 <TA_OpenSessionEntryPoint>:
TA_OpenSessionEntryPoint():
/home/build/bsp/optee_os/out/arm-plat-k3/export-ta_arm64/src/user_ta_header.c:203
     368:	d0000083 	adrp	x3, 12000 <_DYNAMIC>
     36c:	f940cc63 	ldr	x3, [x3, #408]
     370:	140006e7 	b	1f0c <__ta_open_sess>

0000000000000374 <TA_InvokeCommandEntryPoint>:
TA_InvokeCommandEntryPoint():
/home/build/bsp/optee_os/out/arm-plat-k3/export-ta_arm64/src/user_ta_header.c:211
     374:	d0000084 	adrp	x4, 12000 <_DYNAMIC>
     378:	f940c084 	ldr	x4, [x4, #384]
     37c:	1400070b 	b	1fa8 <__ta_invoke_cmd>

0000000000000380 <trace_set_level>:
trace_set_level():
/home/build/bsp/optee_os/lib/libutils/ext/trace.c:29
     380:	7100141f 	cmp	w0, #0x5
     384:	52800081 	mov	w1, #0x4                   	// #4
     388:	1a813000 	csel	w0, w0, w1, cc  // cc = lo, ul, last
     38c:	d0000081 	adrp	x1, 12000 <_DYNAMIC>
     390:	f940a821 	ldr	x1, [x1, #336]
     394:	b9000020 	str	w0, [x1]
/home/build/bsp/optee_os/lib/libutils/ext/trace.c:30
     398:	d65f03c0 	ret

000000000000039c <trace_get_level>:
trace_get_level():
/home/build/bsp/optee_os/lib/libutils/ext/trace.c:34
     39c:	d0000080 	adrp	x0, 12000 <_DYNAMIC>
/home/build/bsp/optee_os/lib/libutils/ext/trace.c:35
     3a0:	f940a800 	ldr	x0, [x0, #336]
     3a4:	b9400000 	ldr	w0, [x0]
     3a8:	d65f03c0 	ret

00000000000003ac <trace_vprintf>:
trace_vprintf():
/home/build/bsp/optee_os/lib/libutils/ext/trace.c:129
     3ac:	a9a77bfd 	stp	x29, x30, [sp, #-400]!
     3b0:	910003fd 	mov	x29, sp
     3b4:	a9046bf9 	stp	x25, x26, [sp, #64]
     3b8:	2a0103f9 	mov	w25, w1
     3bc:	d0000081 	adrp	x1, 12000 <_DYNAMIC>
     3c0:	a9025bf5 	stp	x21, x22, [sp, #32]
     3c4:	aa0003f6 	mov	x22, x0
     3c8:	aa0103f5 	mov	x21, x1
     3cc:	f9409820 	ldr	x0, [x1, #304]
     3d0:	a90153f3 	stp	x19, x20, [sp, #16]
     3d4:	2a0203f3 	mov	w19, w2
     3d8:	a90363f7 	stp	x23, x24, [sp, #48]
     3dc:	aa0403f7 	mov	x23, x4
     3e0:	aa0503f8 	mov	x24, x5
     3e4:	a90573fb 	stp	x27, x28, [sp, #80]
/home/build/bsp/optee_os/lib/libutils/ext/trace.c:134
     3e8:	72001c7b 	ands	w27, w3, #0xff
/home/build/bsp/optee_os/lib/libutils/ext/trace.c:129
     3ec:	f9400002 	ldr	x2, [x0]
     3f0:	f900c7e2 	str	x2, [sp, #392]
     3f4:	d2800002 	mov	x2, #0x0                   	// #0
/home/build/bsp/optee_os/lib/libutils/ext/trace.c:134
     3f8:	54000b20 	b.eq	55c <trace_vprintf+0x1b0>  // b.none
/home/build/bsp/optee_os/lib/libutils/ext/trace.c:134 (discriminator 1)
     3fc:	f940a820 	ldr	x0, [x1, #336]
     400:	b9400000 	ldr	w0, [x0]
     404:	6b13001f 	cmp	w0, w19
     408:	540009cb 	b.lt	540 <trace_vprintf+0x194>  // b.tstop
trace_level_to_string():
/home/build/bsp/optee_os/lib/libutils/ext/trace.c:52
     40c:	7100127f 	cmp	w19, #0x4
/home/build/bsp/optee_os/lib/libutils/ext/trace.c:55
     410:	90000080 	adrp	x0, 10000 <__func__.0+0x28>
/home/build/bsp/optee_os/lib/libutils/ext/trace.c:52
     414:	1a9f9261 	csel	w1, w19, wzr, ls  // ls = plast
/home/build/bsp/optee_os/lib/libutils/ext/trace.c:55
     418:	911b6800 	add	x0, x0, #0x6da
     41c:	3861c803 	ldrb	w3, [x0, w1, sxtw]
trace_vprintf():
/home/build/bsp/optee_os/lib/libutils/ext/trace.c:138
     420:	910223f4 	add	x20, sp, #0x88
     424:	90000082 	adrp	x2, 10000 <__func__.0+0x28>
     428:	aa1403e0 	mov	x0, x20
     42c:	911b0042 	add	x2, x2, #0x6c0
     430:	d2802001 	mov	x1, #0x100                 	// #256
     434:	940000f2 	bl	7fc <snprintk>
/home/build/bsp/optee_os/lib/libutils/ext/trace.c:140
     438:	37f80840 	tbnz	w0, #31, 540 <trace_vprintf+0x194>
/home/build/bsp/optee_os/lib/libutils/ext/trace.c:145
     43c:	f940b2a3 	ldr	x3, [x21, #352]
     440:	d280201c 	mov	x28, #0x100                 	// #256
/home/build/bsp/optee_os/lib/libutils/ext/trace.c:142
     444:	93407c1a 	sxtw	x26, w0
/home/build/bsp/optee_os/lib/libutils/ext/trace.c:145
     448:	cb20c381 	sub	x1, x28, w0, sxtw
     44c:	90000082 	adrp	x2, 10000 <__func__.0+0x28>
     450:	8b20c280 	add	x0, x20, w0, sxtw
     454:	911b1042 	add	x2, x2, #0x6c4
     458:	940000e9 	bl	7fc <snprintk>
/home/build/bsp/optee_os/lib/libutils/ext/trace.c:147
     45c:	37f80720 	tbnz	w0, #31, 540 <trace_vprintf+0x194>
/home/build/bsp/optee_os/lib/libutils/ext/trace.c:149
     460:	8b20c35a 	add	x26, x26, w0, sxtw
/home/build/bsp/optee_os/lib/libutils/ext/trace.c:151
     464:	3400093b 	cbz	w27, 588 <trace_vprintf+0x1dc>
/home/build/bsp/optee_os/lib/libutils/ext/trace.c:151 (discriminator 1)
     468:	52800340 	mov	w0, #0x1a                  	// #26
     46c:	1ad32400 	lsr	w0, w0, w19
     470:	360008c0 	tbz	w0, #0, 588 <trace_vprintf+0x1dc>
print_thread_id():
/home/build/bsp/optee_os/lib/libutils/ext/trace.c:67
     474:	94000436 	bl	154c <trace_ext_get_thread_id>
trace_vprintf():
/home/build/bsp/optee_os/lib/libutils/ext/trace.c:153
     478:	8b1a029b 	add	x27, x20, x26
     47c:	cb1a039c 	sub	x28, x28, x26
print_thread_id():
/home/build/bsp/optee_os/lib/libutils/ext/trace.c:67
     480:	2a0003e4 	mov	w4, w0
/home/build/bsp/optee_os/lib/libutils/ext/trace.c:69
     484:	37f80700 	tbnz	w0, #31, 564 <trace_vprintf+0x1b8>
/home/build/bsp/optee_os/lib/libutils/ext/trace.c:70
     488:	90000082 	adrp	x2, 10000 <__func__.0+0x28>
     48c:	aa1c03e1 	mov	x1, x28
     490:	911b2042 	add	x2, x2, #0x6c8
     494:	aa1b03e0 	mov	x0, x27
     498:	52800023 	mov	w3, #0x1                   	// #1
     49c:	940000d8 	bl	7fc <snprintk>
trace_vprintf():
/home/build/bsp/optee_os/lib/libutils/ext/trace.c:166
     4a0:	37f80500 	tbnz	w0, #31, 540 <trace_vprintf+0x194>
/home/build/bsp/optee_os/lib/libutils/ext/trace.c:168
     4a4:	8b20c353 	add	x19, x26, w0, sxtw
/home/build/bsp/optee_os/lib/libutils/ext/trace.c:170
     4a8:	b4000176 	cbz	x22, 4d4 <trace_vprintf+0x128>
/home/build/bsp/optee_os/lib/libutils/ext/trace.c:171
     4ac:	90000082 	adrp	x2, 10000 <__func__.0+0x28>
     4b0:	d2802001 	mov	x1, #0x100                 	// #256
     4b4:	2a1903e4 	mov	w4, w25
     4b8:	aa1603e3 	mov	x3, x22
     4bc:	911b4c42 	add	x2, x2, #0x6d3
     4c0:	cb130021 	sub	x1, x1, x19
     4c4:	8b130280 	add	x0, x20, x19
     4c8:	940000cd 	bl	7fc <snprintk>
/home/build/bsp/optee_os/lib/libutils/ext/trace.c:173
     4cc:	37f803a0 	tbnz	w0, #31, 540 <trace_vprintf+0x194>
/home/build/bsp/optee_os/lib/libutils/ext/trace.c:175
     4d0:	8b20c273 	add	x19, x19, w0, sxtw
/home/build/bsp/optee_os/lib/libutils/ext/trace.c:185
     4d4:	910183e3 	add	x3, sp, #0x60
     4d8:	aa1803e1 	mov	x1, x24
     4dc:	aa0303e0 	mov	x0, x3
     4e0:	d2800402 	mov	x2, #0x20                  	// #32
     4e4:	97fffec7 	bl	0 <memcpy>
     4e8:	aa0003e3 	mov	x3, x0
     4ec:	d2802001 	mov	x1, #0x100                 	// #256
     4f0:	aa1703e2 	mov	x2, x23
     4f4:	cb130021 	sub	x1, x1, x19
     4f8:	8b130280 	add	x0, x20, x19
     4fc:	940000aa 	bl	7a4 <vsnprintk>
/home/build/bsp/optee_os/lib/libutils/ext/trace.c:186
     500:	7100001f 	cmp	w0, #0x0
     504:	5400004d 	b.le	50c <trace_vprintf+0x160>
/home/build/bsp/optee_os/lib/libutils/ext/trace.c:187
     508:	8b20c273 	add	x19, x19, w0, sxtw
/home/build/bsp/optee_os/lib/libutils/ext/trace.c:189
     50c:	f103fa7f 	cmp	x19, #0xfe
     510:	d2801fc0 	mov	x0, #0xfe                  	// #254
     514:	9a809273 	csel	x19, x19, x0, ls  // ls = plast
/home/build/bsp/optee_os/lib/libutils/ext/trace.c:192
     518:	52800140 	mov	w0, #0xa                   	// #10
     51c:	38336a80 	strb	w0, [x20, x19]
/home/build/bsp/optee_os/lib/libutils/ext/trace.c:193
     520:	b4000093 	cbz	x19, 530 <trace_vprintf+0x184>
/home/build/bsp/optee_os/lib/libutils/ext/trace.c:193 (discriminator 1)
     524:	38736a80 	ldrb	w0, [x20, x19]
     528:	7100281f 	cmp	w0, #0xa
     52c:	540003c0 	b.eq	5a4 <trace_vprintf+0x1f8>  // b.none
/home/build/bsp/optee_os/lib/libutils/ext/trace.c:196
     530:	91022be0 	add	x0, sp, #0x8a
     534:	3833681f 	strb	wzr, [x0, x19]
/home/build/bsp/optee_os/lib/libutils/ext/trace.c:198
     538:	aa1403e0 	mov	x0, x20
     53c:	940003fa 	bl	1524 <trace_ext_puts>
/home/build/bsp/optee_os/lib/libutils/ext/trace.c:199
     540:	f9409ab5 	ldr	x21, [x21, #304]
     544:	f940c7e0 	ldr	x0, [sp, #392]
     548:	f94002a1 	ldr	x1, [x21]
     54c:	eb010000 	subs	x0, x0, x1
     550:	d2800001 	mov	x1, #0x0                   	// #0
     554:	540002c0 	b.eq	5ac <trace_vprintf+0x200>  // b.none
     558:	94000056 	bl	6b0 <__stack_chk_fail>
trace_level_to_string():
/home/build/bsp/optee_os/lib/libutils/ext/trace.c:50
     55c:	528009a3 	mov	w3, #0x4d                  	// #77
     560:	17ffffb0 	b	420 <trace_vprintf+0x74>
print_thread_id():
/home/build/bsp/optee_os/lib/libutils/ext/trace.c:72
     564:	aa1c03e1 	mov	x1, x28
     568:	aa1b03e0 	mov	x0, x27
     56c:	90000084 	adrp	x4, 10000 <__func__.0+0x28>
     570:	52800023 	mov	w3, #0x1                   	// #1
     574:	91106484 	add	x4, x4, #0x419
     578:	90000082 	adrp	x2, 10000 <__func__.0+0x28>
     57c:	911b3842 	add	x2, x2, #0x6ce
     580:	9400009f 	bl	7fc <snprintk>
     584:	17ffffc7 	b	4a0 <trace_vprintf+0xf4>
trace_vprintf():
/home/build/bsp/optee_os/lib/libutils/ext/trace.c:179
     588:	f103fb5f 	cmp	x26, #0xfe
     58c:	54fffda8 	b.hi	540 <trace_vprintf+0x194>  // b.pmore
/home/build/bsp/optee_os/lib/libutils/ext/trace.c:181
     590:	91000753 	add	x19, x26, #0x1
     594:	52800400 	mov	w0, #0x20                  	// #32
     598:	383a6a80 	strb	w0, [x20, x26]
/home/build/bsp/optee_os/lib/libutils/ext/trace.c:182
     59c:	38336a9f 	strb	wzr, [x20, x19]
     5a0:	17ffffcd 	b	4d4 <trace_vprintf+0x128>
/home/build/bsp/optee_os/lib/libutils/ext/trace.c:194
     5a4:	d1000673 	sub	x19, x19, #0x1
     5a8:	17ffffde 	b	520 <trace_vprintf+0x174>
/home/build/bsp/optee_os/lib/libutils/ext/trace.c:199
     5ac:	a94153f3 	ldp	x19, x20, [sp, #16]
     5b0:	a9425bf5 	ldp	x21, x22, [sp, #32]
     5b4:	a94363f7 	ldp	x23, x24, [sp, #48]
     5b8:	a9446bf9 	ldp	x25, x26, [sp, #64]
     5bc:	a94573fb 	ldp	x27, x28, [sp, #80]
     5c0:	a8d97bfd 	ldp	x29, x30, [sp], #400
     5c4:	d65f03c0 	ret

00000000000005c8 <trace_printf>:
trace_printf():
/home/build/bsp/optee_os/lib/libutils/ext/trace.c:120
     5c8:	a9ad7bfd 	stp	x29, x30, [sp, #-304]!
     5cc:	910003fd 	mov	x29, sp
     5d0:	a90153f3 	stp	x19, x20, [sp, #16]
     5d4:	d0000093 	adrp	x19, 12000 <_DYNAMIC>
     5d8:	aa0003f4 	mov	x20, x0
     5dc:	f9409a60 	ldr	x0, [x19, #304]
     5e0:	a9025bf5 	stp	x21, x22, [sp, #32]
     5e4:	2a0103f5 	mov	w21, w1
     5e8:	a90363f7 	stp	x23, x24, [sp, #48]
     5ec:	2a0203f6 	mov	w22, w2
     5f0:	12001c78 	and	w24, w3, #0xff
     5f4:	3d8027e0 	str	q0, [sp, #144]
     5f8:	aa0403f7 	mov	x23, x4
/home/build/bsp/optee_os/lib/libutils/ext/trace.c:124
     5fc:	d2800402 	mov	x2, #0x20                  	// #32
/home/build/bsp/optee_os/lib/libutils/ext/trace.c:120
     600:	3d802be1 	str	q1, [sp, #160]
     604:	3d802fe2 	str	q2, [sp, #176]
     608:	3d8033e3 	str	q3, [sp, #192]
     60c:	3d8037e4 	str	q4, [sp, #208]
     610:	3d803be5 	str	q5, [sp, #224]
     614:	3d803fe6 	str	q6, [sp, #240]
     618:	3d8043e7 	str	q7, [sp, #256]
     61c:	a9119be5 	stp	x5, x6, [sp, #280]
/home/build/bsp/optee_os/lib/libutils/ext/trace.c:124
     620:	910103e5 	add	x5, sp, #0x40
/home/build/bsp/optee_os/lib/libutils/ext/trace.c:120
     624:	f90097e7 	str	x7, [sp, #296]
     628:	f9400001 	ldr	x1, [x0]
     62c:	f90047e1 	str	x1, [sp, #136]
     630:	d2800001 	mov	x1, #0x0                   	// #0
/home/build/bsp/optee_os/lib/libutils/ext/trace.c:123
     634:	9104c3e0 	add	x0, sp, #0x130
     638:	a90683e0 	stp	x0, x0, [sp, #104]
     63c:	910443e0 	add	x0, sp, #0x110
/home/build/bsp/optee_os/lib/libutils/ext/trace.c:124
     640:	9101a3e1 	add	x1, sp, #0x68
/home/build/bsp/optee_os/lib/libutils/ext/trace.c:123
     644:	f9003fe0 	str	x0, [sp, #120]
     648:	128002e0 	mov	w0, #0xffffffe8            	// #-24
     64c:	b90083e0 	str	w0, [sp, #128]
     650:	12800fe0 	mov	w0, #0xffffff80            	// #-128
     654:	b90087e0 	str	w0, [sp, #132]
/home/build/bsp/optee_os/lib/libutils/ext/trace.c:124
     658:	aa0503e0 	mov	x0, x5
     65c:	97fffe69 	bl	0 <memcpy>
     660:	aa0003e5 	mov	x5, x0
     664:	2a1503e1 	mov	w1, w21
     668:	aa1403e0 	mov	x0, x20
     66c:	aa1703e4 	mov	x4, x23
     670:	2a1803e3 	mov	w3, w24
     674:	2a1603e2 	mov	w2, w22
     678:	97ffff4d 	bl	3ac <trace_vprintf>
/home/build/bsp/optee_os/lib/libutils/ext/trace.c:126
     67c:	f9409a73 	ldr	x19, [x19, #304]
     680:	f94047e0 	ldr	x0, [sp, #136]
     684:	f9400261 	ldr	x1, [x19]
     688:	eb010000 	subs	x0, x0, x1
     68c:	d2800001 	mov	x1, #0x0                   	// #0
     690:	54000040 	b.eq	698 <trace_printf+0xd0>  // b.none
     694:	94000007 	bl	6b0 <__stack_chk_fail>
     698:	a94153f3 	ldp	x19, x20, [sp, #16]
     69c:	a9425bf5 	ldp	x21, x22, [sp, #32]
     6a0:	a94363f7 	ldp	x23, x24, [sp, #48]
     6a4:	a8d37bfd 	ldp	x29, x30, [sp], #304
     6a8:	d65f03c0 	ret

00000000000006ac <dhex_dump>:
dhex_dump():
/home/build/bsp/optee_os/lib/libutils/ext/trace.c:309
     6ac:	d65f03c0 	ret

00000000000006b0 <__stack_chk_fail>:
__stack_chk_fail():
/home/build/bsp/optee_os/lib/libutils/isoc/stack_check.c:24
     6b0:	a9bf7bfd 	stp	x29, x30, [sp, #-16]!
/home/build/bsp/optee_os/lib/libutils/isoc/stack_check.c:25
     6b4:	90000084 	adrp	x4, 10000 <__func__.0+0x28>
     6b8:	52800023 	mov	w3, #0x1                   	// #1
/home/build/bsp/optee_os/lib/libutils/isoc/stack_check.c:24
     6bc:	910003fd 	mov	x29, sp
/home/build/bsp/optee_os/lib/libutils/isoc/stack_check.c:25
     6c0:	911b7c84 	add	x4, x4, #0x6df
     6c4:	52800022 	mov	w2, #0x1                   	// #1
     6c8:	52800001 	mov	w1, #0x0                   	// #0
     6cc:	d2800000 	mov	x0, #0x0                   	// #0
     6d0:	97ffffbe 	bl	5c8 <trace_printf>
/home/build/bsp/optee_os/lib/libutils/isoc/stack_check.c:27 (discriminator 1)
     6d4:	1299fe00 	mov	w0, #0xffff300f            	// #-53233
     6d8:	94000660 	bl	2058 <_utee_panic>
/home/build/bsp/optee_os/lib/libutils/isoc/stack_check.c:26 (discriminator 1)
     6dc:	17fffffe 	b	6d4 <__stack_chk_fail+0x24>

00000000000006e0 <__vsnprintf>:
__vsnprintf():
/home/build/bsp/optee_os/lib/libutils/ext/snprintk.c:138
     6e0:	a9b97bfd 	stp	x29, x30, [sp, #-112]!
     6e4:	d0000085 	adrp	x5, 12000 <_DYNAMIC>
     6e8:	910003fd 	mov	x29, sp
     6ec:	f94098a5 	ldr	x5, [x5, #304]
     6f0:	a90153f3 	stp	x19, x20, [sp, #16]
     6f4:	aa0103f4 	mov	x20, x1
     6f8:	a9025bf5 	stp	x21, x22, [sp, #32]
     6fc:	aa0003f3 	mov	x19, x0
/home/build/bsp/optee_os/lib/libutils/ext/snprintk.c:142
     700:	8b140016 	add	x22, x0, x20
/home/build/bsp/optee_os/lib/libutils/ext/snprintk.c:138
     704:	f9001bf7 	str	x23, [sp, #48]
     708:	aa0303e1 	mov	x1, x3
     70c:	aa0203f5 	mov	x21, x2
     710:	12001c97 	and	w23, w4, #0xff
     714:	f94000a0 	ldr	x0, [x5]
     718:	f90037e0 	str	x0, [sp, #104]
     71c:	d2800000 	mov	x0, #0x0                   	// #0
/home/build/bsp/optee_os/lib/libutils/ext/snprintk.c:143
     720:	910103e5 	add	x5, sp, #0x40
     724:	aa0503e0 	mov	x0, x5
     728:	d2800402 	mov	x2, #0x20                  	// #32
/home/build/bsp/optee_os/lib/libutils/ext/snprintk.c:142
     72c:	f90033f6 	str	x22, [sp, #96]
/home/build/bsp/optee_os/lib/libutils/ext/snprintk.c:143
     730:	97fffe34 	bl	0 <memcpy>
     734:	aa0003e3 	mov	x3, x0
     738:	2a1703e4 	mov	w4, w23
     73c:	aa1303e2 	mov	x2, x19
     740:	910183e1 	add	x1, sp, #0x60
     744:	aa1503e0 	mov	x0, x21
     748:	94000061 	bl	8cc <kprintf.constprop.0>
/home/build/bsp/optee_os/lib/libutils/ext/snprintk.c:144
     74c:	f100027f 	cmp	x19, #0x0
     750:	fa401a84 	ccmp	x20, #0x0, #0x4, ne  // ne = any
     754:	540000a0 	b.eq	768 <__vsnprintf+0x88>  // b.none
/home/build/bsp/optee_os/lib/libutils/ext/snprintk.c:146
     758:	93407c01 	sxtw	x1, w0
     75c:	eb20c29f 	cmp	x20, w0, sxtw
     760:	54000148 	b.hi	788 <__vsnprintf+0xa8>  // b.pmore
/home/build/bsp/optee_os/lib/libutils/ext/snprintk.c:147
     764:	381ff2df 	sturb	wzr, [x22, #-1]
/home/build/bsp/optee_os/lib/libutils/ext/snprintk.c:152
     768:	d0000085 	adrp	x5, 12000 <_DYNAMIC>
     76c:	f94098a5 	ldr	x5, [x5, #304]
     770:	f94037e1 	ldr	x1, [sp, #104]
     774:	f94000a2 	ldr	x2, [x5]
     778:	eb020021 	subs	x1, x1, x2
     77c:	d2800002 	mov	x2, #0x0                   	// #0
     780:	54000080 	b.eq	790 <__vsnprintf+0xb0>  // b.none
     784:	97ffffcb 	bl	6b0 <__stack_chk_fail>
/home/build/bsp/optee_os/lib/libutils/ext/snprintk.c:149
     788:	38216a7f 	strb	wzr, [x19, x1]
/home/build/bsp/optee_os/lib/libutils/ext/snprintk.c:151
     78c:	17fffff7 	b	768 <__vsnprintf+0x88>
/home/build/bsp/optee_os/lib/libutils/ext/snprintk.c:152
     790:	a94153f3 	ldp	x19, x20, [sp, #16]
     794:	a9425bf5 	ldp	x21, x22, [sp, #32]
     798:	f9401bf7 	ldr	x23, [sp, #48]
     79c:	a8c77bfd 	ldp	x29, x30, [sp], #112
     7a0:	d65f03c0 	ret

00000000000007a4 <vsnprintk>:
vsnprintk():
/home/build/bsp/optee_os/lib/libutils/ext/snprintk.c:130
     7a4:	a9bb7bfd 	stp	x29, x30, [sp, #-80]!
/home/build/bsp/optee_os/lib/libutils/ext/snprintk.c:131
     7a8:	9100c3e4 	add	x4, sp, #0x30
/home/build/bsp/optee_os/lib/libutils/ext/snprintk.c:130
     7ac:	910003fd 	mov	x29, sp
     7b0:	a90153f3 	stp	x19, x20, [sp, #16]
     7b4:	aa0003f3 	mov	x19, x0
     7b8:	aa0103f4 	mov	x20, x1
/home/build/bsp/optee_os/lib/libutils/ext/snprintk.c:131
     7bc:	aa0403e0 	mov	x0, x4
/home/build/bsp/optee_os/lib/libutils/ext/snprintk.c:130
     7c0:	aa0303e1 	mov	x1, x3
     7c4:	f90013f5 	str	x21, [sp, #32]
     7c8:	aa0203f5 	mov	x21, x2
/home/build/bsp/optee_os/lib/libutils/ext/snprintk.c:131
     7cc:	d2800402 	mov	x2, #0x20                  	// #32
     7d0:	97fffe0c 	bl	0 <memcpy>
     7d4:	aa1503e2 	mov	x2, x21
     7d8:	aa0003e3 	mov	x3, x0
     7dc:	aa1403e1 	mov	x1, x20
     7e0:	aa1303e0 	mov	x0, x19
     7e4:	52800024 	mov	w4, #0x1                   	// #1
     7e8:	97ffffbe 	bl	6e0 <__vsnprintf>
/home/build/bsp/optee_os/lib/libutils/ext/snprintk.c:132
     7ec:	a94153f3 	ldp	x19, x20, [sp, #16]
     7f0:	f94013f5 	ldr	x21, [sp, #32]
     7f4:	a8c57bfd 	ldp	x29, x30, [sp], #80
     7f8:	d65f03c0 	ret

00000000000007fc <snprintk>:
snprintk():
/home/build/bsp/optee_os/lib/libutils/ext/snprintk.c:113
     7fc:	a9ad7bfd 	stp	x29, x30, [sp, #-304]!
     800:	910003fd 	mov	x29, sp
     804:	a90153f3 	stp	x19, x20, [sp, #16]
     808:	d0000093 	adrp	x19, 12000 <_DYNAMIC>
     80c:	aa0003f4 	mov	x20, x0
     810:	f9409a60 	ldr	x0, [x19, #304]
     814:	a9025bf5 	stp	x21, x22, [sp, #32]
     818:	aa0103f5 	mov	x21, x1
     81c:	3d8023e0 	str	q0, [sp, #128]
     820:	aa0203f6 	mov	x22, x2
/home/build/bsp/optee_os/lib/libutils/ext/snprintk.c:118
     824:	d2800402 	mov	x2, #0x20                  	// #32
/home/build/bsp/optee_os/lib/libutils/ext/snprintk.c:113
     828:	3d8027e1 	str	q1, [sp, #144]
     82c:	3d802be2 	str	q2, [sp, #160]
     830:	3d802fe3 	str	q3, [sp, #176]
     834:	3d8033e4 	str	q4, [sp, #192]
     838:	3d8037e5 	str	q5, [sp, #208]
     83c:	3d803be6 	str	q6, [sp, #224]
     840:	3d803fe7 	str	q7, [sp, #240]
     844:	a91093e3 	stp	x3, x4, [sp, #264]
/home/build/bsp/optee_os/lib/libutils/ext/snprintk.c:118
     848:	9100c3e3 	add	x3, sp, #0x30
/home/build/bsp/optee_os/lib/libutils/ext/snprintk.c:113
     84c:	a9119be5 	stp	x5, x6, [sp, #280]
     850:	f90097e7 	str	x7, [sp, #296]
     854:	f9400001 	ldr	x1, [x0]
     858:	f9003fe1 	str	x1, [sp, #120]
     85c:	d2800001 	mov	x1, #0x0                   	// #0
/home/build/bsp/optee_os/lib/libutils/ext/snprintk.c:117
     860:	9104c3e0 	add	x0, sp, #0x130
     864:	a90583e0 	stp	x0, x0, [sp, #88]
     868:	910403e0 	add	x0, sp, #0x100
/home/build/bsp/optee_os/lib/libutils/ext/snprintk.c:118
     86c:	910163e1 	add	x1, sp, #0x58
/home/build/bsp/optee_os/lib/libutils/ext/snprintk.c:117
     870:	f90037e0 	str	x0, [sp, #104]
     874:	128004e0 	mov	w0, #0xffffffd8            	// #-40
     878:	b90073e0 	str	w0, [sp, #112]
     87c:	12800fe0 	mov	w0, #0xffffff80            	// #-128
     880:	b90077e0 	str	w0, [sp, #116]
/home/build/bsp/optee_os/lib/libutils/ext/snprintk.c:118
     884:	aa0303e0 	mov	x0, x3
     888:	97fffdde 	bl	0 <memcpy>
     88c:	aa0003e3 	mov	x3, x0
     890:	aa1603e2 	mov	x2, x22
     894:	aa1503e1 	mov	x1, x21
     898:	aa1403e0 	mov	x0, x20
     89c:	97ffffc2 	bl	7a4 <vsnprintk>
/home/build/bsp/optee_os/lib/libutils/ext/snprintk.c:122
     8a0:	f9409a73 	ldr	x19, [x19, #304]
     8a4:	f9403fe1 	ldr	x1, [sp, #120]
     8a8:	f9400262 	ldr	x2, [x19]
     8ac:	eb020021 	subs	x1, x1, x2
     8b0:	d2800002 	mov	x2, #0x0                   	// #0
     8b4:	54000040 	b.eq	8bc <snprintk+0xc0>  // b.none
     8b8:	97ffff7e 	bl	6b0 <__stack_chk_fail>
     8bc:	a94153f3 	ldp	x19, x20, [sp, #16]
     8c0:	a9425bf5 	ldp	x21, x22, [sp, #32]
     8c4:	a8d37bfd 	ldp	x29, x30, [sp], #304
     8c8:	d65f03c0 	ret

00000000000008cc <kprintf.constprop.0>:
kprintf():
/home/build/bsp/optee_os/lib/libutils/ext/snprintk.c:242
     8cc:	d103c3ff 	sub	sp, sp, #0xf0
     8d0:	aa0103e9 	mov	x9, x1
     8d4:	a9037bfd 	stp	x29, x30, [sp, #48]
     8d8:	9100c3fd 	add	x29, sp, #0x30
     8dc:	a90873fb 	stp	x27, x28, [sp, #128]
     8e0:	aa0003fc 	mov	x28, x0
     8e4:	12001c80 	and	w0, w4, #0xff
     8e8:	b900abe0 	str	w0, [sp, #168]
     8ec:	d0000080 	adrp	x0, 12000 <_DYNAMIC>
     8f0:	a90453f3 	stp	x19, x20, [sp, #64]
     8f4:	b9401874 	ldr	w20, [x3, #24]
     8f8:	f9409800 	ldr	x0, [x0, #304]
     8fc:	a9055bf5 	stp	x21, x22, [sp, #80]
     900:	aa0203f6 	mov	x22, x2
     904:	a90663f7 	stp	x23, x24, [sp, #96]
     908:	a9076bf9 	stp	x25, x26, [sp, #112]
     90c:	f9400001 	ldr	x1, [x0]
     910:	f90077e1 	str	x1, [sp, #232]
     914:	d2800001 	mov	x1, #0x0                   	// #0
     918:	a9406c73 	ldp	x19, x27, [x3]
/home/build/bsp/optee_os/lib/libutils/ext/snprintk.c:264
     91c:	b4000489 	cbz	x9, 9ac <kprintf.constprop.0+0xe0>
/home/build/bsp/optee_os/lib/libutils/ext/snprintk.c:265
     920:	f9400139 	ldr	x25, [x9]
/home/build/bsp/optee_os/lib/libutils/ext/snprintk.c:297
     924:	f0000078 	adrp	x24, f000 <__text_end+0x1e98>
/home/build/bsp/optee_os/lib/libutils/ext/snprintk.c:275
     928:	d2800017 	mov	x23, #0x0                   	// #0
/home/build/bsp/optee_os/lib/libutils/ext/snprintk.c:297
     92c:	913fc300 	add	x0, x24, #0xff0
/home/build/bsp/optee_os/lib/libutils/ext/snprintk.c:273
     930:	5280001a 	mov	w26, #0x0                   	// #0
/home/build/bsp/optee_os/lib/libutils/ext/snprintk.c:297
     934:	f9004fe0 	str	x0, [sp, #152]
/home/build/bsp/optee_os/lib/libutils/ext/snprintk.c:281
     938:	39400380 	ldrb	w0, [x28]
     93c:	7100941f 	cmp	w0, #0x25
     940:	7a401804 	ccmp	w0, #0x0, #0x4, ne  // ne = any
     944:	54000381 	b.ne	9b4 <kprintf.constprop.0+0xe8>  // b.any
/home/build/bsp/optee_os/lib/libutils/ext/snprintk.c:285
     948:	340051a0 	cbz	w0, 137c <kprintf.constprop.0+0xab0>
/home/build/bsp/optee_os/lib/libutils/ext/snprintk.c:293
     94c:	12800005 	mov	w5, #0xffffffff            	// #-1
/home/build/bsp/optee_os/lib/libutils/ext/snprintk.c:297
     950:	90000082 	adrp	x2, 10000 <__func__.0+0x28>
/home/build/bsp/optee_os/lib/libutils/ext/snprintk.c:288
     954:	9100079c 	add	x28, x28, #0x1
     958:	2a1403e4 	mov	w4, w20
     95c:	aa1303e3 	mov	x3, x19
/home/build/bsp/optee_os/lib/libutils/ext/snprintk.c:297
     960:	91003042 	add	x2, x2, #0xc
/home/build/bsp/optee_os/lib/libutils/ext/snprintk.c:330
     964:	2a0503e7 	mov	w7, w5
/home/build/bsp/optee_os/lib/libutils/ext/snprintk.c:294
     968:	52800001 	mov	w1, #0x0                   	// #0
/home/build/bsp/optee_os/lib/libutils/ext/snprintk.c:292
     96c:	5280000b 	mov	w11, #0x0                   	// #0
/home/build/bsp/optee_os/lib/libutils/ext/snprintk.c:290
     970:	52800015 	mov	w21, #0x0                   	// #0
/home/build/bsp/optee_os/lib/libutils/ext/snprintk.c:305
     974:	5280040d 	mov	w13, #0x20                  	// #32
/home/build/bsp/optee_os/lib/libutils/ext/snprintk.c:296
     978:	38401798 	ldrb	w24, [x28], #1
/home/build/bsp/optee_os/lib/libutils/ext/snprintk.c:297
     97c:	7100e71f 	cmp	w24, #0x39
     980:	5400036c 	b.gt	9ec <kprintf.constprop.0+0x120>
     984:	71007f1f 	cmp	w24, #0x1f
     988:	54004f8d 	b.le	1378 <kprintf.constprop.0+0xaac>
     98c:	51008300 	sub	w0, w24, #0x20
     990:	7100641f 	cmp	w0, #0x19
     994:	54000328 	b.hi	9f8 <kprintf.constprop.0+0x12c>  // b.pmore
     998:	f9404fe6 	ldr	x6, [sp, #152]
     99c:	386048c0 	ldrb	w0, [x6, w0, uxtw]
     9a0:	10000066 	adr	x6, 9ac <kprintf.constprop.0+0xe0>
     9a4:	8b2088c0 	add	x0, x6, w0, sxtb #2
     9a8:	d61f0000 	br	x0
/home/build/bsp/optee_os/lib/libutils/ext/snprintk.c:267
     9ac:	d2800019 	mov	x25, #0x0                   	// #0
     9b0:	17ffffdd 	b	924 <kprintf.constprop.0+0x58>
/home/build/bsp/optee_os/lib/libutils/ext/snprintk.c:282
     9b4:	1100075a 	add	w26, w26, #0x1
/home/build/bsp/optee_os/lib/libutils/ext/snprintk.c:283
     9b8:	b40000b6 	cbz	x22, 9cc <kprintf.constprop.0+0x100>
     9bc:	f100013f 	cmp	x9, #0x0
     9c0:	fa5912c0 	ccmp	x22, x25, #0x0, ne  // ne = any
     9c4:	54000042 	b.cs	9cc <kprintf.constprop.0+0x100>  // b.hs, b.nlast
     9c8:	380016c0 	strb	w0, [x22], #1
/home/build/bsp/optee_os/lib/libutils/ext/snprintk.c:281
     9cc:	9100079c 	add	x28, x28, #0x1
     9d0:	17ffffda 	b	938 <kprintf.constprop.0+0x6c>
/home/build/bsp/optee_os/lib/libutils/ext/snprintk.c:297
     9d4:	52800561 	mov	w1, #0x2b                  	// #43
     9d8:	17ffffe8 	b	978 <kprintf.constprop.0+0xac>
     9dc:	78605840 	ldrh	w0, [x2, w0, uxtw #1]
     9e0:	10000066 	adr	x6, 9ec <kprintf.constprop.0+0x120>
     9e4:	8b20a8c0 	add	x0, x6, w0, sxth #2
     9e8:	d61f0000 	br	x0
     9ec:	51011300 	sub	w0, w24, #0x44
     9f0:	7100d81f 	cmp	w0, #0x36
     9f4:	54ffff49 	b.ls	9dc <kprintf.constprop.0+0x110>  // b.plast
/home/build/bsp/optee_os/lib/libutils/ext/snprintk.c:554
     9f8:	2a0403f4 	mov	w20, w4
     9fc:	aa0303f3 	mov	x19, x3
/home/build/bsp/optee_os/lib/libutils/ext/snprintk.c:551
     a00:	390303f8 	strb	w24, [sp, #192]
/home/build/bsp/optee_os/lib/libutils/ext/snprintk.c:554
     a04:	1400005a 	b	b6c <kprintf.constprop.0+0x2a0>
/home/build/bsp/optee_os/lib/libutils/ext/snprintk.c:305
     a08:	7100003f 	cmp	w1, #0x0
     a0c:	1a8d1021 	csel	w1, w1, w13, ne  // ne = any
     a10:	17ffffda 	b	978 <kprintf.constprop.0+0xac>
/home/build/bsp/optee_os/lib/libutils/ext/snprintk.c:308
     a14:	320002b5 	orr	w21, w21, #0x1
/home/build/bsp/optee_os/lib/libutils/ext/snprintk.c:309
     a18:	17ffffd8 	b	978 <kprintf.constprop.0+0xac>
/home/build/bsp/optee_os/lib/libutils/ext/snprintk.c:317
     a1c:	37f80124 	tbnz	w4, #31, a40 <kprintf.constprop.0+0x174>
     a20:	91002c66 	add	x6, x3, #0xb
     a24:	aa0303e0 	mov	x0, x3
     a28:	927df0c3 	and	x3, x6, #0xfffffffffffffff8
     a2c:	b940000b 	ldr	w11, [x0]
     a30:	36fffa4b 	tbz	w11, #31, 978 <kprintf.constprop.0+0xac>
/home/build/bsp/optee_os/lib/libutils/ext/snprintk.c:319
     a34:	4b0b03eb 	neg	w11, w11
/home/build/bsp/optee_os/lib/libutils/ext/snprintk.c:322
     a38:	321e02b5 	orr	w21, w21, #0x4
/home/build/bsp/optee_os/lib/libutils/ext/snprintk.c:323
     a3c:	17ffffcf 	b	978 <kprintf.constprop.0+0xac>
/home/build/bsp/optee_os/lib/libutils/ext/snprintk.c:317
     a40:	11002086 	add	w6, w4, #0x8
     a44:	710000df 	cmp	w6, #0x0
     a48:	540000cd 	b.le	a60 <kprintf.constprop.0+0x194>
     a4c:	91002c68 	add	x8, x3, #0xb
     a50:	aa0303e0 	mov	x0, x3
     a54:	2a0603e4 	mov	w4, w6
     a58:	927df103 	and	x3, x8, #0xfffffffffffffff8
     a5c:	17fffff4 	b	a2c <kprintf.constprop.0+0x160>
     a60:	8b24c360 	add	x0, x27, w4, sxtw
     a64:	2a0603e4 	mov	w4, w6
     a68:	17fffff1 	b	a2c <kprintf.constprop.0+0x160>
/home/build/bsp/optee_os/lib/libutils/ext/snprintk.c:328
     a6c:	38401798 	ldrb	w24, [x28], #1
     a70:	7100ab1f 	cmp	w24, #0x2a
     a74:	54000361 	b.ne	ae0 <kprintf.constprop.0+0x214>  // b.any
/home/build/bsp/optee_os/lib/libutils/ext/snprintk.c:329
     a78:	37f80144 	tbnz	w4, #31, aa0 <kprintf.constprop.0+0x1d4>
     a7c:	91002c60 	add	x0, x3, #0xb
     a80:	2a0403e6 	mov	w6, w4
     a84:	927df000 	and	x0, x0, #0xfffffffffffffff8
/home/build/bsp/optee_os/lib/libutils/ext/snprintk.c:330
     a88:	b9400065 	ldr	w5, [x3]
/home/build/bsp/optee_os/lib/libutils/ext/snprintk.c:331
     a8c:	2a0603e4 	mov	w4, w6
     a90:	aa0003e3 	mov	x3, x0
/home/build/bsp/optee_os/lib/libutils/ext/snprintk.c:330
     a94:	710000bf 	cmp	w5, #0x0
     a98:	1a87a0a5 	csel	w5, w5, w7, ge  // ge = tcont
/home/build/bsp/optee_os/lib/libutils/ext/snprintk.c:331
     a9c:	17ffffb7 	b	978 <kprintf.constprop.0+0xac>
/home/build/bsp/optee_os/lib/libutils/ext/snprintk.c:329
     aa0:	11002086 	add	w6, w4, #0x8
     aa4:	710000df 	cmp	w6, #0x0
     aa8:	5400008d 	b.le	ab8 <kprintf.constprop.0+0x1ec>
     aac:	91002c60 	add	x0, x3, #0xb
     ab0:	927df000 	and	x0, x0, #0xfffffffffffffff8
     ab4:	17fffff5 	b	a88 <kprintf.constprop.0+0x1bc>
     ab8:	aa0303e0 	mov	x0, x3
     abc:	8b24c363 	add	x3, x27, w4, sxtw
     ac0:	17fffff2 	b	a88 <kprintf.constprop.0+0x1bc>
/home/build/bsp/optee_os/lib/libutils/ext/snprintk.c:335
     ac4:	52800146 	mov	w6, #0xa                   	// #10
/home/build/bsp/optee_os/lib/libutils/ext/snprintk.c:336
     ac8:	38401798 	ldrb	w24, [x28], #1
/home/build/bsp/optee_os/lib/libutils/ext/snprintk.c:335
     acc:	1b0600a5 	madd	w5, w5, w6, w0
/home/build/bsp/optee_os/lib/libutils/ext/snprintk.c:334
     ad0:	5100c300 	sub	w0, w24, #0x30
     ad4:	7100241f 	cmp	w0, #0x9
     ad8:	54ffff69 	b.ls	ac4 <kprintf.constprop.0+0x1f8>  // b.plast
     adc:	17ffffa8 	b	97c <kprintf.constprop.0+0xb0>
/home/build/bsp/optee_os/lib/libutils/ext/snprintk.c:333
     ae0:	52800005 	mov	w5, #0x0                   	// #0
     ae4:	17fffffb 	b	ad0 <kprintf.constprop.0+0x204>
/home/build/bsp/optee_os/lib/libutils/ext/snprintk.c:346
     ae8:	321602b5 	orr	w21, w21, #0x400
/home/build/bsp/optee_os/lib/libutils/ext/snprintk.c:347
     aec:	17ffffa3 	b	978 <kprintf.constprop.0+0xac>
/home/build/bsp/optee_os/lib/libutils/ext/snprintk.c:297
     af0:	5280000b 	mov	w11, #0x0                   	// #0
/home/build/bsp/optee_os/lib/libutils/ext/snprintk.c:352
     af4:	5100c308 	sub	w8, w24, #0x30
     af8:	52800140 	mov	w0, #0xa                   	// #10
/home/build/bsp/optee_os/lib/libutils/ext/snprintk.c:353
     afc:	38401798 	ldrb	w24, [x28], #1
/home/build/bsp/optee_os/lib/libutils/ext/snprintk.c:352
     b00:	1b00216b 	madd	w11, w11, w0, w8
/home/build/bsp/optee_os/lib/libutils/ext/snprintk.c:354
     b04:	5100c300 	sub	w0, w24, #0x30
     b08:	7100241f 	cmp	w0, #0x9
     b0c:	54ffff49 	b.ls	af4 <kprintf.constprop.0+0x228>  // b.plast
     b10:	17ffff9b 	b	97c <kprintf.constprop.0+0xb0>
/home/build/bsp/optee_os/lib/libutils/ext/snprintk.c:358
     b14:	321a02b5 	orr	w21, w21, #0x40
/home/build/bsp/optee_os/lib/libutils/ext/snprintk.c:359
     b18:	17ffff98 	b	978 <kprintf.constprop.0+0xac>
/home/build/bsp/optee_os/lib/libutils/ext/snprintk.c:361
     b1c:	321902b5 	orr	w21, w21, #0x80
/home/build/bsp/optee_os/lib/libutils/ext/snprintk.c:362
     b20:	17ffff96 	b	978 <kprintf.constprop.0+0xac>
/home/build/bsp/optee_os/lib/libutils/ext/snprintk.c:364
     b24:	39400380 	ldrb	w0, [x28]
     b28:	7101b01f 	cmp	w0, #0x6c
     b2c:	54000081 	b.ne	b3c <kprintf.constprop.0+0x270>  // b.any
/home/build/bsp/optee_os/lib/libutils/ext/snprintk.c:328
     b30:	9100079c 	add	x28, x28, #0x1
/home/build/bsp/optee_os/lib/libutils/ext/snprintk.c:372
     b34:	321b02b5 	orr	w21, w21, #0x20
/home/build/bsp/optee_os/lib/libutils/ext/snprintk.c:373
     b38:	17ffff90 	b	978 <kprintf.constprop.0+0xac>
/home/build/bsp/optee_os/lib/libutils/ext/snprintk.c:368
     b3c:	321c02b5 	orr	w21, w21, #0x10
     b40:	17ffff8e 	b	978 <kprintf.constprop.0+0xac>
/home/build/bsp/optee_os/lib/libutils/ext/snprintk.c:375
     b44:	321802b5 	orr	w21, w21, #0x100
/home/build/bsp/optee_os/lib/libutils/ext/snprintk.c:376
     b48:	17ffff8c 	b	978 <kprintf.constprop.0+0xac>
/home/build/bsp/optee_os/lib/libutils/ext/snprintk.c:378
     b4c:	321702b5 	orr	w21, w21, #0x200
/home/build/bsp/optee_os/lib/libutils/ext/snprintk.c:379
     b50:	17ffff8a 	b	978 <kprintf.constprop.0+0xac>
/home/build/bsp/optee_os/lib/libutils/ext/snprintk.c:381
     b54:	37f80164 	tbnz	w4, #31, b80 <kprintf.constprop.0+0x2b4>
     b58:	91002c73 	add	x19, x3, #0xb
     b5c:	2a0403f4 	mov	w20, w4
     b60:	927df273 	and	x19, x19, #0xfffffffffffffff8
     b64:	b9400060 	ldr	w0, [x3]
     b68:	390303e0 	strb	w0, [sp, #192]
/home/build/bsp/optee_os/lib/libutils/ext/snprintk.c:550
     b6c:	910303ed 	add	x13, sp, #0xc0
/home/build/bsp/optee_os/lib/libutils/ext/snprintk.c:552
     b70:	52800025 	mov	w5, #0x1                   	// #1
/home/build/bsp/optee_os/lib/libutils/ext/snprintk.c:291
     b74:	52800002 	mov	w2, #0x0                   	// #0
/home/build/bsp/optee_os/lib/libutils/ext/snprintk.c:553
     b78:	52800001 	mov	w1, #0x0                   	// #0
/home/build/bsp/optee_os/lib/libutils/ext/snprintk.c:554
     b7c:	140000fa 	b	f64 <kprintf.constprop.0+0x698>
/home/build/bsp/optee_os/lib/libutils/ext/snprintk.c:381
     b80:	11002094 	add	w20, w4, #0x8
     b84:	7100029f 	cmp	w20, #0x0
     b88:	5400008d 	b.le	b98 <kprintf.constprop.0+0x2cc>
     b8c:	91002c73 	add	x19, x3, #0xb
     b90:	927df273 	and	x19, x19, #0xfffffffffffffff8
     b94:	17fffff4 	b	b64 <kprintf.constprop.0+0x298>
     b98:	aa0303f3 	mov	x19, x3
     b9c:	8b24c363 	add	x3, x27, w4, sxtw
     ba0:	17fffff1 	b	b64 <kprintf.constprop.0+0x298>
/home/build/bsp/optee_os/lib/libutils/ext/snprintk.c:386
     ba4:	321c02b5 	orr	w21, w21, #0x10
/home/build/bsp/optee_os/lib/libutils/ext/snprintk.c:390
     ba8:	363802f5 	tbz	w21, #7, c04 <kprintf.constprop.0+0x338>
     bac:	37f80424 	tbnz	w4, #31, c30 <kprintf.constprop.0+0x364>
     bb0:	91003c73 	add	x19, x3, #0xf
     bb4:	2a0403f4 	mov	w20, w4
     bb8:	927df273 	and	x19, x19, #0xfffffffffffffff8
     bbc:	f9400062 	ldr	x2, [x3]
/home/build/bsp/optee_os/lib/libutils/ext/snprintk.c:391
     bc0:	b6f82d22 	tbz	x2, #63, 1164 <kprintf.constprop.0+0x898>
/home/build/bsp/optee_os/lib/libutils/ext/snprintk.c:392
     bc4:	cb0203e2 	neg	x2, x2
/home/build/bsp/optee_os/lib/libutils/ext/snprintk.c:395
     bc8:	52800020 	mov	w0, #0x1                   	// #1
/home/build/bsp/optee_os/lib/libutils/ext/snprintk.c:393
     bcc:	528005a1 	mov	w1, #0x2d                  	// #45
/home/build/bsp/optee_os/lib/libutils/ext/snprintk.c:494
     bd0:	310004bf 	cmn	w5, #0x1
     bd4:	54003b21 	b.ne	1338 <kprintf.constprop.0+0xa6c>  // b.any
/home/build/bsp/optee_os/lib/libutils/ext/snprintk.c:509
     bd8:	7100041f 	cmp	w0, #0x1
     bdc:	54002c80 	b.eq	116c <kprintf.constprop.0+0x8a0>  // b.none
     be0:	7100081f 	cmp	w0, #0x2
     be4:	54000ea1 	b.ne	db8 <kprintf.constprop.0+0x4ec>  // b.any
/home/build/bsp/optee_os/lib/libutils/ext/snprintk.c:502
     be8:	910397ed 	add	x13, sp, #0xe5
/home/build/bsp/optee_os/lib/libutils/ext/snprintk.c:531
     bec:	92400c40 	and	x0, x2, #0xf
/home/build/bsp/optee_os/lib/libutils/ext/snprintk.c:532
     bf0:	d344fc42 	lsr	x2, x2, #4
/home/build/bsp/optee_os/lib/libutils/ext/snprintk.c:531
     bf4:	38606ae0 	ldrb	w0, [x23, x0]
     bf8:	381ffda0 	strb	w0, [x13, #-1]!
/home/build/bsp/optee_os/lib/libutils/ext/snprintk.c:533
     bfc:	b5ffff82 	cbnz	x2, bec <kprintf.constprop.0+0x320>
     c00:	1400007b 	b	dec <kprintf.constprop.0+0x520>
/home/build/bsp/optee_os/lib/libutils/ext/snprintk.c:390
     c04:	3747fd55 	tbnz	w21, #8, bac <kprintf.constprop.0+0x2e0>
     c08:	374ffd35 	tbnz	w21, #9, bac <kprintf.constprop.0+0x2e0>
     c0c:	372ffd15 	tbnz	w21, #5, bac <kprintf.constprop.0+0x2e0>
     c10:	3727fcf5 	tbnz	w21, #4, bac <kprintf.constprop.0+0x2e0>
     c14:	36300335 	tbz	w21, #6, c78 <kprintf.constprop.0+0x3ac>
     c18:	37f801e4 	tbnz	w4, #31, c54 <kprintf.constprop.0+0x388>
     c1c:	91002c73 	add	x19, x3, #0xb
     c20:	2a0403f4 	mov	w20, w4
     c24:	927df273 	and	x19, x19, #0xfffffffffffffff8
     c28:	79800062 	ldrsh	x2, [x3]
     c2c:	17ffffe5 	b	bc0 <kprintf.constprop.0+0x2f4>
     c30:	11002094 	add	w20, w4, #0x8
     c34:	7100029f 	cmp	w20, #0x0
     c38:	5400008d 	b.le	c48 <kprintf.constprop.0+0x37c>
     c3c:	91003c73 	add	x19, x3, #0xf
     c40:	927df273 	and	x19, x19, #0xfffffffffffffff8
     c44:	17ffffde 	b	bbc <kprintf.constprop.0+0x2f0>
     c48:	aa0303f3 	mov	x19, x3
     c4c:	8b24c363 	add	x3, x27, w4, sxtw
     c50:	17ffffdb 	b	bbc <kprintf.constprop.0+0x2f0>
     c54:	11002094 	add	w20, w4, #0x8
     c58:	7100029f 	cmp	w20, #0x0
     c5c:	5400008d 	b.le	c6c <kprintf.constprop.0+0x3a0>
     c60:	91002c73 	add	x19, x3, #0xb
     c64:	927df273 	and	x19, x19, #0xfffffffffffffff8
     c68:	17fffff0 	b	c28 <kprintf.constprop.0+0x35c>
     c6c:	aa0303f3 	mov	x19, x3
     c70:	8b24c363 	add	x3, x27, w4, sxtw
     c74:	17ffffed 	b	c28 <kprintf.constprop.0+0x35c>
     c78:	37f800c4 	tbnz	w4, #31, c90 <kprintf.constprop.0+0x3c4>
     c7c:	91002c73 	add	x19, x3, #0xb
     c80:	2a0403f4 	mov	w20, w4
     c84:	927df273 	and	x19, x19, #0xfffffffffffffff8
     c88:	b9800062 	ldrsw	x2, [x3]
     c8c:	17ffffcd 	b	bc0 <kprintf.constprop.0+0x2f4>
     c90:	11002094 	add	w20, w4, #0x8
     c94:	7100029f 	cmp	w20, #0x0
     c98:	5400008d 	b.le	ca8 <kprintf.constprop.0+0x3dc>
     c9c:	91002c73 	add	x19, x3, #0xb
     ca0:	927df273 	and	x19, x19, #0xfffffffffffffff8
     ca4:	17fffff9 	b	c88 <kprintf.constprop.0+0x3bc>
     ca8:	aa0303f3 	mov	x19, x3
     cac:	8b24c363 	add	x3, x27, w4, sxtw
     cb0:	17fffff6 	b	c88 <kprintf.constprop.0+0x3bc>
/home/build/bsp/optee_os/lib/libutils/ext/snprintk.c:398
     cb4:	36380135 	tbz	w21, #7, cd8 <kprintf.constprop.0+0x40c>
/home/build/bsp/optee_os/lib/libutils/ext/snprintk.c:407
     cb8:	37f80284 	tbnz	w4, #31, d08 <kprintf.constprop.0+0x43c>
     cbc:	91003c73 	add	x19, x3, #0xf
     cc0:	2a0403f4 	mov	w20, w4
     cc4:	927df273 	and	x19, x19, #0xfffffffffffffff8
     cc8:	f9400060 	ldr	x0, [x3]
     ccc:	93407f41 	sxtw	x1, w26
     cd0:	f9000001 	str	x1, [x0]
     cd4:	17ffff19 	b	938 <kprintf.constprop.0+0x6c>
/home/build/bsp/optee_os/lib/libutils/ext/snprintk.c:400
     cd8:	3747ff15 	tbnz	w21, #8, cb8 <kprintf.constprop.0+0x3ec>
/home/build/bsp/optee_os/lib/libutils/ext/snprintk.c:402
     cdc:	374ffef5 	tbnz	w21, #9, cb8 <kprintf.constprop.0+0x3ec>
/home/build/bsp/optee_os/lib/libutils/ext/snprintk.c:404
     ce0:	372ffed5 	tbnz	w21, #5, cb8 <kprintf.constprop.0+0x3ec>
/home/build/bsp/optee_os/lib/libutils/ext/snprintk.c:406
     ce4:	3727feb5 	tbnz	w21, #4, cb8 <kprintf.constprop.0+0x3ec>
/home/build/bsp/optee_os/lib/libutils/ext/snprintk.c:408
     ce8:	36300355 	tbz	w21, #6, d50 <kprintf.constprop.0+0x484>
/home/build/bsp/optee_os/lib/libutils/ext/snprintk.c:409
     cec:	37f80204 	tbnz	w4, #31, d2c <kprintf.constprop.0+0x460>
     cf0:	91003c73 	add	x19, x3, #0xf
     cf4:	2a0403f4 	mov	w20, w4
     cf8:	927df273 	and	x19, x19, #0xfffffffffffffff8
     cfc:	f9400060 	ldr	x0, [x3]
     d00:	7900001a 	strh	w26, [x0]
     d04:	17ffff0d 	b	938 <kprintf.constprop.0+0x6c>
/home/build/bsp/optee_os/lib/libutils/ext/snprintk.c:407
     d08:	11002094 	add	w20, w4, #0x8
     d0c:	7100029f 	cmp	w20, #0x0
     d10:	5400008d 	b.le	d20 <kprintf.constprop.0+0x454>
     d14:	91003c73 	add	x19, x3, #0xf
     d18:	927df273 	and	x19, x19, #0xfffffffffffffff8
     d1c:	17ffffeb 	b	cc8 <kprintf.constprop.0+0x3fc>
     d20:	aa0303f3 	mov	x19, x3
     d24:	8b24c363 	add	x3, x27, w4, sxtw
     d28:	17ffffe8 	b	cc8 <kprintf.constprop.0+0x3fc>
/home/build/bsp/optee_os/lib/libutils/ext/snprintk.c:409
     d2c:	11002094 	add	w20, w4, #0x8
     d30:	7100029f 	cmp	w20, #0x0
     d34:	5400008d 	b.le	d44 <kprintf.constprop.0+0x478>
     d38:	91003c73 	add	x19, x3, #0xf
     d3c:	927df273 	and	x19, x19, #0xfffffffffffffff8
     d40:	17ffffef 	b	cfc <kprintf.constprop.0+0x430>
     d44:	aa0303f3 	mov	x19, x3
     d48:	8b24c363 	add	x3, x27, w4, sxtw
     d4c:	17ffffec 	b	cfc <kprintf.constprop.0+0x430>
/home/build/bsp/optee_os/lib/libutils/ext/snprintk.c:411
     d50:	37f800e4 	tbnz	w4, #31, d6c <kprintf.constprop.0+0x4a0>
     d54:	91003c73 	add	x19, x3, #0xf
     d58:	2a0403f4 	mov	w20, w4
     d5c:	927df273 	and	x19, x19, #0xfffffffffffffff8
     d60:	f9400060 	ldr	x0, [x3]
     d64:	b900001a 	str	w26, [x0]
     d68:	17fffef4 	b	938 <kprintf.constprop.0+0x6c>
     d6c:	11002094 	add	w20, w4, #0x8
     d70:	7100029f 	cmp	w20, #0x0
     d74:	5400008d 	b.le	d84 <kprintf.constprop.0+0x4b8>
     d78:	91003c73 	add	x19, x3, #0xf
     d7c:	927df273 	and	x19, x19, #0xfffffffffffffff8
     d80:	17fffff8 	b	d60 <kprintf.constprop.0+0x494>
     d84:	aa0303f3 	mov	x19, x3
     d88:	8b24c363 	add	x3, x27, w4, sxtw
     d8c:	17fffff5 	b	d60 <kprintf.constprop.0+0x494>
/home/build/bsp/optee_os/lib/libutils/ext/snprintk.c:414
     d90:	321c02b5 	orr	w21, w21, #0x10
/home/build/bsp/optee_os/lib/libutils/ext/snprintk.c:417
     d94:	36380355 	tbz	w21, #7, dfc <kprintf.constprop.0+0x530>
     d98:	37f80484 	tbnz	w4, #31, e28 <kprintf.constprop.0+0x55c>
     d9c:	91003c73 	add	x19, x3, #0xf
     da0:	2a0403f4 	mov	w20, w4
     da4:	927df273 	and	x19, x19, #0xfffffffffffffff8
     da8:	f9400062 	ldr	x2, [x3]
/home/build/bsp/optee_os/lib/libutils/ext/snprintk.c:494
     dac:	52800001 	mov	w1, #0x0                   	// #0
     db0:	310004bf 	cmn	w5, #0x1
     db4:	54002c01 	b.ne	1334 <kprintf.constprop.0+0xa68>  // b.any
/home/build/bsp/optee_os/lib/libutils/ext/snprintk.c:502
     db8:	910397ed 	add	x13, sp, #0xe5
/home/build/bsp/optee_os/lib/libutils/ext/snprintk.c:512
     dbc:	12000840 	and	w0, w2, #0x7
     dc0:	aa0d03e4 	mov	x4, x13
     dc4:	1100c000 	add	w0, w0, #0x30
     dc8:	381ffda0 	strb	w0, [x13, #-1]!
/home/build/bsp/optee_os/lib/libutils/ext/snprintk.c:513
     dcc:	d343fc42 	lsr	x2, x2, #3
/home/build/bsp/optee_os/lib/libutils/ext/snprintk.c:514
     dd0:	b5ffff62 	cbnz	x2, dbc <kprintf.constprop.0+0x4f0>
/home/build/bsp/optee_os/lib/libutils/ext/snprintk.c:516
     dd4:	360000d5 	tbz	w21, #0, dec <kprintf.constprop.0+0x520>
     dd8:	7100c01f 	cmp	w0, #0x30
     ddc:	54000080 	b.eq	dec <kprintf.constprop.0+0x520>  // b.none
/home/build/bsp/optee_os/lib/libutils/ext/snprintk.c:517
     de0:	52800600 	mov	w0, #0x30                  	// #48
     de4:	381ff1a0 	sturb	w0, [x13, #-1]
     de8:	d100088d 	sub	x13, x4, #0x2
/home/build/bsp/optee_os/lib/libutils/ext/snprintk.c:543
     dec:	2a0503e2 	mov	w2, w5
     df0:	910397e5 	add	x5, sp, #0xe5
     df4:	4b0d00a5 	sub	w5, w5, w13
     df8:	1400005b 	b	f64 <kprintf.constprop.0+0x698>
/home/build/bsp/optee_os/lib/libutils/ext/snprintk.c:417
     dfc:	3747fcf5 	tbnz	w21, #8, d98 <kprintf.constprop.0+0x4cc>
     e00:	374ffcd5 	tbnz	w21, #9, d98 <kprintf.constprop.0+0x4cc>
     e04:	372ffcb5 	tbnz	w21, #5, d98 <kprintf.constprop.0+0x4cc>
     e08:	3727fc95 	tbnz	w21, #4, d98 <kprintf.constprop.0+0x4cc>
     e0c:	36300335 	tbz	w21, #6, e70 <kprintf.constprop.0+0x5a4>
     e10:	37f801e4 	tbnz	w4, #31, e4c <kprintf.constprop.0+0x580>
     e14:	91002c73 	add	x19, x3, #0xb
     e18:	2a0403f4 	mov	w20, w4
     e1c:	927df273 	and	x19, x19, #0xfffffffffffffff8
     e20:	79400062 	ldrh	w2, [x3]
     e24:	17ffffe2 	b	dac <kprintf.constprop.0+0x4e0>
     e28:	11002094 	add	w20, w4, #0x8
     e2c:	7100029f 	cmp	w20, #0x0
     e30:	5400008d 	b.le	e40 <kprintf.constprop.0+0x574>
     e34:	91003c73 	add	x19, x3, #0xf
     e38:	927df273 	and	x19, x19, #0xfffffffffffffff8
     e3c:	17ffffdb 	b	da8 <kprintf.constprop.0+0x4dc>
     e40:	aa0303f3 	mov	x19, x3
     e44:	8b24c363 	add	x3, x27, w4, sxtw
     e48:	17ffffd8 	b	da8 <kprintf.constprop.0+0x4dc>
     e4c:	11002094 	add	w20, w4, #0x8
     e50:	7100029f 	cmp	w20, #0x0
     e54:	5400008d 	b.le	e64 <kprintf.constprop.0+0x598>
     e58:	91002c73 	add	x19, x3, #0xb
     e5c:	927df273 	and	x19, x19, #0xfffffffffffffff8
     e60:	17fffff0 	b	e20 <kprintf.constprop.0+0x554>
     e64:	aa0303f3 	mov	x19, x3
     e68:	8b24c363 	add	x3, x27, w4, sxtw
     e6c:	17ffffed 	b	e20 <kprintf.constprop.0+0x554>
     e70:	37f800c4 	tbnz	w4, #31, e88 <kprintf.constprop.0+0x5bc>
     e74:	91002c73 	add	x19, x3, #0xb
     e78:	2a0403f4 	mov	w20, w4
     e7c:	927df273 	and	x19, x19, #0xfffffffffffffff8
     e80:	b9400062 	ldr	w2, [x3]
     e84:	17ffffca 	b	dac <kprintf.constprop.0+0x4e0>
     e88:	11002094 	add	w20, w4, #0x8
     e8c:	7100029f 	cmp	w20, #0x0
     e90:	5400008d 	b.le	ea0 <kprintf.constprop.0+0x5d4>
     e94:	91002c73 	add	x19, x3, #0xb
     e98:	927df273 	and	x19, x19, #0xfffffffffffffff8
     e9c:	17fffff9 	b	e80 <kprintf.constprop.0+0x5b4>
     ea0:	aa0303f3 	mov	x19, x3
     ea4:	8b24c363 	add	x3, x27, w4, sxtw
     ea8:	17fffff6 	b	e80 <kprintf.constprop.0+0x5b4>
/home/build/bsp/optee_os/lib/libutils/ext/snprintk.c:421
     eac:	b940abe0 	ldr	w0, [sp, #168]
     eb0:	34000c80 	cbz	w0, 1040 <kprintf.constprop.0+0x774>
     eb4:	39400380 	ldrb	w0, [x28]
     eb8:	7101541f 	cmp	w0, #0x55
     ebc:	54000c21 	b.ne	1040 <kprintf.constprop.0+0x774>  // b.any
     ec0:	39400780 	ldrb	w0, [x28, #1]
     ec4:	7101b01f 	cmp	w0, #0x6c
     ec8:	54000bc1 	b.ne	1040 <kprintf.constprop.0+0x774>  // b.any
/home/build/bsp/optee_os/lib/libutils/ext/snprintk.c:426
     ecc:	91000b9c 	add	x28, x28, #0x2
/home/build/bsp/optee_os/lib/libutils/ext/snprintk.c:427
     ed0:	37f80a64 	tbnz	w4, #31, 101c <kprintf.constprop.0+0x750>
     ed4:	91003c73 	add	x19, x3, #0xf
     ed8:	2a0403f4 	mov	w20, w4
     edc:	927df273 	and	x19, x19, #0xfffffffffffffff8
     ee0:	f9400061 	ldr	x1, [x3]
uuid2str():
/home/build/bsp/optee_os/lib/libutils/ext/snprintk.c:229
     ee4:	910303ed 	add	x13, sp, #0xc0
     ee8:	90000082 	adrp	x2, 10000 <__func__.0+0x28>
     eec:	911bf842 	add	x2, x2, #0x6fe
     ef0:	f90053ed 	str	x13, [sp, #160]
     ef4:	39403c20 	ldrb	w0, [x1, #15]
     ef8:	39402427 	ldrb	w7, [x1, #9]
     efc:	39402026 	ldrb	w6, [x1, #8]
     f00:	79400c25 	ldrh	w5, [x1, #6]
     f04:	79400824 	ldrh	w4, [x1, #4]
     f08:	b9002be0 	str	w0, [sp, #40]
     f0c:	b900afeb 	str	w11, [sp, #172]
     f10:	39403820 	ldrb	w0, [x1, #14]
     f14:	b90023e0 	str	w0, [sp, #32]
     f18:	f9005be9 	str	x9, [sp, #176]
     f1c:	39403420 	ldrb	w0, [x1, #13]
     f20:	b9001be0 	str	w0, [sp, #24]
     f24:	39403020 	ldrb	w0, [x1, #12]
     f28:	b90013e0 	str	w0, [sp, #16]
     f2c:	39402c20 	ldrb	w0, [x1, #11]
     f30:	b9000be0 	str	w0, [sp, #8]
     f34:	39402820 	ldrb	w0, [x1, #10]
     f38:	b90003e0 	str	w0, [sp]
     f3c:	aa0d03e0 	mov	x0, x13
     f40:	b9400023 	ldr	w3, [x1]
     f44:	d28004a1 	mov	x1, #0x25                  	// #37
     f48:	97fffe2d 	bl	7fc <snprintk>
     f4c:	b940afeb 	ldr	w11, [sp, #172]
kprintf():
/home/build/bsp/optee_os/lib/libutils/ext/snprintk.c:466
     f50:	2a0003e5 	mov	w5, w0
     f54:	f94053ed 	ldr	x13, [sp, #160]
/home/build/bsp/optee_os/lib/libutils/ext/snprintk.c:291
     f58:	52800002 	mov	w2, #0x0                   	// #0
     f5c:	f9405be9 	ldr	x9, [sp, #176]
/home/build/bsp/optee_os/lib/libutils/ext/snprintk.c:467
     f60:	52800001 	mov	w1, #0x0                   	// #0
/home/build/bsp/optee_os/lib/libutils/ext/snprintk.c:571
     f64:	6b05005f 	cmp	w2, w5
     f68:	1a85a040 	csel	w0, w2, w5, ge  // ge = tcont
/home/build/bsp/optee_os/lib/libutils/ext/snprintk.c:572
     f6c:	340021c1 	cbz	w1, 13a4 <kprintf.constprop.0+0xad8>
/home/build/bsp/optee_os/lib/libutils/ext/snprintk.c:573
     f70:	11000400 	add	w0, w0, #0x1
/home/build/bsp/optee_os/lib/libutils/ext/snprintk.c:578
     f74:	6b0b001f 	cmp	w0, w11
     f78:	1a8ba004 	csel	w4, w0, w11, ge  // ge = tcont
     f7c:	0b04035a 	add	w26, w26, w4
/home/build/bsp/optee_os/lib/libutils/ext/snprintk.c:581
     f80:	52808084 	mov	w4, #0x404                 	// #1028
     f84:	6a0402a4 	ands	w4, w21, w4
     f88:	540000a1 	b.ne	f9c <kprintf.constprop.0+0x6d0>  // b.any
/home/build/bsp/optee_os/lib/libutils/ext/snprintk.c:582
     f8c:	4b000166 	sub	w6, w11, w0
/home/build/bsp/optee_os/lib/libutils/ext/snprintk.c:584
     f90:	52800407 	mov	w7, #0x20                  	// #32
/home/build/bsp/optee_os/lib/libutils/ext/snprintk.c:583
     f94:	710000df 	cmp	w6, #0x0
     f98:	540020cc 	b.gt	13b0 <kprintf.constprop.0+0xae4>
/home/build/bsp/optee_os/lib/libutils/ext/snprintk.c:588
     f9c:	34002181 	cbz	w1, 13cc <kprintf.constprop.0+0xb00>
/home/build/bsp/optee_os/lib/libutils/ext/snprintk.c:589
     fa0:	b40000b6 	cbz	x22, fb4 <kprintf.constprop.0+0x6e8>
     fa4:	f100013f 	cmp	x9, #0x0
     fa8:	fa561322 	ccmp	x25, x22, #0x2, ne  // ne = any
     fac:	54000049 	b.ls	fb4 <kprintf.constprop.0+0x6e8>  // b.plast
     fb0:	380016c1 	strb	w1, [x22], #1
/home/build/bsp/optee_os/lib/libutils/ext/snprintk.c:596
     fb4:	7110009f 	cmp	w4, #0x400
     fb8:	540000a1 	b.ne	fcc <kprintf.constprop.0+0x700>  // b.any
/home/build/bsp/optee_os/lib/libutils/ext/snprintk.c:597
     fbc:	4b000161 	sub	w1, w11, w0
/home/build/bsp/optee_os/lib/libutils/ext/snprintk.c:599
     fc0:	52800604 	mov	w4, #0x30                  	// #48
/home/build/bsp/optee_os/lib/libutils/ext/snprintk.c:598
     fc4:	7100003f 	cmp	w1, #0x0
     fc8:	5400226c 	b.gt	1414 <kprintf.constprop.0+0xb48>
/home/build/bsp/optee_os/lib/libutils/ext/snprintk.c:603
     fcc:	4b050042 	sub	w2, w2, w5
/home/build/bsp/optee_os/lib/libutils/ext/snprintk.c:605
     fd0:	52800601 	mov	w1, #0x30                  	// #48
/home/build/bsp/optee_os/lib/libutils/ext/snprintk.c:604
     fd4:	7100005f 	cmp	w2, #0x0
     fd8:	540022cc 	b.gt	1430 <kprintf.constprop.0+0xb64>
     fdc:	2a0503e5 	mov	w5, w5
     fe0:	d2800001 	mov	x1, #0x0                   	// #0
/home/build/bsp/optee_os/lib/libutils/ext/snprintk.c:608
     fe4:	eb05003f 	cmp	x1, x5
     fe8:	54002321 	b.ne	144c <kprintf.constprop.0+0xb80>  // b.any
/home/build/bsp/optee_os/lib/libutils/ext/snprintk.c:611
     fec:	3617ca75 	tbz	w21, #2, 938 <kprintf.constprop.0+0x6c>
/home/build/bsp/optee_os/lib/libutils/ext/snprintk.c:612
     ff0:	4b000160 	sub	w0, w11, w0
/home/build/bsp/optee_os/lib/libutils/ext/snprintk.c:614
     ff4:	52800401 	mov	w1, #0x20                  	// #32
/home/build/bsp/optee_os/lib/libutils/ext/snprintk.c:613
     ff8:	7100001f 	cmp	w0, #0x0
     ffc:	54ffc9ed 	b.le	938 <kprintf.constprop.0+0x6c>
/home/build/bsp/optee_os/lib/libutils/ext/snprintk.c:614
    1000:	b40000b6 	cbz	x22, 1014 <kprintf.constprop.0+0x748>
    1004:	f100013f 	cmp	x9, #0x0
    1008:	fa561322 	ccmp	x25, x22, #0x2, ne  // ne = any
    100c:	54000049 	b.ls	1014 <kprintf.constprop.0+0x748>  // b.plast
    1010:	380016c1 	strb	w1, [x22], #1
    1014:	51000400 	sub	w0, w0, #0x1
    1018:	17fffff8 	b	ff8 <kprintf.constprop.0+0x72c>
/home/build/bsp/optee_os/lib/libutils/ext/snprintk.c:427
    101c:	11002094 	add	w20, w4, #0x8
    1020:	7100029f 	cmp	w20, #0x0
    1024:	5400008d 	b.le	1034 <kprintf.constprop.0+0x768>
    1028:	91003c73 	add	x19, x3, #0xf
    102c:	927df273 	and	x19, x19, #0xfffffffffffffff8
    1030:	17ffffac 	b	ee0 <kprintf.constprop.0+0x614>
    1034:	aa0303f3 	mov	x19, x3
    1038:	8b24c363 	add	x3, x27, w4, sxtw
    103c:	17ffffa9 	b	ee0 <kprintf.constprop.0+0x614>
/home/build/bsp/optee_os/lib/libutils/ext/snprintk.c:441
    1040:	37f801c4 	tbnz	w4, #31, 1078 <kprintf.constprop.0+0x7ac>
    1044:	91003c73 	add	x19, x3, #0xf
    1048:	2a0403f4 	mov	w20, w4
    104c:	927df273 	and	x19, x19, #0xfffffffffffffff8
    1050:	f9400062 	ldr	x2, [x3]
/home/build/bsp/optee_os/lib/libutils/ext/snprintk.c:443
    1054:	f0000077 	adrp	x23, 10000 <__func__.0+0x28>
/home/build/bsp/optee_os/lib/libutils/ext/snprintk.c:444
    1058:	321f02b5 	orr	w21, w21, #0x2
/home/build/bsp/optee_os/lib/libutils/ext/snprintk.c:443
    105c:	9101eaf7 	add	x23, x23, #0x7a
/home/build/bsp/optee_os/lib/libutils/ext/snprintk.c:445
    1060:	52800f18 	mov	w24, #0x78                  	// #120
/home/build/bsp/optee_os/lib/libutils/ext/snprintk.c:494
    1064:	52800001 	mov	w1, #0x0                   	// #0
    1068:	310004bf 	cmn	w5, #0x1
    106c:	54ffdbe0 	b.eq	be8 <kprintf.constprop.0+0x31c>  // b.none
    1070:	52800040 	mov	w0, #0x2                   	// #2
    1074:	140000b1 	b	1338 <kprintf.constprop.0+0xa6c>
/home/build/bsp/optee_os/lib/libutils/ext/snprintk.c:441
    1078:	11002094 	add	w20, w4, #0x8
    107c:	7100029f 	cmp	w20, #0x0
    1080:	5400008d 	b.le	1090 <kprintf.constprop.0+0x7c4>
    1084:	91003c73 	add	x19, x3, #0xf
    1088:	927df273 	and	x19, x19, #0xfffffffffffffff8
    108c:	17fffff1 	b	1050 <kprintf.constprop.0+0x784>
    1090:	aa0303f3 	mov	x19, x3
    1094:	8b24c363 	add	x3, x27, w4, sxtw
    1098:	17ffffee 	b	1050 <kprintf.constprop.0+0x784>
/home/build/bsp/optee_os/lib/libutils/ext/snprintk.c:448
    109c:	37f80364 	tbnz	w4, #31, 1108 <kprintf.constprop.0+0x83c>
    10a0:	91003c73 	add	x19, x3, #0xf
    10a4:	2a0403f4 	mov	w20, w4
    10a8:	927df273 	and	x19, x19, #0xfffffffffffffff8
    10ac:	f940006d 	ldr	x13, [x3]
    10b0:	b500006d 	cbnz	x13, 10bc <kprintf.constprop.0+0x7f0>
/home/build/bsp/optee_os/lib/libutils/ext/snprintk.c:450
    10b4:	f0000063 	adrp	x3, 10000 <__func__.0+0x28>
    10b8:	911bdc6d 	add	x13, x3, #0x6f7
/home/build/bsp/optee_os/lib/libutils/ext/snprintk.c:451
    10bc:	310004bf 	cmn	w5, #0x1
    10c0:	54000360 	b.eq	112c <kprintf.constprop.0+0x860>  // b.none
/home/build/bsp/optee_os/lib/libutils/ext/snprintk.c:457
    10c4:	93407ca2 	sxtw	x2, w5
    10c8:	aa0d03e0 	mov	x0, x13
    10cc:	52800001 	mov	w1, #0x0                   	// #0
    10d0:	f90053ed 	str	x13, [sp, #160]
    10d4:	2915afe5 	stp	w5, w11, [sp, #172]
    10d8:	f9005fe9 	str	x9, [sp, #184]
    10dc:	94000100 	bl	14dc <memchr>
/home/build/bsp/optee_os/lib/libutils/ext/snprintk.c:459
    10e0:	2955afe5 	ldp	w5, w11, [sp, #172]
    10e4:	f94053ed 	ldr	x13, [sp, #160]
    10e8:	f9405fe9 	ldr	x9, [sp, #184]
    10ec:	b4000080 	cbz	x0, 10fc <kprintf.constprop.0+0x830>
/home/build/bsp/optee_os/lib/libutils/ext/snprintk.c:460
    10f0:	cb0d0000 	sub	x0, x0, x13
    10f4:	6b0000bf 	cmp	w5, w0
    10f8:	1a80d0a5 	csel	w5, w5, w0, le
/home/build/bsp/optee_os/lib/libutils/ext/snprintk.c:291
    10fc:	52800002 	mov	w2, #0x0                   	// #0
/home/build/bsp/optee_os/lib/libutils/ext/snprintk.c:467
    1100:	52800001 	mov	w1, #0x0                   	// #0
    1104:	17ffff98 	b	f64 <kprintf.constprop.0+0x698>
/home/build/bsp/optee_os/lib/libutils/ext/snprintk.c:448
    1108:	11002094 	add	w20, w4, #0x8
    110c:	7100029f 	cmp	w20, #0x0
    1110:	5400008d 	b.le	1120 <kprintf.constprop.0+0x854>
    1114:	91003c73 	add	x19, x3, #0xf
    1118:	927df273 	and	x19, x19, #0xfffffffffffffff8
    111c:	17ffffe4 	b	10ac <kprintf.constprop.0+0x7e0>
    1120:	aa0303f3 	mov	x19, x3
    1124:	8b24c363 	add	x3, x27, w4, sxtw
    1128:	17ffffe1 	b	10ac <kprintf.constprop.0+0x7e0>
/home/build/bsp/optee_os/lib/libutils/ext/snprintk.c:466
    112c:	aa0d03e0 	mov	x0, x13
    1130:	f90053ed 	str	x13, [sp, #160]
    1134:	b900afeb 	str	w11, [sp, #172]
    1138:	f9005be9 	str	x9, [sp, #176]
    113c:	940000f3 	bl	1508 <strlen>
    1140:	17ffff83 	b	f4c <kprintf.constprop.0+0x680>
/home/build/bsp/optee_os/lib/libutils/ext/snprintk.c:470
    1144:	321c02b5 	orr	w21, w21, #0x10
/home/build/bsp/optee_os/lib/libutils/ext/snprintk.c:473
    1148:	36380235 	tbz	w21, #7, 118c <kprintf.constprop.0+0x8c0>
    114c:	37f80364 	tbnz	w4, #31, 11b8 <kprintf.constprop.0+0x8ec>
    1150:	91003c73 	add	x19, x3, #0xf
    1154:	2a0403f4 	mov	w20, w4
    1158:	927df273 	and	x19, x19, #0xfffffffffffffff8
    115c:	f9400062 	ldr	x2, [x3]
/home/build/bsp/optee_os/lib/libutils/ext/snprintk.c:488
    1160:	52800001 	mov	w1, #0x0                   	// #0
/home/build/bsp/optee_os/lib/libutils/ext/snprintk.c:494
    1164:	310004bf 	cmn	w5, #0x1
    1168:	54000f61 	b.ne	1354 <kprintf.constprop.0+0xa88>  // b.any
/home/build/bsp/optee_os/lib/libutils/ext/snprintk.c:502
    116c:	910397e0 	add	x0, sp, #0xe5
/home/build/bsp/optee_os/lib/libutils/ext/snprintk.c:523
    1170:	d2800144 	mov	x4, #0xa                   	// #10
    1174:	d100040d 	sub	x13, x0, #0x1
/home/build/bsp/optee_os/lib/libutils/ext/snprintk.c:522
    1178:	f100245f 	cmp	x2, #0x9
    117c:	54000f08 	b.hi	135c <kprintf.constprop.0+0xa90>  // b.pmore
/home/build/bsp/optee_os/lib/libutils/ext/snprintk.c:526
    1180:	1100c042 	add	w2, w2, #0x30
    1184:	381ff002 	sturb	w2, [x0, #-1]
/home/build/bsp/optee_os/lib/libutils/ext/snprintk.c:527
    1188:	17ffff19 	b	dec <kprintf.constprop.0+0x520>
/home/build/bsp/optee_os/lib/libutils/ext/snprintk.c:473
    118c:	3747fe15 	tbnz	w21, #8, 114c <kprintf.constprop.0+0x880>
    1190:	374ffdf5 	tbnz	w21, #9, 114c <kprintf.constprop.0+0x880>
    1194:	372ffdd5 	tbnz	w21, #5, 114c <kprintf.constprop.0+0x880>
    1198:	3727fdb5 	tbnz	w21, #4, 114c <kprintf.constprop.0+0x880>
    119c:	36300335 	tbz	w21, #6, 1200 <kprintf.constprop.0+0x934>
    11a0:	37f801e4 	tbnz	w4, #31, 11dc <kprintf.constprop.0+0x910>
    11a4:	91002c73 	add	x19, x3, #0xb
    11a8:	2a0403f4 	mov	w20, w4
    11ac:	927df273 	and	x19, x19, #0xfffffffffffffff8
    11b0:	79400062 	ldrh	w2, [x3]
    11b4:	17ffffeb 	b	1160 <kprintf.constprop.0+0x894>
    11b8:	11002094 	add	w20, w4, #0x8
    11bc:	7100029f 	cmp	w20, #0x0
    11c0:	5400008d 	b.le	11d0 <kprintf.constprop.0+0x904>
    11c4:	91003c73 	add	x19, x3, #0xf
    11c8:	927df273 	and	x19, x19, #0xfffffffffffffff8
    11cc:	17ffffe4 	b	115c <kprintf.constprop.0+0x890>
    11d0:	aa0303f3 	mov	x19, x3
    11d4:	8b24c363 	add	x3, x27, w4, sxtw
    11d8:	17ffffe1 	b	115c <kprintf.constprop.0+0x890>
    11dc:	11002094 	add	w20, w4, #0x8
    11e0:	7100029f 	cmp	w20, #0x0
    11e4:	5400008d 	b.le	11f4 <kprintf.constprop.0+0x928>
    11e8:	91002c73 	add	x19, x3, #0xb
    11ec:	927df273 	and	x19, x19, #0xfffffffffffffff8
    11f0:	17fffff0 	b	11b0 <kprintf.constprop.0+0x8e4>
    11f4:	aa0303f3 	mov	x19, x3
    11f8:	8b24c363 	add	x3, x27, w4, sxtw
    11fc:	17ffffed 	b	11b0 <kprintf.constprop.0+0x8e4>
    1200:	37f800c4 	tbnz	w4, #31, 1218 <kprintf.constprop.0+0x94c>
    1204:	91002c73 	add	x19, x3, #0xb
    1208:	2a0403f4 	mov	w20, w4
    120c:	927df273 	and	x19, x19, #0xfffffffffffffff8
    1210:	b9400062 	ldr	w2, [x3]
    1214:	17ffffd3 	b	1160 <kprintf.constprop.0+0x894>
    1218:	11002094 	add	w20, w4, #0x8
    121c:	7100029f 	cmp	w20, #0x0
    1220:	5400008d 	b.le	1230 <kprintf.constprop.0+0x964>
    1224:	91002c73 	add	x19, x3, #0xb
    1228:	927df273 	and	x19, x19, #0xfffffffffffffff8
    122c:	17fffff9 	b	1210 <kprintf.constprop.0+0x944>
    1230:	aa0303f3 	mov	x19, x3
    1234:	8b24c363 	add	x3, x27, w4, sxtw
    1238:	17fffff6 	b	1210 <kprintf.constprop.0+0x944>
/home/build/bsp/optee_os/lib/libutils/ext/snprintk.c:297
    123c:	f0000077 	adrp	x23, 10000 <__func__.0+0x28>
    1240:	9101eaf7 	add	x23, x23, #0x7a
    1244:	910046f7 	add	x23, x23, #0x11
/home/build/bsp/optee_os/lib/libutils/ext/snprintk.c:481
    1248:	363801f5 	tbz	w21, #7, 1284 <kprintf.constprop.0+0x9b8>
    124c:	37f80324 	tbnz	w4, #31, 12b0 <kprintf.constprop.0+0x9e4>
    1250:	91003c73 	add	x19, x3, #0xf
    1254:	2a0403f4 	mov	w20, w4
    1258:	927df273 	and	x19, x19, #0xfffffffffffffff8
    125c:	f9400062 	ldr	x2, [x3]
/home/build/bsp/optee_os/lib/libutils/ext/snprintk.c:484
    1260:	3607f035 	tbz	w21, #0, 1064 <kprintf.constprop.0+0x798>
    1264:	b4fff002 	cbz	x2, 1064 <kprintf.constprop.0+0x798>
/home/build/bsp/optee_os/lib/libutils/ext/snprintk.c:485
    1268:	321f02b5 	orr	w21, w21, #0x2
/home/build/bsp/optee_os/lib/libutils/ext/snprintk.c:482
    126c:	52800040 	mov	w0, #0x2                   	// #2
/home/build/bsp/optee_os/lib/libutils/ext/snprintk.c:488
    1270:	52800001 	mov	w1, #0x0                   	// #0
    1274:	17fffe57 	b	bd0 <kprintf.constprop.0+0x304>
/home/build/bsp/optee_os/lib/libutils/ext/snprintk.c:480
    1278:	f0000077 	adrp	x23, 10000 <__func__.0+0x28>
    127c:	9101eaf7 	add	x23, x23, #0x7a
    1280:	17fffff2 	b	1248 <kprintf.constprop.0+0x97c>
/home/build/bsp/optee_os/lib/libutils/ext/snprintk.c:481
    1284:	3747fe55 	tbnz	w21, #8, 124c <kprintf.constprop.0+0x980>
    1288:	374ffe35 	tbnz	w21, #9, 124c <kprintf.constprop.0+0x980>
    128c:	372ffe15 	tbnz	w21, #5, 124c <kprintf.constprop.0+0x980>
    1290:	3727fdf5 	tbnz	w21, #4, 124c <kprintf.constprop.0+0x980>
    1294:	36300335 	tbz	w21, #6, 12f8 <kprintf.constprop.0+0xa2c>
    1298:	37f801e4 	tbnz	w4, #31, 12d4 <kprintf.constprop.0+0xa08>
    129c:	91002c73 	add	x19, x3, #0xb
    12a0:	2a0403f4 	mov	w20, w4
    12a4:	927df273 	and	x19, x19, #0xfffffffffffffff8
    12a8:	79400062 	ldrh	w2, [x3]
    12ac:	17ffffed 	b	1260 <kprintf.constprop.0+0x994>
    12b0:	11002094 	add	w20, w4, #0x8
    12b4:	7100029f 	cmp	w20, #0x0
    12b8:	5400008d 	b.le	12c8 <kprintf.constprop.0+0x9fc>
    12bc:	91003c73 	add	x19, x3, #0xf
    12c0:	927df273 	and	x19, x19, #0xfffffffffffffff8
    12c4:	17ffffe6 	b	125c <kprintf.constprop.0+0x990>
    12c8:	aa0303f3 	mov	x19, x3
    12cc:	8b24c363 	add	x3, x27, w4, sxtw
    12d0:	17ffffe3 	b	125c <kprintf.constprop.0+0x990>
    12d4:	11002094 	add	w20, w4, #0x8
    12d8:	7100029f 	cmp	w20, #0x0
    12dc:	5400008d 	b.le	12ec <kprintf.constprop.0+0xa20>
    12e0:	91002c73 	add	x19, x3, #0xb
    12e4:	927df273 	and	x19, x19, #0xfffffffffffffff8
    12e8:	17fffff0 	b	12a8 <kprintf.constprop.0+0x9dc>
    12ec:	aa0303f3 	mov	x19, x3
    12f0:	8b24c363 	add	x3, x27, w4, sxtw
    12f4:	17ffffed 	b	12a8 <kprintf.constprop.0+0x9dc>
    12f8:	37f800c4 	tbnz	w4, #31, 1310 <kprintf.constprop.0+0xa44>
    12fc:	91002c73 	add	x19, x3, #0xb
    1300:	2a0403f4 	mov	w20, w4
    1304:	927df273 	and	x19, x19, #0xfffffffffffffff8
    1308:	b9400062 	ldr	w2, [x3]
    130c:	17ffffd5 	b	1260 <kprintf.constprop.0+0x994>
    1310:	11002094 	add	w20, w4, #0x8
    1314:	7100029f 	cmp	w20, #0x0
    1318:	5400008d 	b.le	1328 <kprintf.constprop.0+0xa5c>
    131c:	91002c73 	add	x19, x3, #0xb
    1320:	927df273 	and	x19, x19, #0xfffffffffffffff8
    1324:	17fffff9 	b	1308 <kprintf.constprop.0+0xa3c>
    1328:	aa0303f3 	mov	x19, x3
    132c:	8b24c363 	add	x3, x27, w4, sxtw
    1330:	17fffff6 	b	1308 <kprintf.constprop.0+0xa3c>
/home/build/bsp/optee_os/lib/libutils/ext/snprintk.c:494
    1334:	52800000 	mov	w0, #0x0                   	// #0
/home/build/bsp/optee_os/lib/libutils/ext/snprintk.c:503
    1338:	f100005f 	cmp	x2, #0x0
/home/build/bsp/optee_os/lib/libutils/ext/snprintk.c:495
    133c:	12157ab5 	and	w21, w21, #0xfffffbff
/home/build/bsp/optee_os/lib/libutils/ext/snprintk.c:503
    1340:	7a4008a0 	ccmp	w5, #0x0, #0x0, eq  // eq = none
    1344:	54ffc4a1 	b.ne	bd8 <kprintf.constprop.0+0x30c>  // b.any
/home/build/bsp/optee_os/lib/libutils/ext/snprintk.c:502
    1348:	910397ed 	add	x13, sp, #0xe5
    134c:	52800005 	mov	w5, #0x0                   	// #0
    1350:	17fffea7 	b	dec <kprintf.constprop.0+0x520>
/home/build/bsp/optee_os/lib/libutils/ext/snprintk.c:494
    1354:	52800020 	mov	w0, #0x1                   	// #1
    1358:	17fffff8 	b	1338 <kprintf.constprop.0+0xa6c>
/home/build/bsp/optee_os/lib/libutils/ext/snprintk.c:523
    135c:	9ac40846 	udiv	x6, x2, x4
    1360:	9b0488c2 	msub	x2, x6, x4, x2
    1364:	1100c042 	add	w2, w2, #0x30
    1368:	381ff002 	sturb	w2, [x0, #-1]
/home/build/bsp/optee_os/lib/libutils/ext/snprintk.c:524
    136c:	aa0603e2 	mov	x2, x6
    1370:	aa0d03e0 	mov	x0, x13
    1374:	17ffff80 	b	1174 <kprintf.constprop.0+0x8a8>
/home/build/bsp/optee_os/lib/libutils/ext/snprintk.c:547
    1378:	35ffb418 	cbnz	w24, 9f8 <kprintf.constprop.0+0x12c>
/home/build/bsp/optee_os/lib/libutils/ext/snprintk.c:619
    137c:	b4000049 	cbz	x9, 1384 <kprintf.constprop.0+0xab8>
/home/build/bsp/optee_os/lib/libutils/ext/snprintk.c:620
    1380:	f9000136 	str	x22, [x9]
/home/build/bsp/optee_os/lib/libutils/ext/snprintk.c:622
    1384:	b0000080 	adrp	x0, 12000 <_DYNAMIC>
    1388:	f9409800 	ldr	x0, [x0, #304]
    138c:	f94077e2 	ldr	x2, [sp, #232]
    1390:	f9400001 	ldr	x1, [x0]
    1394:	eb010042 	subs	x2, x2, x1
    1398:	d2800001 	mov	x1, #0x0                   	// #0
    139c:	54000680 	b.eq	146c <kprintf.constprop.0+0xba0>  // b.none
    13a0:	97fffcc4 	bl	6b0 <__stack_chk_fail>
/home/build/bsp/optee_os/lib/libutils/ext/snprintk.c:574
    13a4:	360fde95 	tbz	w21, #1, f74 <kprintf.constprop.0+0x6a8>
/home/build/bsp/optee_os/lib/libutils/ext/snprintk.c:575
    13a8:	11000800 	add	w0, w0, #0x2
    13ac:	17fffef2 	b	f74 <kprintf.constprop.0+0x6a8>
/home/build/bsp/optee_os/lib/libutils/ext/snprintk.c:584
    13b0:	b40000b6 	cbz	x22, 13c4 <kprintf.constprop.0+0xaf8>
    13b4:	f100013f 	cmp	x9, #0x0
    13b8:	fa561322 	ccmp	x25, x22, #0x2, ne  // ne = any
    13bc:	54000049 	b.ls	13c4 <kprintf.constprop.0+0xaf8>  // b.plast
    13c0:	380016c7 	strb	w7, [x22], #1
    13c4:	510004c6 	sub	w6, w6, #0x1
    13c8:	17fffef3 	b	f94 <kprintf.constprop.0+0x6c8>
/home/build/bsp/optee_os/lib/libutils/ext/snprintk.c:590
    13cc:	360fdf55 	tbz	w21, #1, fb4 <kprintf.constprop.0+0x6e8>
/home/build/bsp/optee_os/lib/libutils/ext/snprintk.c:591
    13d0:	b4ffdf36 	cbz	x22, fb4 <kprintf.constprop.0+0x6e8>
    13d4:	f100013f 	cmp	x9, #0x0
    13d8:	1a9f17e6 	cset	w6, eq  // eq = none
    13dc:	710000df 	cmp	w6, #0x0
    13e0:	fa560322 	ccmp	x25, x22, #0x2, eq  // eq = none
    13e4:	54ffde89 	b.ls	fb4 <kprintf.constprop.0+0x6e8>  // b.plast
    13e8:	aa1603e1 	mov	x1, x22
    13ec:	52800607 	mov	w7, #0x30                  	// #48
/home/build/bsp/optee_os/lib/libutils/ext/snprintk.c:592
    13f0:	710000df 	cmp	w6, #0x0
/home/build/bsp/optee_os/lib/libutils/ext/snprintk.c:591
    13f4:	38001427 	strb	w7, [x1], #1
/home/build/bsp/optee_os/lib/libutils/ext/snprintk.c:592
    13f8:	fa410322 	ccmp	x25, x1, #0x2, eq  // eq = none
    13fc:	54000089 	b.ls	140c <kprintf.constprop.0+0xb40>  // b.plast
    1400:	91000ad6 	add	x22, x22, #0x2
    1404:	381ff2d8 	sturb	w24, [x22, #-1]
    1408:	17fffeeb 	b	fb4 <kprintf.constprop.0+0x6e8>
    140c:	aa0103f6 	mov	x22, x1
    1410:	17fffee9 	b	fb4 <kprintf.constprop.0+0x6e8>
/home/build/bsp/optee_os/lib/libutils/ext/snprintk.c:599
    1414:	b40000b6 	cbz	x22, 1428 <kprintf.constprop.0+0xb5c>
    1418:	f100013f 	cmp	x9, #0x0
    141c:	fa561322 	ccmp	x25, x22, #0x2, ne  // ne = any
    1420:	54000049 	b.ls	1428 <kprintf.constprop.0+0xb5c>  // b.plast
    1424:	380016c4 	strb	w4, [x22], #1
    1428:	51000421 	sub	w1, w1, #0x1
    142c:	17fffee6 	b	fc4 <kprintf.constprop.0+0x6f8>
/home/build/bsp/optee_os/lib/libutils/ext/snprintk.c:605
    1430:	b40000b6 	cbz	x22, 1444 <kprintf.constprop.0+0xb78>
    1434:	f100013f 	cmp	x9, #0x0
    1438:	fa561322 	ccmp	x25, x22, #0x2, ne  // ne = any
    143c:	54000049 	b.ls	1444 <kprintf.constprop.0+0xb78>  // b.plast
    1440:	380016c1 	strb	w1, [x22], #1
    1444:	51000442 	sub	w2, w2, #0x1
    1448:	17fffee3 	b	fd4 <kprintf.constprop.0+0x708>
/home/build/bsp/optee_os/lib/libutils/ext/snprintk.c:609
    144c:	b40000d6 	cbz	x22, 1464 <kprintf.constprop.0+0xb98>
    1450:	f100013f 	cmp	x9, #0x0
    1454:	fa561322 	ccmp	x25, x22, #0x2, ne  // ne = any
    1458:	54000069 	b.ls	1464 <kprintf.constprop.0+0xb98>  // b.plast
    145c:	386169a2 	ldrb	w2, [x13, x1]
    1460:	380016c2 	strb	w2, [x22], #1
/home/build/bsp/optee_os/lib/libutils/ext/snprintk.c:608
    1464:	91000421 	add	x1, x1, #0x1
    1468:	17fffedf 	b	fe4 <kprintf.constprop.0+0x718>
/home/build/bsp/optee_os/lib/libutils/ext/snprintk.c:622
    146c:	2a1a03e0 	mov	w0, w26
    1470:	a9437bfd 	ldp	x29, x30, [sp, #48]
    1474:	a94453f3 	ldp	x19, x20, [sp, #64]
    1478:	a9455bf5 	ldp	x21, x22, [sp, #80]
    147c:	a94663f7 	ldp	x23, x24, [sp, #96]
    1480:	a9476bf9 	ldp	x25, x26, [sp, #112]
    1484:	a94873fb 	ldp	x27, x28, [sp, #128]
    1488:	9103c3ff 	add	sp, sp, #0xf0
    148c:	d65f03c0 	ret

0000000000001490 <__vsprintf>:
__vsprintf():
/home/build/bsp/optee_os/lib/libutils/ext/snprintk.c:155
    1490:	a9bc7bfd 	stp	x29, x30, [sp, #-64]!
/home/build/bsp/optee_os/lib/libutils/ext/snprintk.c:156
    1494:	910083e3 	add	x3, sp, #0x20
/home/build/bsp/optee_os/lib/libutils/ext/snprintk.c:155
    1498:	910003fd 	mov	x29, sp
    149c:	a90153f3 	stp	x19, x20, [sp, #16]
    14a0:	aa0003f4 	mov	x20, x0
    14a4:	aa0103f3 	mov	x19, x1
/home/build/bsp/optee_os/lib/libutils/ext/snprintk.c:156
    14a8:	aa0303e0 	mov	x0, x3
/home/build/bsp/optee_os/lib/libutils/ext/snprintk.c:155
    14ac:	aa0203e1 	mov	x1, x2
/home/build/bsp/optee_os/lib/libutils/ext/snprintk.c:156
    14b0:	d2800402 	mov	x2, #0x20                  	// #32
    14b4:	97fffad3 	bl	0 <memcpy>
    14b8:	aa1403e2 	mov	x2, x20
    14bc:	aa0003e3 	mov	x3, x0
    14c0:	52800004 	mov	w4, #0x0                   	// #0
    14c4:	aa1303e0 	mov	x0, x19
    14c8:	d2800001 	mov	x1, #0x0                   	// #0
    14cc:	97fffd00 	bl	8cc <kprintf.constprop.0>
/home/build/bsp/optee_os/lib/libutils/ext/snprintk.c:157
    14d0:	a94153f3 	ldp	x19, x20, [sp, #16]
    14d4:	a8c47bfd 	ldp	x29, x30, [sp], #64
    14d8:	d65f03c0 	ret

00000000000014dc <memchr>:
memchr():
/home/build/bsp/optee_os/lib/libutils/isoc/newlib/memchr.c:109
    14dc:	12001c21 	and	w1, w1, #0xff
/home/build/bsp/optee_os/lib/libutils/isoc/newlib/memchr.c:153
    14e0:	8b020002 	add	x2, x0, x2
    14e4:	eb02001f 	cmp	x0, x2
    14e8:	54000061 	b.ne	14f4 <memchr+0x18>  // b.any
/home/build/bsp/optee_os/lib/libutils/isoc/newlib/memchr.c:159
    14ec:	d2800000 	mov	x0, #0x0                   	// #0
/home/build/bsp/optee_os/lib/libutils/isoc/newlib/memchr.c:160
    14f0:	d65f03c0 	ret
/home/build/bsp/optee_os/lib/libutils/isoc/newlib/memchr.c:154
    14f4:	39400003 	ldrb	w3, [x0]
    14f8:	6b01007f 	cmp	w3, w1
    14fc:	54ffffa0 	b.eq	14f0 <memchr+0x14>  // b.none
/home/build/bsp/optee_os/lib/libutils/isoc/newlib/memchr.c:156
    1500:	91000400 	add	x0, x0, #0x1
    1504:	17fffff8 	b	14e4 <memchr+0x8>

0000000000001508 <strlen>:
strlen():
/home/build/bsp/optee_os/lib/libutils/isoc/newlib/strlen.c:117
    1508:	aa0003e1 	mov	x1, x0
    150c:	39400022 	ldrb	w2, [x1]
    1510:	35000062 	cbnz	w2, 151c <strlen+0x14>
/home/build/bsp/optee_os/lib/libutils/isoc/newlib/strlen.c:120
    1514:	cb000020 	sub	x0, x1, x0
    1518:	d65f03c0 	ret
/home/build/bsp/optee_os/lib/libutils/isoc/newlib/strlen.c:118
    151c:	91000421 	add	x1, x1, #0x1
    1520:	17fffffb 	b	150c <strlen+0x4>

0000000000001524 <trace_ext_puts>:
trace_ext_puts():
/home/build/bsp/optee_os/lib/libutee/trace_ext.c:22
    1524:	a9be7bfd 	stp	x29, x30, [sp, #-32]!
    1528:	910003fd 	mov	x29, sp
    152c:	f9000bf3 	str	x19, [sp, #16]
    1530:	aa0003f3 	mov	x19, x0
/home/build/bsp/optee_os/lib/libutee/trace_ext.c:26
    1534:	97fffff5 	bl	1508 <strlen>
    1538:	aa0003e1 	mov	x1, x0
    153c:	aa1303e0 	mov	x0, x19
/home/build/bsp/optee_os/lib/libutee/trace_ext.c:28
    1540:	f9400bf3 	ldr	x19, [sp, #16]
    1544:	a8c27bfd 	ldp	x29, x30, [sp], #32
/home/build/bsp/optee_os/lib/libutee/trace_ext.c:26
    1548:	140002ca 	b	2070 <_utee_log>

000000000000154c <trace_ext_get_thread_id>:
trace_ext_get_thread_id():
/home/build/bsp/optee_os/lib/libutee/trace_ext.c:33
    154c:	12800000 	mov	w0, #0xffffffff            	// #-1
    1550:	d65f03c0 	ret

0000000000001554 <printf>:
printf():
/home/build/bsp/optee_os/lib/libutee/trace_ext.c:41
    1554:	d108c3ff 	sub	sp, sp, #0x230
    1558:	a9007bfd 	stp	x29, x30, [sp]
    155c:	910003fd 	mov	x29, sp
    1560:	a90153f3 	stp	x19, x20, [sp, #16]
    1564:	aa0003f3 	mov	x19, x0
    1568:	910823e0 	add	x0, sp, #0x208
    156c:	a91f8be1 	stp	x1, x2, [sp, #504]
    1570:	b0000081 	adrp	x1, 12000 <_DYNAMIC>
    1574:	3d805fe0 	str	q0, [sp, #368]
    1578:	3d8063e1 	str	q1, [sp, #384]
    157c:	3d8067e2 	str	q2, [sp, #400]
    1580:	3d806be3 	str	q3, [sp, #416]
    1584:	3d806fe4 	str	q4, [sp, #432]
    1588:	3d8073e5 	str	q5, [sp, #448]
    158c:	3d8077e6 	str	q6, [sp, #464]
    1590:	3d807be7 	str	q7, [sp, #480]
    1594:	f9409821 	ldr	x1, [x1, #304]
    1598:	a9001003 	stp	x3, x4, [x0]
    159c:	a9011805 	stp	x5, x6, [x0, #16]
    15a0:	f90117e7 	str	x7, [sp, #552]
    15a4:	f9400020 	ldr	x0, [x1]
    15a8:	f900b7e0 	str	x0, [sp, #360]
    15ac:	d2800000 	mov	x0, #0x0                   	// #0
/home/build/bsp/optee_os/lib/libutee/trace_ext.c:46
    15b0:	97fffb7b 	bl	39c <trace_get_level>
    15b4:	7100001f 	cmp	w0, #0x0
    15b8:	5400040d 	b.le	1638 <printf+0xe4>
/home/build/bsp/optee_os/lib/libutee/trace_ext.c:49
    15bc:	9108c3e0 	add	x0, sp, #0x230
/home/build/bsp/optee_os/lib/libutee/trace_ext.c:50
    15c0:	910083e3 	add	x3, sp, #0x20
/home/build/bsp/optee_os/lib/libutee/trace_ext.c:49
    15c4:	a90483e0 	stp	x0, x0, [sp, #72]
    15c8:	9107c3e0 	add	x0, sp, #0x1f0
/home/build/bsp/optee_os/lib/libutee/trace_ext.c:50
    15cc:	910123e1 	add	x1, sp, #0x48
/home/build/bsp/optee_os/lib/libutee/trace_ext.c:49
    15d0:	f9002fe0 	str	x0, [sp, #88]
    15d4:	128006e0 	mov	w0, #0xffffffc8            	// #-56
    15d8:	b90063e0 	str	w0, [sp, #96]
    15dc:	12800fe0 	mov	w0, #0xffffff80            	// #-128
/home/build/bsp/optee_os/lib/libutee/trace_ext.c:50
    15e0:	d2800402 	mov	x2, #0x20                  	// #32
    15e4:	9101a3f4 	add	x20, sp, #0x68
/home/build/bsp/optee_os/lib/libutee/trace_ext.c:49
    15e8:	b90067e0 	str	w0, [sp, #100]
/home/build/bsp/optee_os/lib/libutee/trace_ext.c:50
    15ec:	aa0303e0 	mov	x0, x3
    15f0:	97fffa84 	bl	0 <memcpy>
    15f4:	aa0003e3 	mov	x3, x0
    15f8:	aa1303e2 	mov	x2, x19
    15fc:	aa1403e0 	mov	x0, x20
    1600:	d2802001 	mov	x1, #0x100                 	// #256
    1604:	94002e0c 	bl	ce34 <vsnprintf>
    1608:	2a0003f3 	mov	w19, w0
/home/build/bsp/optee_os/lib/libutee/trace_ext.c:53
    160c:	37f80060 	tbnz	w0, #31, 1618 <printf+0xc4>
/home/build/bsp/optee_os/lib/libutee/trace_ext.c:56
    1610:	aa1403e0 	mov	x0, x20
    1614:	97ffffc4 	bl	1524 <trace_ext_puts>
/home/build/bsp/optee_os/lib/libutee/trace_ext.c:59
    1618:	b0000081 	adrp	x1, 12000 <_DYNAMIC>
    161c:	f9409821 	ldr	x1, [x1, #304]
    1620:	f940b7e0 	ldr	x0, [sp, #360]
    1624:	f9400022 	ldr	x2, [x1]
    1628:	eb020000 	subs	x0, x0, x2
    162c:	d2800002 	mov	x2, #0x0                   	// #0
    1630:	54000080 	b.eq	1640 <printf+0xec>  // b.none
    1634:	97fffc1f 	bl	6b0 <__stack_chk_fail>
/home/build/bsp/optee_os/lib/libutee/trace_ext.c:47
    1638:	52800013 	mov	w19, #0x0                   	// #0
    163c:	17fffff7 	b	1618 <printf+0xc4>
/home/build/bsp/optee_os/lib/libutee/trace_ext.c:59
    1640:	2a1303e0 	mov	w0, w19
    1644:	a9407bfd 	ldp	x29, x30, [sp]
    1648:	a94153f3 	ldp	x19, x20, [sp, #16]
    164c:	9108c3ff 	add	sp, sp, #0x230
    1650:	d65f03c0 	ret

0000000000001654 <puts>:
puts():
/home/build/bsp/optee_os/lib/libutee/trace_ext.c:62
    1654:	a9be7bfd 	stp	x29, x30, [sp, #-32]!
    1658:	910003fd 	mov	x29, sp
    165c:	f9000bf3 	str	x19, [sp, #16]
    1660:	aa0003f3 	mov	x19, x0
/home/build/bsp/optee_os/lib/libutee/trace_ext.c:63
    1664:	97fffb4e 	bl	39c <trace_get_level>
    1668:	7100001f 	cmp	w0, #0x0
    166c:	540000cd 	b.le	1684 <puts+0x30>
/home/build/bsp/optee_os/lib/libutee/trace_ext.c:64
    1670:	aa1303e0 	mov	x0, x19
    1674:	97ffffac 	bl	1524 <trace_ext_puts>
/home/build/bsp/optee_os/lib/libutee/trace_ext.c:65
    1678:	f0000060 	adrp	x0, 10000 <__func__.0+0x28>
    167c:	91106000 	add	x0, x0, #0x418
    1680:	97ffffa9 	bl	1524 <trace_ext_puts>
/home/build/bsp/optee_os/lib/libutee/trace_ext.c:68
    1684:	52800020 	mov	w0, #0x1                   	// #1
    1688:	f9400bf3 	ldr	x19, [sp, #16]
    168c:	a8c27bfd 	ldp	x29, x30, [sp], #32
    1690:	d65f03c0 	ret

0000000000001694 <putchar>:
putchar():
/home/build/bsp/optee_os/lib/libutee/trace_ext.c:71
    1694:	a9bd7bfd 	stp	x29, x30, [sp, #-48]!
    1698:	b0000081 	adrp	x1, 12000 <_DYNAMIC>
    169c:	910003fd 	mov	x29, sp
    16a0:	f9409821 	ldr	x1, [x1, #304]
    16a4:	f9000bf3 	str	x19, [sp, #16]
    16a8:	2a0003f3 	mov	w19, w0
    16ac:	f9400020 	ldr	x0, [x1]
    16b0:	f90017e0 	str	x0, [sp, #40]
    16b4:	d2800000 	mov	x0, #0x0                   	// #0
/home/build/bsp/optee_os/lib/libutee/trace_ext.c:72
    16b8:	390083f3 	strb	w19, [sp, #32]
    16bc:	390087ff 	strb	wzr, [sp, #33]
/home/build/bsp/optee_os/lib/libutee/trace_ext.c:74
    16c0:	97fffb37 	bl	39c <trace_get_level>
    16c4:	7100001f 	cmp	w0, #0x0
    16c8:	5400006d 	b.le	16d4 <putchar+0x40>
/home/build/bsp/optee_os/lib/libutee/trace_ext.c:75
    16cc:	910083e0 	add	x0, sp, #0x20
    16d0:	97ffff95 	bl	1524 <trace_ext_puts>
/home/build/bsp/optee_os/lib/libutee/trace_ext.c:82
    16d4:	b0000081 	adrp	x1, 12000 <_DYNAMIC>
/home/build/bsp/optee_os/lib/libutee/trace_ext.c:81
    16d8:	12001e60 	and	w0, w19, #0xff
/home/build/bsp/optee_os/lib/libutee/trace_ext.c:82
    16dc:	f9409821 	ldr	x1, [x1, #304]
    16e0:	f94017e3 	ldr	x3, [sp, #40]
    16e4:	f9400022 	ldr	x2, [x1]
    16e8:	eb020063 	subs	x3, x3, x2
    16ec:	d2800002 	mov	x2, #0x0                   	// #0
    16f0:	54000040 	b.eq	16f8 <putchar+0x64>  // b.none
    16f4:	97fffbef 	bl	6b0 <__stack_chk_fail>
    16f8:	f9400bf3 	ldr	x19, [sp, #16]
    16fc:	a8c37bfd 	ldp	x29, x30, [sp], #48
    1700:	d65f03c0 	ret

0000000000001704 <_get_fn_array>:
_get_fn_array():
/home/build/bsp/optee_os/lib/libutee/user_ta_entry.c:84
    1704:	79403009 	ldrh	w9, [x0, #24]
/home/build/bsp/optee_os/lib/libutee/user_ta_entry.c:95
    1708:	93407c21 	sxtw	x1, w1
/home/build/bsp/optee_os/lib/libutee/user_ta_entry.c:98
    170c:	93407c42 	sxtw	x2, w2
/home/build/bsp/optee_os/lib/libutee/user_ta_entry.c:84
    1710:	d2800007 	mov	x7, #0x0                   	// #0
/home/build/bsp/optee_os/lib/libutee/user_ta_entry.c:85
    1714:	d280070a 	mov	x10, #0x38                  	// #56
/home/build/bsp/optee_os/lib/libutee/user_ta_entry.c:84 (discriminator 1)
    1718:	eb07013f 	cmp	x9, x7
    171c:	54000048 	b.hi	1724 <_get_fn_array+0x20>  // b.pmore
/home/build/bsp/optee_os/lib/libutee/user_ta_entry.c:104
    1720:	d65f03c0 	ret
/home/build/bsp/optee_os/lib/libutee/user_ta_entry.c:85
    1724:	9b0a7ce5 	mul	x5, x7, x10
    1728:	f9400808 	ldr	x8, [x0, #16]
    172c:	8b050106 	add	x6, x8, x5
/home/build/bsp/optee_os/lib/libutee/user_ta_entry.c:86
    1730:	b8656905 	ldr	w5, [x8, x5]
    1734:	710008bf 	cmp	w5, #0x2
    1738:	54000060 	b.eq	1744 <_get_fn_array+0x40>  // b.none
/home/build/bsp/optee_os/lib/libutee/user_ta_entry.c:84
    173c:	910004e7 	add	x7, x7, #0x1
    1740:	17fffff6 	b	1718 <_get_fn_array+0x14>
/home/build/bsp/optee_os/lib/libutee/user_ta_entry.c:89
    1744:	f9400008 	ldr	x8, [x0]
    1748:	f94008c5 	ldr	x5, [x6, #16]
/home/build/bsp/optee_os/lib/libutee/user_ta_entry.c:88
    174c:	f94014c6 	ldr	x6, [x6, #40]
/home/build/bsp/optee_os/lib/libutee/user_ta_entry.c:89
    1750:	8b0800a5 	add	x5, x5, x8
/home/build/bsp/optee_os/lib/libutee/user_ta_entry.c:90
    1754:	927cecc6 	and	x6, x6, #0xfffffffffffffff0
    1758:	8b0500c6 	add	x6, x6, x5
/home/build/bsp/optee_os/lib/libutee/user_ta_entry.c:90 (discriminator 1)
    175c:	eb0600bf 	cmp	x5, x6
    1760:	54fffee0 	b.eq	173c <_get_fn_array+0x38>  // b.none
/home/build/bsp/optee_os/lib/libutee/user_ta_entry.c:91
    1764:	f9400068 	ldr	x8, [x3]
    1768:	b4000068 	cbz	x8, 1774 <_get_fn_array+0x70>
/home/build/bsp/optee_os/lib/libutee/user_ta_entry.c:91 (discriminator 1)
    176c:	f9400088 	ldr	x8, [x4]
    1770:	b5fffe68 	cbnz	x8, 173c <_get_fn_array+0x38>
/home/build/bsp/optee_os/lib/libutee/user_ta_entry.c:93
    1774:	f94000a8 	ldr	x8, [x5]
    1778:	b4fffe28 	cbz	x8, 173c <_get_fn_array+0x38>
/home/build/bsp/optee_os/lib/libutee/user_ta_entry.c:95
    177c:	eb01011f 	cmp	x8, x1
    1780:	540000e1 	b.ne	179c <_get_fn_array+0x98>  // b.any
/home/build/bsp/optee_os/lib/libutee/user_ta_entry.c:96
    1784:	f940000b 	ldr	x11, [x0]
    1788:	f94004a8 	ldr	x8, [x5, #8]
    178c:	8b0b0108 	add	x8, x8, x11
    1790:	f9000068 	str	x8, [x3]
/home/build/bsp/optee_os/lib/libutee/user_ta_entry.c:101 (discriminator 2)
    1794:	910040a5 	add	x5, x5, #0x10
/home/build/bsp/optee_os/lib/libutee/user_ta_entry.c:90 (discriminator 2)
    1798:	17fffff1 	b	175c <_get_fn_array+0x58>
/home/build/bsp/optee_os/lib/libutee/user_ta_entry.c:98
    179c:	eb02011f 	cmp	x8, x2
    17a0:	54ffffa1 	b.ne	1794 <_get_fn_array+0x90>  // b.any
/home/build/bsp/optee_os/lib/libutee/user_ta_entry.c:99
    17a4:	f94004a8 	ldr	x8, [x5, #8]
    17a8:	d343fd08 	lsr	x8, x8, #3
    17ac:	f9000088 	str	x8, [x4]
    17b0:	17fffff9 	b	1794 <_get_fn_array+0x90>

00000000000017b4 <_fini_iterate_phdr_cb>:
_fini_iterate_phdr_cb():
/home/build/bsp/optee_os/lib/libutee/user_ta_entry.c:140
    17b4:	a9bc7bfd 	stp	x29, x30, [sp, #-64]!
    17b8:	b0000081 	adrp	x1, 12000 <_DYNAMIC>
    17bc:	910003fd 	mov	x29, sp
    17c0:	f9409821 	ldr	x1, [x1, #304]
    17c4:	f9000bf3 	str	x19, [sp, #16]
/home/build/bsp/optee_os/lib/libutee/user_ta_entry.c:145
    17c8:	9100c3e4 	add	x4, sp, #0x30
    17cc:	9100a3e3 	add	x3, sp, #0x28
/home/build/bsp/optee_os/lib/libutee/user_ta_entry.c:140
    17d0:	f9400022 	ldr	x2, [x1]
    17d4:	f9001fe2 	str	x2, [sp, #56]
    17d8:	d2800002 	mov	x2, #0x0                   	// #0
/home/build/bsp/optee_os/lib/libutee/user_ta_entry.c:147
    17dc:	d2800033 	mov	x19, #0x1                   	// #1
/home/build/bsp/optee_os/lib/libutee/user_ta_entry.c:145
    17e0:	52800382 	mov	w2, #0x1c                  	// #28
    17e4:	52800341 	mov	w1, #0x1a                  	// #26
/home/build/bsp/optee_os/lib/libutee/user_ta_entry.c:142
    17e8:	a902ffff 	stp	xzr, xzr, [sp, #40]
/home/build/bsp/optee_os/lib/libutee/user_ta_entry.c:145
    17ec:	97ffffc6 	bl	1704 <_get_fn_array>
/home/build/bsp/optee_os/lib/libutee/user_ta_entry.c:147 (discriminator 1)
    17f0:	f9401be0 	ldr	x0, [sp, #48]
    17f4:	eb13001f 	cmp	x0, x19
    17f8:	54000122 	b.cs	181c <_fini_iterate_phdr_cb+0x68>  // b.hs, b.nlast
/home/build/bsp/optee_os/lib/libutee/user_ta_entry.c:151
    17fc:	b0000081 	adrp	x1, 12000 <_DYNAMIC>
    1800:	f9409821 	ldr	x1, [x1, #304]
    1804:	f9401fe0 	ldr	x0, [sp, #56]
    1808:	f9400022 	ldr	x2, [x1]
    180c:	eb020000 	subs	x0, x0, x2
    1810:	d2800002 	mov	x2, #0x0                   	// #0
    1814:	54000100 	b.eq	1834 <_fini_iterate_phdr_cb+0x80>  // b.none
    1818:	97fffba6 	bl	6b0 <__stack_chk_fail>
/home/build/bsp/optee_os/lib/libutee/user_ta_entry.c:148 (discriminator 3)
    181c:	f94017e1 	ldr	x1, [sp, #40]
    1820:	cb130000 	sub	x0, x0, x19
/home/build/bsp/optee_os/lib/libutee/user_ta_entry.c:147 (discriminator 3)
    1824:	91000673 	add	x19, x19, #0x1
/home/build/bsp/optee_os/lib/libutee/user_ta_entry.c:148 (discriminator 3)
    1828:	f8607820 	ldr	x0, [x1, x0, lsl #3]
    182c:	d63f0000 	blr	x0
/home/build/bsp/optee_os/lib/libutee/user_ta_entry.c:147 (discriminator 3)
    1830:	17fffff0 	b	17f0 <_fini_iterate_phdr_cb+0x3c>
/home/build/bsp/optee_os/lib/libutee/user_ta_entry.c:151
    1834:	52800000 	mov	w0, #0x0                   	// #0
    1838:	f9400bf3 	ldr	x19, [sp, #16]
    183c:	a8c47bfd 	ldp	x29, x30, [sp], #64
    1840:	d65f03c0 	ret

0000000000001844 <ta_header_get_session>:
ta_header_get_session():
/home/build/bsp/optee_os/lib/libutee/user_ta_entry.c:208
    1844:	2a0003e1 	mov	w1, w0
/home/build/bsp/optee_os/lib/libutee/user_ta_entry.c:211
    1848:	b0000080 	adrp	x0, 12000 <_DYNAMIC>
    184c:	f9428000 	ldr	x0, [x0, #1280]
/home/build/bsp/optee_os/lib/libutee/user_ta_entry.c:211 (discriminator 1)
    1850:	b5000040 	cbnz	x0, 1858 <ta_header_get_session+0x14>
/home/build/bsp/optee_os/lib/libutee/user_ta_entry.c:216
    1854:	d65f03c0 	ret
/home/build/bsp/optee_os/lib/libutee/user_ta_entry.c:212
    1858:	b9400002 	ldr	w2, [x0]
    185c:	6b01005f 	cmp	w2, w1
    1860:	54ffffa0 	b.eq	1854 <ta_header_get_session+0x10>  // b.none
/home/build/bsp/optee_os/lib/libutee/user_ta_entry.c:211 (discriminator 2)
    1864:	f9400800 	ldr	x0, [x0, #16]
    1868:	17fffffa 	b	1850 <ta_header_get_session+0xc>

000000000000186c <to_utee_params>:
to_utee_params():
/home/build/bsp/optee_os/lib/libutee/user_ta_entry.c:270
    186c:	2a0103e3 	mov	w3, w1
    1870:	f8008403 	str	x3, [x0], #8
    1874:	52800003 	mov	w3, #0x0                   	// #0
/home/build/bsp/optee_os/lib/libutee/user_ta_entry.c:272
    1878:	1ac32425 	lsr	w5, w1, w3
    187c:	12000ca4 	and	w4, w5, #0xf
    1880:	721e04bf 	tst	w5, #0xc
    1884:	54000181 	b.ne	18b4 <to_utee_params+0x48>  // b.any
    1888:	340001c4 	cbz	w4, 18c0 <to_utee_params+0x54>
/home/build/bsp/optee_os/lib/libutee/user_ta_entry.c:276
    188c:	b9400044 	ldr	w4, [x2]
    1890:	f9000004 	str	x4, [x0]
/home/build/bsp/optee_os/lib/libutee/user_ta_entry.c:277
    1894:	b9400444 	ldr	w4, [x2, #4]
/home/build/bsp/optee_os/lib/libutee/user_ta_entry.c:271 (discriminator 2)
    1898:	11001063 	add	w3, w3, #0x4
/home/build/bsp/optee_os/lib/libutee/user_ta_entry.c:277 (discriminator 2)
    189c:	f9000404 	str	x4, [x0, #8]
/home/build/bsp/optee_os/lib/libutee/user_ta_entry.c:271 (discriminator 2)
    18a0:	91004042 	add	x2, x2, #0x10
    18a4:	91004000 	add	x0, x0, #0x10
    18a8:	7100407f 	cmp	w3, #0x10
    18ac:	54fffe61 	b.ne	1878 <to_utee_params+0xc>  // b.any
/home/build/bsp/optee_os/lib/libutee/user_ta_entry.c:291
    18b0:	d65f03c0 	ret
/home/build/bsp/optee_os/lib/libutee/user_ta_entry.c:272
    18b4:	51001484 	sub	w4, w4, #0x5
    18b8:	7100089f 	cmp	w4, #0x2
    18bc:	54000089 	b.ls	18cc <to_utee_params+0x60>  // b.plast
/home/build/bsp/optee_os/lib/libutee/user_ta_entry.c:288
    18c0:	d2800004 	mov	x4, #0x0                   	// #0
/home/build/bsp/optee_os/lib/libutee/user_ta_entry.c:286
    18c4:	f900001f 	str	xzr, [x0]
/home/build/bsp/optee_os/lib/libutee/user_ta_entry.c:288
    18c8:	17fffff4 	b	1898 <to_utee_params+0x2c>
/home/build/bsp/optee_os/lib/libutee/user_ta_entry.c:282
    18cc:	f9400044 	ldr	x4, [x2]
    18d0:	f9000004 	str	x4, [x0]
/home/build/bsp/optee_os/lib/libutee/user_ta_entry.c:283
    18d4:	f9400444 	ldr	x4, [x2, #8]
/home/build/bsp/optee_os/lib/libutee/user_ta_entry.c:284
    18d8:	17fffff0 	b	1898 <to_utee_params+0x2c>

00000000000018dc <from_utee_params>:
from_utee_params():
/home/build/bsp/optee_os/lib/libutee/user_ta_entry.c:298
    18dc:	f8408445 	ldr	x5, [x2], #8
    18e0:	52800003 	mov	w3, #0x0                   	// #0
    18e4:	2a0503e9 	mov	w9, w5
/home/build/bsp/optee_os/lib/libutee/user_ta_entry.c:304
    18e8:	1ac32528 	lsr	w8, w9, w3
    18ec:	12000d04 	and	w4, w8, #0xf
/home/build/bsp/optee_os/lib/libutee/user_ta_entry.c:302
    18f0:	a9401847 	ldp	x7, x6, [x2]
/home/build/bsp/optee_os/lib/libutee/user_ta_entry.c:304
    18f4:	721e051f 	tst	w8, #0xc
    18f8:	54000081 	b.ne	1908 <from_utee_params+0x2c>  // b.any
    18fc:	340000c4 	cbz	w4, 1914 <from_utee_params+0x38>
/home/build/bsp/optee_os/lib/libutee/user_ta_entry.c:309
    1900:	29001807 	stp	w7, w6, [x0]
/home/build/bsp/optee_os/lib/libutee/user_ta_entry.c:310
    1904:	14000004 	b	1914 <from_utee_params+0x38>
/home/build/bsp/optee_os/lib/libutee/user_ta_entry.c:304
    1908:	51001484 	sub	w4, w4, #0x5
    190c:	7100089f 	cmp	w4, #0x2
    1910:	54000109 	b.ls	1930 <from_utee_params+0x54>  // b.plast
/home/build/bsp/optee_os/lib/libutee/user_ta_entry.c:300 (discriminator 2)
    1914:	11001063 	add	w3, w3, #0x4
    1918:	91004042 	add	x2, x2, #0x10
    191c:	91004000 	add	x0, x0, #0x10
    1920:	7100407f 	cmp	w3, #0x10
    1924:	54fffe21 	b.ne	18e8 <from_utee_params+0xc>  // b.any
/home/build/bsp/optee_os/lib/libutee/user_ta_entry.c:323
    1928:	b9000025 	str	w5, [x1]
/home/build/bsp/optee_os/lib/libutee/user_ta_entry.c:324
    192c:	d65f03c0 	ret
/home/build/bsp/optee_os/lib/libutee/user_ta_entry.c:315
    1930:	a9001807 	stp	x7, x6, [x0]
/home/build/bsp/optee_os/lib/libutee/user_ta_entry.c:316
    1934:	17fffff8 	b	1914 <from_utee_params+0x38>

0000000000001938 <_init_iterate_phdr_cb>:
_init_iterate_phdr_cb():
/home/build/bsp/optee_os/lib/libutee/user_ta_entry.c:60
    1938:	a9bd7bfd 	stp	x29, x30, [sp, #-48]!
    193c:	910003fd 	mov	x29, sp
    1940:	a90153f3 	stp	x19, x20, [sp, #16]
    1944:	aa0203f4 	mov	x20, x2
    1948:	f90013f5 	str	x21, [sp, #32]
    194c:	aa0003f5 	mov	x21, x0
/home/build/bsp/optee_os/lib/libutee/user_ta_entry.c:64
    1950:	d2800a00 	mov	x0, #0x50                  	// #80
    1954:	94002c07 	bl	c970 <malloc>
/home/build/bsp/optee_os/lib/libutee/user_ta_entry.c:65
    1958:	b5000140 	cbnz	x0, 1980 <_init_iterate_phdr_cb+0x48>
/home/build/bsp/optee_os/lib/libutee/user_ta_entry.c:66
    195c:	f0000064 	adrp	x4, 10000 <__func__.0+0x28>
    1960:	f0000060 	adrp	x0, 10000 <__func__.0+0x28>
    1964:	911cbc84 	add	x4, x4, #0x72f
    1968:	911df800 	add	x0, x0, #0x77e
    196c:	52800023 	mov	w3, #0x1                   	// #1
    1970:	52800022 	mov	w2, #0x1                   	// #1
    1974:	52800841 	mov	w1, #0x42                  	// #66
    1978:	97fffb14 	bl	5c8 <trace_printf>
/home/build/bsp/optee_os/lib/libutee/user_ta_entry.c:67
    197c:	94000262 	bl	2304 <abort>
    1980:	aa0003f3 	mov	x19, x0
/home/build/bsp/optee_os/lib/libutee/user_ta_entry.c:69
    1984:	aa1503e1 	mov	x1, x21
    1988:	d2800802 	mov	x2, #0x40                  	// #64
    198c:	97fff99d 	bl	0 <memcpy>
/home/build/bsp/optee_os/lib/libutee/user_ta_entry.c:70
    1990:	b0000080 	adrp	x0, 12000 <_DYNAMIC>
    1994:	91140000 	add	x0, x0, #0x500
/home/build/bsp/optee_os/lib/libutee/user_ta_entry.c:73
    1998:	f94013f5 	ldr	x21, [sp, #32]
/home/build/bsp/optee_os/lib/libutee/user_ta_entry.c:70
    199c:	f9400c01 	ldr	x1, [x0, #24]
    19a0:	a904067f 	stp	xzr, x1, [x19, #64]
    19a4:	f9000033 	str	x19, [x1]
    19a8:	91010273 	add	x19, x19, #0x40
    19ac:	f9000c13 	str	x19, [x0, #24]
/home/build/bsp/optee_os/lib/libutee/user_ta_entry.c:71
    19b0:	f9400280 	ldr	x0, [x20]
    19b4:	91000400 	add	x0, x0, #0x1
    19b8:	f9000280 	str	x0, [x20]
/home/build/bsp/optee_os/lib/libutee/user_ta_entry.c:73
    19bc:	52800000 	mov	w0, #0x0                   	// #0
    19c0:	a94153f3 	ldp	x19, x20, [sp, #16]
    19c4:	a8c37bfd 	ldp	x29, x30, [sp], #48
    19c8:	d65f03c0 	ret

00000000000019cc <__utee_call_elf_init_fn>:
__utee_call_elf_init_fn():
/home/build/bsp/optee_os/lib/libutee/user_ta_entry.c:107
    19cc:	a9b97bfd 	stp	x29, x30, [sp, #-112]!
    19d0:	b0000080 	adrp	x0, 12000 <_DYNAMIC>
    19d4:	910003fd 	mov	x29, sp
    19d8:	f9409800 	ldr	x0, [x0, #304]
    19dc:	a90153f3 	stp	x19, x20, [sp, #16]
/home/build/bsp/optee_os/lib/libutee/user_ta_entry.c:119
    19e0:	b0000094 	adrp	x20, 12000 <_DYNAMIC>
/home/build/bsp/optee_os/lib/libutee/user_ta_entry.c:107
    19e4:	a9025bf5 	stp	x21, x22, [sp, #32]
/home/build/bsp/optee_os/lib/libutee/user_ta_entry.c:111
    19e8:	d2800013 	mov	x19, #0x0                   	// #0
/home/build/bsp/optee_os/lib/libutee/user_ta_entry.c:107
    19ec:	a90363f7 	stp	x23, x24, [sp, #48]
/home/build/bsp/optee_os/lib/libutee/user_ta_entry.c:122
    19f0:	910183f8 	add	x24, sp, #0x60
/home/build/bsp/optee_os/lib/libutee/user_ta_entry.c:120
    19f4:	b0000097 	adrp	x23, 12000 <_DYNAMIC>
/home/build/bsp/optee_os/lib/libutee/user_ta_entry.c:107
    19f8:	f90023f9 	str	x25, [sp, #64]
/home/build/bsp/optee_os/lib/libutee/user_ta_entry.c:122
    19fc:	910143f9 	add	x25, sp, #0x50
/home/build/bsp/optee_os/lib/libutee/user_ta_entry.c:107
    1a00:	f9400001 	ldr	x1, [x0]
    1a04:	f90037e1 	str	x1, [sp, #104]
    1a08:	d2800001 	mov	x1, #0x0                   	// #0
/home/build/bsp/optee_os/lib/libutee/user_ta_entry.c:116
    1a0c:	90000000 	adrp	x0, 1000 <kprintf.constprop.0+0x734>
    1a10:	910163e1 	add	x1, sp, #0x58
    1a14:	9124e000 	add	x0, x0, #0x938
/home/build/bsp/optee_os/lib/libutee/user_ta_entry.c:109
    1a18:	a9057fff 	stp	xzr, xzr, [sp, #80]
/home/build/bsp/optee_os/lib/libutee/user_ta_entry.c:110
    1a1c:	f90033ff 	str	xzr, [sp, #96]
/home/build/bsp/optee_os/lib/libutee/user_ta_entry.c:116
    1a20:	9400148b 	bl	6c4c <dl_iterate_phdr>
/home/build/bsp/optee_os/lib/libutee/user_ta_entry.c:119
    1a24:	91140280 	add	x0, x20, #0x500
    1a28:	f9400c00 	ldr	x0, [x0, #24]
    1a2c:	f9400400 	ldr	x0, [x0, #8]
    1a30:	f9400015 	ldr	x21, [x0]
/home/build/bsp/optee_os/lib/libutee/user_ta_entry.c:120 (discriminator 1)
    1a34:	f9430ae1 	ldr	x1, [x23, #1552]
/home/build/bsp/optee_os/lib/libutee/user_ta_entry.c:119 (discriminator 1)
    1a38:	b5000155 	cbnz	x21, 1a60 <__utee_call_elf_init_fn+0x94>
/home/build/bsp/optee_os/lib/libutee/user_ta_entry.c:132
    1a3c:	91140294 	add	x20, x20, #0x500
/home/build/bsp/optee_os/lib/libutee/user_ta_entry.c:130
    1a40:	8b010273 	add	x19, x19, x1
    1a44:	f9030af3 	str	x19, [x23, #1552]
/home/build/bsp/optee_os/lib/libutee/user_ta_entry.c:132
    1a48:	f9400a80 	ldr	x0, [x20, #16]
/home/build/bsp/optee_os/lib/libutee/user_ta_entry.c:132 (discriminator 2)
    1a4c:	b40004a0 	cbz	x0, 1ae0 <__utee_call_elf_init_fn+0x114>
/home/build/bsp/optee_os/lib/libutee/user_ta_entry.c:133 (discriminator 3)
    1a50:	a9440413 	ldp	x19, x1, [x0, #64]
    1a54:	b50003b3 	cbnz	x19, 1ac8 <__utee_call_elf_init_fn+0xfc>
/home/build/bsp/optee_os/lib/libutee/user_ta_entry.c:133 (discriminator 2)
    1a58:	f9000e81 	str	x1, [x20, #24]
    1a5c:	1400001c 	b	1acc <__utee_call_elf_init_fn+0x100>
/home/build/bsp/optee_os/lib/libutee/user_ta_entry.c:120
    1a60:	f9402fe0 	ldr	x0, [sp, #88]
    1a64:	cb010000 	sub	x0, x0, x1
    1a68:	eb13001f 	cmp	x0, x19
    1a6c:	54fffe80 	b.eq	1a3c <__utee_call_elf_init_fn+0x70>  // b.none
/home/build/bsp/optee_os/lib/libutee/user_ta_entry.c:124
    1a70:	d2800016 	mov	x22, #0x0                   	// #0
/home/build/bsp/optee_os/lib/libutee/user_ta_entry.c:122
    1a74:	aa1803e4 	mov	x4, x24
    1a78:	aa1903e3 	mov	x3, x25
    1a7c:	aa1503e0 	mov	x0, x21
    1a80:	52800362 	mov	w2, #0x1b                  	// #27
    1a84:	52800321 	mov	w1, #0x19                  	// #25
    1a88:	97ffff1f 	bl	1704 <_get_fn_array>
/home/build/bsp/optee_os/lib/libutee/user_ta_entry.c:124 (discriminator 1)
    1a8c:	f94033e0 	ldr	x0, [sp, #96]
    1a90:	eb16001f 	cmp	x0, x22
    1a94:	54000108 	b.hi	1ab4 <__utee_call_elf_init_fn+0xe8>  // b.pmore
/home/build/bsp/optee_os/lib/libutee/user_ta_entry.c:119 (discriminator 2)
    1a98:	f94026a0 	ldr	x0, [x21, #72]
/home/build/bsp/optee_os/lib/libutee/user_ta_entry.c:128 (discriminator 2)
    1a9c:	91000673 	add	x19, x19, #0x1
/home/build/bsp/optee_os/lib/libutee/user_ta_entry.c:126 (discriminator 2)
    1aa0:	f9002bff 	str	xzr, [sp, #80]
/home/build/bsp/optee_os/lib/libutee/user_ta_entry.c:127 (discriminator 2)
    1aa4:	f90033ff 	str	xzr, [sp, #96]
/home/build/bsp/optee_os/lib/libutee/user_ta_entry.c:119 (discriminator 2)
    1aa8:	f9400400 	ldr	x0, [x0, #8]
    1aac:	f9400015 	ldr	x21, [x0]
    1ab0:	17ffffe1 	b	1a34 <__utee_call_elf_init_fn+0x68>
/home/build/bsp/optee_os/lib/libutee/user_ta_entry.c:125 (discriminator 3)
    1ab4:	f9402be0 	ldr	x0, [sp, #80]
    1ab8:	f8767800 	ldr	x0, [x0, x22, lsl #3]
/home/build/bsp/optee_os/lib/libutee/user_ta_entry.c:124 (discriminator 3)
    1abc:	910006d6 	add	x22, x22, #0x1
/home/build/bsp/optee_os/lib/libutee/user_ta_entry.c:125 (discriminator 3)
    1ac0:	d63f0000 	blr	x0
/home/build/bsp/optee_os/lib/libutee/user_ta_entry.c:124 (discriminator 3)
    1ac4:	17fffff2 	b	1a8c <__utee_call_elf_init_fn+0xc0>
/home/build/bsp/optee_os/lib/libutee/user_ta_entry.c:133 (discriminator 1)
    1ac8:	f9002661 	str	x1, [x19, #72]
/home/build/bsp/optee_os/lib/libutee/user_ta_entry.c:133 (discriminator 4)
    1acc:	f9402401 	ldr	x1, [x0, #72]
    1ad0:	f9000033 	str	x19, [x1]
/home/build/bsp/optee_os/lib/libutee/user_ta_entry.c:134 (discriminator 4)
    1ad4:	94002bc7 	bl	c9f0 <free>
/home/build/bsp/optee_os/lib/libutee/user_ta_entry.c:132 (discriminator 4)
    1ad8:	aa1303e0 	mov	x0, x19
    1adc:	17ffffdc 	b	1a4c <__utee_call_elf_init_fn+0x80>
/home/build/bsp/optee_os/lib/libutee/user_ta_entry.c:136
    1ae0:	b0000080 	adrp	x0, 12000 <_DYNAMIC>
    1ae4:	f9409800 	ldr	x0, [x0, #304]
    1ae8:	f94037e2 	ldr	x2, [sp, #104]
    1aec:	f9400001 	ldr	x1, [x0]
    1af0:	eb010042 	subs	x2, x2, x1
    1af4:	d2800001 	mov	x1, #0x0                   	// #0
    1af8:	54000040 	b.eq	1b00 <__utee_call_elf_init_fn+0x134>  // b.none
    1afc:	97fffaed 	bl	6b0 <__stack_chk_fail>
    1b00:	a94153f3 	ldp	x19, x20, [sp, #16]
    1b04:	a9425bf5 	ldp	x21, x22, [sp, #32]
    1b08:	a94363f7 	ldp	x23, x24, [sp, #48]
    1b0c:	f94023f9 	ldr	x25, [sp, #64]
    1b10:	a8c77bfd 	ldp	x29, x30, [sp], #112
    1b14:	d65f03c0 	ret

0000000000001b18 <__utee_call_elf_fini_fn>:
__utee_call_elf_fini_fn():
/home/build/bsp/optee_os/lib/libutee/user_ta_entry.c:155
    1b18:	d2800001 	mov	x1, #0x0                   	// #0
    1b1c:	90000000 	adrp	x0, 1000 <kprintf.constprop.0+0x734>
    1b20:	911ed000 	add	x0, x0, #0x7b4
    1b24:	1400144a 	b	6c4c <dl_iterate_phdr>

0000000000001b28 <ta_header_remove_session>:
ta_header_remove_session():
/home/build/bsp/optee_os/lib/libutee/user_ta_entry.c:245
    1b28:	a9be7bfd 	stp	x29, x30, [sp, #-32]!
    1b2c:	2a0003e2 	mov	w2, w0
    1b30:	910003fd 	mov	x29, sp
    1b34:	f9000bf3 	str	x19, [sp, #16]
/home/build/bsp/optee_os/lib/libutee/user_ta_entry.c:249
    1b38:	b0000093 	adrp	x19, 12000 <_DYNAMIC>
    1b3c:	f9428260 	ldr	x0, [x19, #1280]
/home/build/bsp/optee_os/lib/libutee/user_ta_entry.c:249 (discriminator 1)
    1b40:	b5000080 	cbnz	x0, 1b50 <ta_header_remove_session+0x28>
/home/build/bsp/optee_os/lib/libutee/user_ta_entry.c:263
    1b44:	f9400bf3 	ldr	x19, [sp, #16]
    1b48:	a8c27bfd 	ldp	x29, x30, [sp], #32
    1b4c:	d65f03c0 	ret
/home/build/bsp/optee_os/lib/libutee/user_ta_entry.c:250
    1b50:	b9400003 	ldr	w3, [x0]
/home/build/bsp/optee_os/lib/libutee/user_ta_entry.c:251
    1b54:	f9400801 	ldr	x1, [x0, #16]
/home/build/bsp/optee_os/lib/libutee/user_ta_entry.c:250
    1b58:	6b02007f 	cmp	w3, w2
    1b5c:	540002c1 	b.ne	1bb4 <ta_header_remove_session+0x8c>  // b.any
/home/build/bsp/optee_os/lib/libutee/user_ta_entry.c:251
    1b60:	f9400c02 	ldr	x2, [x0, #24]
    1b64:	b4000221 	cbz	x1, 1ba8 <ta_header_remove_session+0x80>
/home/build/bsp/optee_os/lib/libutee/user_ta_entry.c:251 (discriminator 1)
    1b68:	f9000c22 	str	x2, [x1, #24]
/home/build/bsp/optee_os/lib/libutee/user_ta_entry.c:251 (discriminator 4)
    1b6c:	f9400c02 	ldr	x2, [x0, #24]
    1b70:	f9000041 	str	x1, [x2]
/home/build/bsp/optee_os/lib/libutee/user_ta_entry.c:252 (discriminator 4)
    1b74:	940005c6 	bl	328c <TEE_Free>
/home/build/bsp/optee_os/lib/libutee/user_ta_entry.c:255 (discriminator 4)
    1b78:	b0000080 	adrp	x0, 12000 <_DYNAMIC>
    1b7c:	f940e800 	ldr	x0, [x0, #464]
    1b80:	f9400801 	ldr	x1, [x0, #16]
/home/build/bsp/optee_os/lib/libutee/user_ta_entry.c:257 (discriminator 4)
    1b84:	f9428260 	ldr	x0, [x19, #1280]
    1b88:	b5fffde0 	cbnz	x0, 1b44 <ta_header_remove_session+0x1c>
/home/build/bsp/optee_os/lib/libutee/user_ta_entry.c:257 (discriminator 1)
    1b8c:	d2c00280 	mov	x0, #0x1400000000          	// #85899345920
    1b90:	ea21001f 	bics	xzr, x0, x1
    1b94:	54fffd80 	b.eq	1b44 <ta_header_remove_session+0x1c>  // b.none
uninit_instance():
/home/build/bsp/optee_os/lib/libutee/user_ta_entry.c:192
    1b98:	97fff962 	bl	120 <TA_DestroyEntryPoint>
ta_header_remove_session():
/home/build/bsp/optee_os/lib/libutee/user_ta_entry.c:263
    1b9c:	f9400bf3 	ldr	x19, [sp, #16]
    1ba0:	a8c27bfd 	ldp	x29, x30, [sp], #32
uninit_instance():
/home/build/bsp/optee_os/lib/libutee/user_ta_entry.c:193
    1ba4:	17ffffdd 	b	1b18 <__utee_call_elf_fini_fn>
ta_header_remove_session():
/home/build/bsp/optee_os/lib/libutee/user_ta_entry.c:251 (discriminator 2)
    1ba8:	91140263 	add	x3, x19, #0x500
    1bac:	f9000462 	str	x2, [x3, #8]
    1bb0:	17ffffef 	b	1b6c <ta_header_remove_session+0x44>
/home/build/bsp/optee_os/lib/libutee/user_ta_entry.c:251
    1bb4:	aa0103e0 	mov	x0, x1
    1bb8:	17ffffe2 	b	1b40 <ta_header_remove_session+0x18>

0000000000001bbc <__utee_entry>:
__utee_entry():
/home/build/bsp/optee_os/lib/libutee/user_ta_entry.c:421
    1bbc:	a9b77bfd 	stp	x29, x30, [sp, #-144]!
    1bc0:	b0000084 	adrp	x4, 12000 <_DYNAMIC>
/home/build/bsp/optee_os/lib/libutee/user_ta_entry.c:424
    1bc4:	f100041f 	cmp	x0, #0x1
/home/build/bsp/optee_os/lib/libutee/user_ta_entry.c:421
    1bc8:	910003fd 	mov	x29, sp
    1bcc:	a9025bf5 	stp	x21, x22, [sp, #32]
    1bd0:	aa0103f5 	mov	x21, x1
    1bd4:	aa0203f6 	mov	x22, x2
    1bd8:	f9409881 	ldr	x1, [x4, #304]
    1bdc:	a90153f3 	stp	x19, x20, [sp, #16]
    1be0:	aa0403f4 	mov	x20, x4
    1be4:	a90363f7 	stp	x23, x24, [sp, #48]
    1be8:	f9400022 	ldr	x2, [x1]
    1bec:	f90047e2 	str	x2, [sp, #136]
    1bf0:	d2800002 	mov	x2, #0x0                   	// #0
/home/build/bsp/optee_os/lib/libutee/user_ta_entry.c:424
    1bf4:	54000ca0 	b.eq	1d88 <__utee_entry+0x1cc>  // b.none
    1bf8:	f100081f 	cmp	x0, #0x2
    1bfc:	54000d80 	b.eq	1dac <__utee_entry+0x1f0>  // b.none
    1c00:	b50010e0 	cbnz	x0, 1e1c <__utee_entry+0x260>
ta_header_add_session():
/home/build/bsp/optee_os/lib/libutee/user_ta_entry.c:220
    1c04:	2a1503e0 	mov	w0, w21
    1c08:	97ffff0f 	bl	1844 <ta_header_get_session>
/home/build/bsp/optee_os/lib/libutee/user_ta_entry.c:223
    1c0c:	b5000840 	cbnz	x0, 1d14 <__utee_entry+0x158>
/home/build/bsp/optee_os/lib/libutee/user_ta_entry.c:226
    1c10:	b0000080 	adrp	x0, 12000 <_DYNAMIC>
    1c14:	91184000 	add	x0, x0, #0x610
    1c18:	39402001 	ldrb	w1, [x0, #8]
    1c1c:	340000e1 	cbz	w1, 1c38 <__utee_entry+0x7c>
/home/build/bsp/optee_os/lib/libutee/user_ta_entry.c:233
    1c20:	52b00001 	mov	w1, #0x80000000            	// #-2147483648
    1c24:	d2800400 	mov	x0, #0x20                  	// #32
    1c28:	9400054e 	bl	3160 <TEE_Malloc>
/home/build/bsp/optee_os/lib/libutee/user_ta_entry.c:235
    1c2c:	b5000620 	cbnz	x0, 1cf0 <__utee_entry+0x134>
/home/build/bsp/optee_os/lib/libutee/user_ta_entry.c:236
    1c30:	129ffe73 	mov	w19, #0xffff000c            	// #-65524
    1c34:	14000022 	b	1cbc <__utee_entry+0x100>
/home/build/bsp/optee_os/lib/libutee/user_ta_entry.c:227
    1c38:	52800021 	mov	w1, #0x1                   	// #1
    1c3c:	39002001 	strb	w1, [x0, #8]
init_instance():
/home/build/bsp/optee_os/lib/libutee/user_ta_entry.c:170
    1c40:	97fff9c8 	bl	360 <tahead_get_trace_level>
    1c44:	97fff9cf 	bl	380 <trace_set_level>
/home/build/bsp/optee_os/lib/libutee/user_ta_entry.c:172
    1c48:	f9409e80 	ldr	x0, [x20, #312]
    1c4c:	f9400001 	ldr	x1, [x0]
    1c50:	f940be80 	ldr	x0, [x20, #376]
    1c54:	94002c34 	bl	cd24 <malloc_add_pool>
/home/build/bsp/optee_os/lib/libutee/user_ta_entry.c:173
    1c58:	f940a280 	ldr	x0, [x20, #320]
    1c5c:	f9400017 	ldr	x23, [x0]
    1c60:	b4000177 	cbz	x23, 1c8c <__utee_entry+0xd0>
/home/build/bsp/optee_os/lib/libutee/user_ta_entry.c:174
    1c64:	94002b6b 	bl	ca10 <raw_malloc_get_ctx_size>
    1c68:	94002b42 	bl	c970 <malloc>
    1c6c:	f940da93 	ldr	x19, [x20, #432]
    1c70:	f9000260 	str	x0, [x19]
/home/build/bsp/optee_os/lib/libutee/user_ta_entry.c:175
    1c74:	b40000c0 	cbz	x0, 1c8c <__utee_entry+0xd0>
/home/build/bsp/optee_os/lib/libutee/user_ta_entry.c:176
    1c78:	94002b68 	bl	ca18 <raw_malloc_init_ctx>
/home/build/bsp/optee_os/lib/libutee/user_ta_entry.c:177
    1c7c:	f940de81 	ldr	x1, [x20, #440]
    1c80:	aa1703e2 	mov	x2, x23
    1c84:	f9400260 	ldr	x0, [x19]
    1c88:	94002b6b 	bl	ca34 <raw_malloc_add_pool>
get_memtag_implementation():
/home/build/bsp/optee_os/lib/libutee/user_ta_entry.c:163
    1c8c:	910113e2 	add	x2, sp, #0x44
    1c90:	f0000061 	adrp	x1, 10000 <__func__.0+0x28>
    1c94:	911d2021 	add	x1, x1, #0x748
    1c98:	12800040 	mov	w0, #0xfffffffd            	// #-3
/home/build/bsp/optee_os/lib/libutee/user_ta_entry.c:161
    1c9c:	b90047ff 	str	wzr, [sp, #68]
/home/build/bsp/optee_os/lib/libutee/user_ta_entry.c:163
    1ca0:	9400109b 	bl	5f0c <TEE_GetPropertyAsU32>
init_instance():
/home/build/bsp/optee_os/lib/libutee/user_ta_entry.c:183
    1ca4:	940007f0 	bl	3c64 <_TEE_MathAPI_Init>
/home/build/bsp/optee_os/lib/libutee/user_ta_entry.c:184
    1ca8:	94001352 	bl	69f0 <__utee_tcb_init>
/home/build/bsp/optee_os/lib/libutee/user_ta_entry.c:185
    1cac:	97ffff48 	bl	19cc <__utee_call_elf_init_fn>
/home/build/bsp/optee_os/lib/libutee/user_ta_entry.c:186
    1cb0:	97fff90f 	bl	ec <TA_CreateEntryPoint>
    1cb4:	2a0003f3 	mov	w19, w0
ta_header_add_session():
/home/build/bsp/optee_os/lib/libutee/user_ta_entry.c:229
    1cb8:	34fffb40 	cbz	w0, 1c20 <__utee_entry+0x64>
ta_header_save_params():
/home/build/bsp/optee_os/lib/libutee/user_ta_entry.c:199
    1cbc:	f940d280 	ldr	x0, [x20, #416]
/home/build/bsp/optee_os/lib/libutee/user_ta_entry.c:204
    1cc0:	4f000400 	movi	v0.4s, #0x0
/home/build/bsp/optee_os/lib/libutee/user_ta_entry.c:199
    1cc4:	b900001f 	str	wzr, [x0]
/home/build/bsp/optee_os/lib/libutee/user_ta_entry.c:204
    1cc8:	f940e280 	ldr	x0, [x20, #448]
__utee_entry():
/home/build/bsp/optee_os/lib/libutee/user_ta_entry.c:446
    1ccc:	f9409a94 	ldr	x20, [x20, #304]
ta_header_save_params():
/home/build/bsp/optee_os/lib/libutee/user_ta_entry.c:204
    1cd0:	ad000000 	stp	q0, q0, [x0]
    1cd4:	ad010000 	stp	q0, q0, [x0, #32]
__utee_entry():
/home/build/bsp/optee_os/lib/libutee/user_ta_entry.c:446
    1cd8:	f94047e0 	ldr	x0, [sp, #136]
    1cdc:	f9400281 	ldr	x1, [x20]
    1ce0:	eb010000 	subs	x0, x0, x1
    1ce4:	d2800001 	mov	x1, #0x0                   	// #0
    1ce8:	54000a20 	b.eq	1e2c <__utee_entry+0x270>  // b.none
    1cec:	97fffa71 	bl	6b0 <__stack_chk_fail>
ta_header_add_session():
/home/build/bsp/optee_os/lib/libutee/user_ta_entry.c:239
    1cf0:	b0000081 	adrp	x1, 12000 <_DYNAMIC>
    1cf4:	91140021 	add	x1, x1, #0x500
    1cf8:	f9400422 	ldr	x2, [x1, #8]
/home/build/bsp/optee_os/lib/libutee/user_ta_entry.c:237
    1cfc:	b9000015 	str	w21, [x0]
/home/build/bsp/optee_os/lib/libutee/user_ta_entry.c:239
    1d00:	a900fc1f 	stp	xzr, xzr, [x0, #8]
    1d04:	f9000c02 	str	x2, [x0, #24]
    1d08:	f9000040 	str	x0, [x2]
    1d0c:	91004000 	add	x0, x0, #0x10
    1d10:	f9000420 	str	x0, [x1, #8]
entry_open_session():
/home/build/bsp/optee_os/lib/libutee/user_ta_entry.c:338
    1d14:	2a1503e0 	mov	w0, w21
    1d18:	97fffecb 	bl	1844 <ta_header_get_session>
    1d1c:	aa0003f3 	mov	x19, x0
/home/build/bsp/optee_os/lib/libutee/user_ta_entry.c:339
    1d20:	b4000820 	cbz	x0, 1e24 <__utee_entry+0x268>
/home/build/bsp/optee_os/lib/libutee/user_ta_entry.c:342
    1d24:	910123f7 	add	x23, sp, #0x48
    1d28:	aa1603e2 	mov	x2, x22
    1d2c:	910113e1 	add	x1, sp, #0x44
    1d30:	aa1703e0 	mov	x0, x23
    1d34:	97fffeea 	bl	18dc <from_utee_params>
/home/build/bsp/optee_os/lib/libutee/user_ta_entry.c:343
    1d38:	b94047f8 	ldr	w24, [sp, #68]
ta_header_save_params():
/home/build/bsp/optee_os/lib/libutee/user_ta_entry.c:199
    1d3c:	f940d280 	ldr	x0, [x20, #416]
/home/build/bsp/optee_os/lib/libutee/user_ta_entry.c:202
    1d40:	aa1703e1 	mov	x1, x23
    1d44:	d2800802 	mov	x2, #0x40                  	// #64
/home/build/bsp/optee_os/lib/libutee/user_ta_entry.c:199
    1d48:	b9000018 	str	w24, [x0]
/home/build/bsp/optee_os/lib/libutee/user_ta_entry.c:202
    1d4c:	f940e280 	ldr	x0, [x20, #448]
    1d50:	97fff8ac 	bl	0 <memcpy>
entry_open_session():
/home/build/bsp/optee_os/lib/libutee/user_ta_entry.c:345
    1d54:	91002262 	add	x2, x19, #0x8
    1d58:	aa1703e1 	mov	x1, x23
    1d5c:	2a1803e0 	mov	w0, w24
    1d60:	97fff982 	bl	368 <TA_OpenSessionEntryPoint>
/home/build/bsp/optee_os/lib/libutee/user_ta_entry.c:348
    1d64:	aa1703e2 	mov	x2, x23
/home/build/bsp/optee_os/lib/libutee/user_ta_entry.c:345
    1d68:	2a0003f3 	mov	w19, w0
/home/build/bsp/optee_os/lib/libutee/user_ta_entry.c:348
    1d6c:	2a1803e1 	mov	w1, w24
    1d70:	aa1603e0 	mov	x0, x22
    1d74:	97fffebe 	bl	186c <to_utee_params>
/home/build/bsp/optee_os/lib/libutee/user_ta_entry.c:350
    1d78:	34fffa33 	cbz	w19, 1cbc <__utee_entry+0x100>
/home/build/bsp/optee_os/lib/libutee/user_ta_entry.c:351
    1d7c:	2a1503e0 	mov	w0, w21
    1d80:	97ffff6a 	bl	1b28 <ta_header_remove_session>
    1d84:	17ffffce 	b	1cbc <__utee_entry+0x100>
entry_close_session():
/home/build/bsp/optee_os/lib/libutee/user_ta_entry.c:357
    1d88:	2a1503e0 	mov	w0, w21
    1d8c:	97fffeae 	bl	1844 <ta_header_get_session>
/home/build/bsp/optee_os/lib/libutee/user_ta_entry.c:359
    1d90:	b40004a0 	cbz	x0, 1e24 <__utee_entry+0x268>
/home/build/bsp/optee_os/lib/libutee/user_ta_entry.c:362
    1d94:	f9400400 	ldr	x0, [x0, #8]
/home/build/bsp/optee_os/lib/libutee/user_ta_entry.c:365
    1d98:	52800013 	mov	w19, #0x0                   	// #0
/home/build/bsp/optee_os/lib/libutee/user_ta_entry.c:362
    1d9c:	97fff906 	bl	1b4 <TA_CloseSessionEntryPoint>
/home/build/bsp/optee_os/lib/libutee/user_ta_entry.c:364
    1da0:	2a1503e0 	mov	w0, w21
    1da4:	97ffff61 	bl	1b28 <ta_header_remove_session>
/home/build/bsp/optee_os/lib/libutee/user_ta_entry.c:365
    1da8:	17ffffc5 	b	1cbc <__utee_entry+0x100>
entry_invoke_command():
/home/build/bsp/optee_os/lib/libutee/user_ta_entry.c:374
    1dac:	2a1503e0 	mov	w0, w21
    1db0:	97fffea5 	bl	1844 <ta_header_get_session>
    1db4:	aa0003f3 	mov	x19, x0
/home/build/bsp/optee_os/lib/libutee/user_ta_entry.c:376
    1db8:	b4000360 	cbz	x0, 1e24 <__utee_entry+0x268>
/home/build/bsp/optee_os/lib/libutee/user_ta_entry.c:379
    1dbc:	910123f5 	add	x21, sp, #0x48
    1dc0:	aa0303f7 	mov	x23, x3
    1dc4:	aa1603e2 	mov	x2, x22
    1dc8:	910113e1 	add	x1, sp, #0x44
    1dcc:	aa1503e0 	mov	x0, x21
    1dd0:	97fffec3 	bl	18dc <from_utee_params>
ta_header_save_params():
/home/build/bsp/optee_os/lib/libutee/user_ta_entry.c:199
    1dd4:	f940d280 	ldr	x0, [x20, #416]
/home/build/bsp/optee_os/lib/libutee/user_ta_entry.c:202
    1dd8:	aa1503e1 	mov	x1, x21
entry_invoke_command():
/home/build/bsp/optee_os/lib/libutee/user_ta_entry.c:380
    1ddc:	b94047f8 	ldr	w24, [sp, #68]
ta_header_save_params():
/home/build/bsp/optee_os/lib/libutee/user_ta_entry.c:202
    1de0:	d2800802 	mov	x2, #0x40                  	// #64
/home/build/bsp/optee_os/lib/libutee/user_ta_entry.c:199
    1de4:	b9000018 	str	w24, [x0]
/home/build/bsp/optee_os/lib/libutee/user_ta_entry.c:202
    1de8:	f940e280 	ldr	x0, [x20, #448]
    1dec:	97fff885 	bl	0 <memcpy>
entry_invoke_command():
/home/build/bsp/optee_os/lib/libutee/user_ta_entry.c:382
    1df0:	f9400660 	ldr	x0, [x19, #8]
    1df4:	aa1503e3 	mov	x3, x21
    1df8:	2a1803e2 	mov	w2, w24
    1dfc:	2a1703e1 	mov	w1, w23
    1e00:	97fff95d 	bl	374 <TA_InvokeCommandEntryPoint>
    1e04:	2a0003f3 	mov	w19, w0
/home/build/bsp/optee_os/lib/libutee/user_ta_entry.c:385
    1e08:	aa1503e2 	mov	x2, x21
    1e0c:	2a1803e1 	mov	w1, w24
    1e10:	aa1603e0 	mov	x0, x22
    1e14:	97fffe96 	bl	186c <to_utee_params>
/home/build/bsp/optee_os/lib/libutee/user_ta_entry.c:386
    1e18:	17ffffa9 	b	1cbc <__utee_entry+0x100>
__utee_entry():
/home/build/bsp/optee_os/lib/libutee/user_ta_entry.c:424
    1e1c:	129ffeb3 	mov	w19, #0xffff000a            	// #-65526
    1e20:	17ffffa7 	b	1cbc <__utee_entry+0x100>
entry_close_session():
/home/build/bsp/optee_os/lib/libutee/user_ta_entry.c:360
    1e24:	129fff13 	mov	w19, #0xffff0007            	// #-65529
    1e28:	17ffffa5 	b	1cbc <__utee_entry+0x100>
__utee_entry():
/home/build/bsp/optee_os/lib/libutee/user_ta_entry.c:446
    1e2c:	2a1303e0 	mov	w0, w19
    1e30:	a94153f3 	ldp	x19, x20, [sp, #16]
    1e34:	a9425bf5 	ldp	x21, x22, [sp, #32]
    1e38:	a94363f7 	ldp	x23, x24, [sp, #48]
    1e3c:	a8c97bfd 	ldp	x29, x30, [sp], #144
    1e40:	d65f03c0 	ret

0000000000001e44 <to_gp11_param>:
to_gp11_param():
/home/build/bsp/optee_os/lib/libutee/user_ta_entry_compat.c:11
    1e44:	52800003 	mov	w3, #0x0                   	// #0
/home/build/bsp/optee_os/lib/libutee/user_ta_entry_compat.c:15
    1e48:	1ac32405 	lsr	w5, w0, w3
    1e4c:	12000ca4 	and	w4, w5, #0xf
    1e50:	721e04bf 	tst	w5, #0xc
    1e54:	540000e1 	b.ne	1e70 <to_gp11_param+0x2c>  // b.any
    1e58:	34000124 	cbz	w4, 1e7c <to_gp11_param+0x38>
/home/build/bsp/optee_os/lib/libutee/user_ta_entry_compat.c:19
    1e5c:	b9400024 	ldr	w4, [x1]
    1e60:	b9000044 	str	w4, [x2]
/home/build/bsp/optee_os/lib/libutee/user_ta_entry_compat.c:20
    1e64:	b9400424 	ldr	w4, [x1, #4]
    1e68:	b9000444 	str	w4, [x2, #4]
/home/build/bsp/optee_os/lib/libutee/user_ta_entry_compat.c:21
    1e6c:	14000004 	b	1e7c <to_gp11_param+0x38>
/home/build/bsp/optee_os/lib/libutee/user_ta_entry_compat.c:15
    1e70:	51001484 	sub	w4, w4, #0x5
    1e74:	7100089f 	cmp	w4, #0x2
    1e78:	540000e9 	b.ls	1e94 <to_gp11_param+0x50>  // b.plast
/home/build/bsp/optee_os/lib/libutee/user_ta_entry_compat.c:14 (discriminator 2)
    1e7c:	11001063 	add	w3, w3, #0x4
    1e80:	91004021 	add	x1, x1, #0x10
    1e84:	91004042 	add	x2, x2, #0x10
    1e88:	7100407f 	cmp	w3, #0x10
    1e8c:	54fffde1 	b.ne	1e48 <to_gp11_param+0x4>  // b.any
/home/build/bsp/optee_os/lib/libutee/user_ta_entry_compat.c:32
    1e90:	d65f03c0 	ret
/home/build/bsp/optee_os/lib/libutee/user_ta_entry_compat.c:25
    1e94:	f9400024 	ldr	x4, [x1]
    1e98:	f9000044 	str	x4, [x2]
/home/build/bsp/optee_os/lib/libutee/user_ta_entry_compat.c:26
    1e9c:	f9400424 	ldr	x4, [x1, #8]
    1ea0:	b9000844 	str	w4, [x2, #8]
/home/build/bsp/optee_os/lib/libutee/user_ta_entry_compat.c:27
    1ea4:	17fffff6 	b	1e7c <to_gp11_param+0x38>

0000000000001ea8 <from_gp11_param>:
from_gp11_param():
/home/build/bsp/optee_os/lib/libutee/user_ta_entry_compat.c:37
    1ea8:	52800003 	mov	w3, #0x0                   	// #0
/home/build/bsp/optee_os/lib/libutee/user_ta_entry_compat.c:41
    1eac:	1ac32405 	lsr	w5, w0, w3
    1eb0:	12000ca4 	and	w4, w5, #0xf
    1eb4:	721e04bf 	tst	w5, #0xc
    1eb8:	540000e1 	b.ne	1ed4 <from_gp11_param+0x2c>  // b.any
    1ebc:	34000124 	cbz	w4, 1ee0 <from_gp11_param+0x38>
/home/build/bsp/optee_os/lib/libutee/user_ta_entry_compat.c:45
    1ec0:	b9400024 	ldr	w4, [x1]
    1ec4:	b9000044 	str	w4, [x2]
/home/build/bsp/optee_os/lib/libutee/user_ta_entry_compat.c:46
    1ec8:	b9400424 	ldr	w4, [x1, #4]
    1ecc:	b9000444 	str	w4, [x2, #4]
/home/build/bsp/optee_os/lib/libutee/user_ta_entry_compat.c:47
    1ed0:	14000004 	b	1ee0 <from_gp11_param+0x38>
/home/build/bsp/optee_os/lib/libutee/user_ta_entry_compat.c:41
    1ed4:	51001484 	sub	w4, w4, #0x5
    1ed8:	7100089f 	cmp	w4, #0x2
    1edc:	540000e9 	b.ls	1ef8 <from_gp11_param+0x50>  // b.plast
/home/build/bsp/optee_os/lib/libutee/user_ta_entry_compat.c:40 (discriminator 2)
    1ee0:	11001063 	add	w3, w3, #0x4
    1ee4:	91004021 	add	x1, x1, #0x10
    1ee8:	91004042 	add	x2, x2, #0x10
    1eec:	7100407f 	cmp	w3, #0x10
    1ef0:	54fffde1 	b.ne	1eac <from_gp11_param+0x4>  // b.any
/home/build/bsp/optee_os/lib/libutee/user_ta_entry_compat.c:58
    1ef4:	d65f03c0 	ret
/home/build/bsp/optee_os/lib/libutee/user_ta_entry_compat.c:51
    1ef8:	f9400024 	ldr	x4, [x1]
    1efc:	f9000044 	str	x4, [x2]
/home/build/bsp/optee_os/lib/libutee/user_ta_entry_compat.c:52
    1f00:	b9400824 	ldr	w4, [x1, #8]
    1f04:	f9000444 	str	x4, [x2, #8]
/home/build/bsp/optee_os/lib/libutee/user_ta_entry_compat.c:53
    1f08:	17fffff6 	b	1ee0 <from_gp11_param+0x38>

0000000000001f0c <__ta_open_sess>:
__ta_open_sess():
/home/build/bsp/optee_os/lib/libutee/user_ta_entry_compat.c:70
    1f0c:	a9b87bfd 	stp	x29, x30, [sp, #-128]!
    1f10:	aa0203e7 	mov	x7, x2
    1f14:	aa0303e6 	mov	x6, x3
/home/build/bsp/optee_os/lib/libutee/user_ta_entry_compat.c:71
    1f18:	4f000400 	movi	v0.4s, #0x0
/home/build/bsp/optee_os/lib/libutee/user_ta_entry_compat.c:70
    1f1c:	910003fd 	mov	x29, sp
    1f20:	a90153f3 	stp	x19, x20, [sp, #16]
    1f24:	b0000094 	adrp	x20, 12000 <_DYNAMIC>
/home/build/bsp/optee_os/lib/libutee/user_ta_entry_compat.c:71
    1f28:	9100e3f3 	add	x19, sp, #0x38
/home/build/bsp/optee_os/lib/libutee/user_ta_entry_compat.c:70
    1f2c:	f9409a82 	ldr	x2, [x20, #304]
    1f30:	a9025bf5 	stp	x21, x22, [sp, #32]
    1f34:	aa0103f6 	mov	x22, x1
    1f38:	f9400043 	ldr	x3, [x2]
    1f3c:	f9003fe3 	str	x3, [sp, #120]
    1f40:	d2800003 	mov	x3, #0x0                   	// #0
/home/build/bsp/optee_os/lib/libutee/user_ta_entry_compat.c:74
    1f44:	aa1303e2 	mov	x2, x19
/home/build/bsp/optee_os/lib/libutee/user_ta_entry_compat.c:71
    1f48:	ad000260 	stp	q0, q0, [x19]
/home/build/bsp/optee_os/lib/libutee/user_ta_entry_compat.c:70
    1f4c:	2a0003f5 	mov	w21, w0
/home/build/bsp/optee_os/lib/libutee/user_ta_entry_compat.c:71
    1f50:	ad010260 	stp	q0, q0, [x19, #32]
/home/build/bsp/optee_os/lib/libutee/user_ta_entry_compat.c:74
    1f54:	97ffffbc 	bl	1e44 <to_gp11_param>
/home/build/bsp/optee_os/lib/libutee/user_ta_entry_compat.c:75
    1f58:	aa0703e2 	mov	x2, x7
    1f5c:	aa1303e1 	mov	x1, x19
    1f60:	d63f00c0 	blr	x6
/home/build/bsp/optee_os/lib/libutee/user_ta_entry_compat.c:76
    1f64:	aa1303e1 	mov	x1, x19
/home/build/bsp/optee_os/lib/libutee/user_ta_entry_compat.c:75
    1f68:	2a0003e6 	mov	w6, w0
/home/build/bsp/optee_os/lib/libutee/user_ta_entry_compat.c:76
    1f6c:	aa1603e2 	mov	x2, x22
    1f70:	2a1503e0 	mov	w0, w21
    1f74:	97ffffcd 	bl	1ea8 <from_gp11_param>
/home/build/bsp/optee_os/lib/libutee/user_ta_entry_compat.c:79
    1f78:	f9409a94 	ldr	x20, [x20, #304]
    1f7c:	f9403fe0 	ldr	x0, [sp, #120]
    1f80:	f9400281 	ldr	x1, [x20]
    1f84:	eb010000 	subs	x0, x0, x1
    1f88:	d2800001 	mov	x1, #0x0                   	// #0
    1f8c:	54000040 	b.eq	1f94 <__ta_open_sess+0x88>  // b.none
    1f90:	97fff9c8 	bl	6b0 <__stack_chk_fail>
    1f94:	2a0603e0 	mov	w0, w6
    1f98:	a94153f3 	ldp	x19, x20, [sp, #16]
    1f9c:	a9425bf5 	ldp	x21, x22, [sp, #32]
    1fa0:	a8c87bfd 	ldp	x29, x30, [sp], #128
    1fa4:	d65f03c0 	ret

0000000000001fa8 <__ta_invoke_cmd>:
__ta_invoke_cmd():
/home/build/bsp/optee_os/lib/libutee/user_ta_entry_compat.c:90
    1fa8:	a9b87bfd 	stp	x29, x30, [sp, #-128]!
    1fac:	aa0003e7 	mov	x7, x0
    1fb0:	2a0103e8 	mov	w8, w1
    1fb4:	910003fd 	mov	x29, sp
    1fb8:	a9025bf5 	stp	x21, x22, [sp, #32]
    1fbc:	b0000095 	adrp	x21, 12000 <_DYNAMIC>
    1fc0:	aa0403e6 	mov	x6, x4
    1fc4:	f9409aa0 	ldr	x0, [x21, #304]
    1fc8:	a90153f3 	stp	x19, x20, [sp, #16]
/home/build/bsp/optee_os/lib/libutee/user_ta_entry_compat.c:91
    1fcc:	9100e3f3 	add	x19, sp, #0x38
    1fd0:	4f000400 	movi	v0.4s, #0x0
/home/build/bsp/optee_os/lib/libutee/user_ta_entry_compat.c:90
    1fd4:	f9400001 	ldr	x1, [x0]
    1fd8:	f9003fe1 	str	x1, [sp, #120]
    1fdc:	d2800001 	mov	x1, #0x0                   	// #0
    1fe0:	2a0203f4 	mov	w20, w2
    1fe4:	aa0303f6 	mov	x22, x3
/home/build/bsp/optee_os/lib/libutee/user_ta_entry_compat.c:94
    1fe8:	aa0303e1 	mov	x1, x3
    1fec:	aa1303e2 	mov	x2, x19
    1ff0:	2a1403e0 	mov	w0, w20
/home/build/bsp/optee_os/lib/libutee/user_ta_entry_compat.c:91
    1ff4:	ad000260 	stp	q0, q0, [x19]
    1ff8:	ad010260 	stp	q0, q0, [x19, #32]
/home/build/bsp/optee_os/lib/libutee/user_ta_entry_compat.c:94
    1ffc:	97ffff92 	bl	1e44 <to_gp11_param>
/home/build/bsp/optee_os/lib/libutee/user_ta_entry_compat.c:95
    2000:	aa1303e3 	mov	x3, x19
    2004:	2a1403e2 	mov	w2, w20
    2008:	2a0803e1 	mov	w1, w8
    200c:	aa0703e0 	mov	x0, x7
    2010:	d63f00c0 	blr	x6
/home/build/bsp/optee_os/lib/libutee/user_ta_entry_compat.c:96
    2014:	aa1303e1 	mov	x1, x19
/home/build/bsp/optee_os/lib/libutee/user_ta_entry_compat.c:95
    2018:	2a0003e6 	mov	w6, w0
/home/build/bsp/optee_os/lib/libutee/user_ta_entry_compat.c:96
    201c:	aa1603e2 	mov	x2, x22
    2020:	2a1403e0 	mov	w0, w20
    2024:	97ffffa1 	bl	1ea8 <from_gp11_param>
/home/build/bsp/optee_os/lib/libutee/user_ta_entry_compat.c:99
    2028:	f9409ab5 	ldr	x21, [x21, #304]
    202c:	f9403fe0 	ldr	x0, [sp, #120]
    2030:	f94002a1 	ldr	x1, [x21]
    2034:	eb010000 	subs	x0, x0, x1
    2038:	d2800001 	mov	x1, #0x0                   	// #0
    203c:	54000040 	b.eq	2044 <__ta_invoke_cmd+0x9c>  // b.none
    2040:	97fff99c 	bl	6b0 <__stack_chk_fail>
    2044:	2a0603e0 	mov	w0, w6
    2048:	a94153f3 	ldp	x19, x20, [sp, #16]
    204c:	a9425bf5 	ldp	x21, x22, [sp, #32]
    2050:	a8c87bfd 	ldp	x29, x30, [sp], #128
    2054:	d65f03c0 	ret

0000000000002058 <_utee_panic>:
_utee_panic():
/home/build/bsp/optee_os/lib/libutee/arch/arm/utee_syscalls_a64.S:41
    2058:	a9bf7bfd 	stp	x29, x30, [sp, #-16]!
/home/build/bsp/optee_os/lib/libutee/arch/arm/utee_syscalls_a64.S:42
    205c:	910003e1 	mov	x1, sp
/home/build/bsp/optee_os/lib/libutee/arch/arm/utee_syscalls_a64.S:43
    2060:	94000007 	bl	207c <__utee_panic>

0000000000002064 <_utee_return>:
_utee_return():
/home/build/bsp/optee_os/lib/libutee/include/utee_syscalls_asm.S:8
    2064:	d2800008 	mov	x8, #0x0                   	// #0
    2068:	d4000001 	svc	#0x0
    206c:	d65f03c0 	ret

0000000000002070 <_utee_log>:
_utee_log():
/home/build/bsp/optee_os/lib/libutee/include/utee_syscalls_asm.S:10
    2070:	d2800028 	mov	x8, #0x1                   	// #1
    2074:	d4000001 	svc	#0x0
    2078:	d65f03c0 	ret

000000000000207c <__utee_panic>:
__utee_panic():
/home/build/bsp/optee_os/lib/libutee/include/utee_syscalls_asm.S:12
    207c:	d2800048 	mov	x8, #0x2                   	// #2
    2080:	d4000001 	svc	#0x0
    2084:	d65f03c0 	ret

0000000000002088 <_utee_get_property>:
_utee_get_property():
/home/build/bsp/optee_os/lib/libutee/include/utee_syscalls_asm.S:14
    2088:	d2800068 	mov	x8, #0x3                   	// #3
    208c:	d4000001 	svc	#0x0
    2090:	d65f03c0 	ret

0000000000002094 <_utee_get_property_name_to_index>:
_utee_get_property_name_to_index():
/home/build/bsp/optee_os/lib/libutee/include/utee_syscalls_asm.S:16
    2094:	d2800088 	mov	x8, #0x4                   	// #4
    2098:	d4000001 	svc	#0x0
    209c:	d65f03c0 	ret

00000000000020a0 <_utee_open_ta_session>:
_utee_open_ta_session():
/home/build/bsp/optee_os/lib/libutee/include/utee_syscalls_asm.S:19
    20a0:	d28000a8 	mov	x8, #0x5                   	// #5
    20a4:	d4000001 	svc	#0x0
    20a8:	d65f03c0 	ret

00000000000020ac <_utee_close_ta_session>:
_utee_close_ta_session():
/home/build/bsp/optee_os/lib/libutee/include/utee_syscalls_asm.S:21
    20ac:	d28000c8 	mov	x8, #0x6                   	// #6
    20b0:	d4000001 	svc	#0x0
    20b4:	d65f03c0 	ret

00000000000020b8 <_utee_invoke_ta_command>:
_utee_invoke_ta_command():
/home/build/bsp/optee_os/lib/libutee/include/utee_syscalls_asm.S:23
    20b8:	d28000e8 	mov	x8, #0x7                   	// #7
    20bc:	d4000001 	svc	#0x0
    20c0:	d65f03c0 	ret

00000000000020c4 <_utee_get_cancellation_flag>:
_utee_get_cancellation_flag():
/home/build/bsp/optee_os/lib/libutee/include/utee_syscalls_asm.S:25
    20c4:	d2800128 	mov	x8, #0x9                   	// #9
    20c8:	d4000001 	svc	#0x0
    20cc:	d65f03c0 	ret

00000000000020d0 <_utee_check_access_rights>:
_utee_check_access_rights():
/home/build/bsp/optee_os/lib/libutee/include/utee_syscalls_asm.S:28
    20d0:	d2800108 	mov	x8, #0x8                   	// #8
    20d4:	d4000001 	svc	#0x0
    20d8:	d65f03c0 	ret

00000000000020dc <_utee_unmask_cancellation>:
_utee_unmask_cancellation():
/home/build/bsp/optee_os/lib/libutee/include/utee_syscalls_asm.S:30
    20dc:	d2800148 	mov	x8, #0xa                   	// #10
    20e0:	d4000001 	svc	#0x0
    20e4:	d65f03c0 	ret

00000000000020e8 <_utee_mask_cancellation>:
_utee_mask_cancellation():
/home/build/bsp/optee_os/lib/libutee/include/utee_syscalls_asm.S:32
    20e8:	d2800168 	mov	x8, #0xb                   	// #11
    20ec:	d4000001 	svc	#0x0
    20f0:	d65f03c0 	ret

00000000000020f4 <_utee_wait>:
_utee_wait():
/home/build/bsp/optee_os/lib/libutee/include/utee_syscalls_asm.S:34
    20f4:	d2800188 	mov	x8, #0xc                   	// #12
    20f8:	d4000001 	svc	#0x0
    20fc:	d65f03c0 	ret

0000000000002100 <_utee_get_time>:
_utee_get_time():
/home/build/bsp/optee_os/lib/libutee/include/utee_syscalls_asm.S:36
    2100:	d28001a8 	mov	x8, #0xd                   	// #13
    2104:	d4000001 	svc	#0x0
    2108:	d65f03c0 	ret

000000000000210c <_utee_set_ta_time>:
_utee_set_ta_time():
/home/build/bsp/optee_os/lib/libutee/include/utee_syscalls_asm.S:38
    210c:	d28001c8 	mov	x8, #0xe                   	// #14
    2110:	d4000001 	svc	#0x0
    2114:	d65f03c0 	ret

0000000000002118 <_utee_cryp_state_alloc>:
_utee_cryp_state_alloc():
/home/build/bsp/optee_os/lib/libutee/include/utee_syscalls_asm.S:40
    2118:	d28001e8 	mov	x8, #0xf                   	// #15
    211c:	d4000001 	svc	#0x0
    2120:	d65f03c0 	ret

0000000000002124 <_utee_cryp_state_copy>:
_utee_cryp_state_copy():
/home/build/bsp/optee_os/lib/libutee/include/utee_syscalls_asm.S:42
    2124:	d2800208 	mov	x8, #0x10                  	// #16
    2128:	d4000001 	svc	#0x0
    212c:	d65f03c0 	ret

0000000000002130 <_utee_cryp_state_free>:
_utee_cryp_state_free():
/home/build/bsp/optee_os/lib/libutee/include/utee_syscalls_asm.S:44
    2130:	d2800228 	mov	x8, #0x11                  	// #17
    2134:	d4000001 	svc	#0x0
    2138:	d65f03c0 	ret

000000000000213c <_utee_hash_init>:
_utee_hash_init():
/home/build/bsp/optee_os/lib/libutee/include/utee_syscalls_asm.S:46
    213c:	d2800248 	mov	x8, #0x12                  	// #18
    2140:	d4000001 	svc	#0x0
    2144:	d65f03c0 	ret

0000000000002148 <_utee_hash_update>:
_utee_hash_update():
/home/build/bsp/optee_os/lib/libutee/include/utee_syscalls_asm.S:48
    2148:	d2800268 	mov	x8, #0x13                  	// #19
    214c:	d4000001 	svc	#0x0
    2150:	d65f03c0 	ret

0000000000002154 <_utee_hash_final>:
_utee_hash_final():
/home/build/bsp/optee_os/lib/libutee/include/utee_syscalls_asm.S:50
    2154:	d2800288 	mov	x8, #0x14                  	// #20
    2158:	d4000001 	svc	#0x0
    215c:	d65f03c0 	ret

0000000000002160 <_utee_cipher_init>:
_utee_cipher_init():
/home/build/bsp/optee_os/lib/libutee/include/utee_syscalls_asm.S:52
    2160:	d28002a8 	mov	x8, #0x15                  	// #21
    2164:	d4000001 	svc	#0x0
    2168:	d65f03c0 	ret

000000000000216c <_utee_cipher_update>:
_utee_cipher_update():
/home/build/bsp/optee_os/lib/libutee/include/utee_syscalls_asm.S:54
    216c:	d28002c8 	mov	x8, #0x16                  	// #22
    2170:	d4000001 	svc	#0x0
    2174:	d65f03c0 	ret

0000000000002178 <_utee_cipher_final>:
_utee_cipher_final():
/home/build/bsp/optee_os/lib/libutee/include/utee_syscalls_asm.S:56
    2178:	d28002e8 	mov	x8, #0x17                  	// #23
    217c:	d4000001 	svc	#0x0
    2180:	d65f03c0 	ret

0000000000002184 <_utee_cryp_obj_get_info>:
_utee_cryp_obj_get_info():
/home/build/bsp/optee_os/lib/libutee/include/utee_syscalls_asm.S:58
    2184:	d2800308 	mov	x8, #0x18                  	// #24
    2188:	d4000001 	svc	#0x0
    218c:	d65f03c0 	ret

0000000000002190 <_utee_cryp_obj_restrict_usage>:
_utee_cryp_obj_restrict_usage():
/home/build/bsp/optee_os/lib/libutee/include/utee_syscalls_asm.S:60
    2190:	d2800328 	mov	x8, #0x19                  	// #25
    2194:	d4000001 	svc	#0x0
    2198:	d65f03c0 	ret

000000000000219c <_utee_cryp_obj_get_attr>:
_utee_cryp_obj_get_attr():
/home/build/bsp/optee_os/lib/libutee/include/utee_syscalls_asm.S:63
    219c:	d2800348 	mov	x8, #0x1a                  	// #26
    21a0:	d4000001 	svc	#0x0
    21a4:	d65f03c0 	ret

00000000000021a8 <_utee_cryp_obj_alloc>:
_utee_cryp_obj_alloc():
/home/build/bsp/optee_os/lib/libutee/include/utee_syscalls_asm.S:65
    21a8:	d2800368 	mov	x8, #0x1b                  	// #27
    21ac:	d4000001 	svc	#0x0
    21b0:	d65f03c0 	ret

00000000000021b4 <_utee_cryp_obj_close>:
_utee_cryp_obj_close():
/home/build/bsp/optee_os/lib/libutee/include/utee_syscalls_asm.S:67
    21b4:	d2800388 	mov	x8, #0x1c                  	// #28
    21b8:	d4000001 	svc	#0x0
    21bc:	d65f03c0 	ret

00000000000021c0 <_utee_cryp_obj_reset>:
_utee_cryp_obj_reset():
/home/build/bsp/optee_os/lib/libutee/include/utee_syscalls_asm.S:69
    21c0:	d28003a8 	mov	x8, #0x1d                  	// #29
    21c4:	d4000001 	svc	#0x0
    21c8:	d65f03c0 	ret

00000000000021cc <_utee_cryp_obj_populate>:
_utee_cryp_obj_populate():
/home/build/bsp/optee_os/lib/libutee/include/utee_syscalls_asm.S:71
    21cc:	d28003c8 	mov	x8, #0x1e                  	// #30
    21d0:	d4000001 	svc	#0x0
    21d4:	d65f03c0 	ret

00000000000021d8 <_utee_cryp_obj_copy>:
_utee_cryp_obj_copy():
/home/build/bsp/optee_os/lib/libutee/include/utee_syscalls_asm.S:73
    21d8:	d28003e8 	mov	x8, #0x1f                  	// #31
    21dc:	d4000001 	svc	#0x0
    21e0:	d65f03c0 	ret

00000000000021e4 <_utee_cryp_derive_key>:
_utee_cryp_derive_key():
/home/build/bsp/optee_os/lib/libutee/include/utee_syscalls_asm.S:75
    21e4:	d2800408 	mov	x8, #0x20                  	// #32
    21e8:	d4000001 	svc	#0x0
    21ec:	d65f03c0 	ret

00000000000021f0 <_utee_cryp_random_number_generate>:
_utee_cryp_random_number_generate():
/home/build/bsp/optee_os/lib/libutee/include/utee_syscalls_asm.S:77
    21f0:	d2800428 	mov	x8, #0x21                  	// #33
    21f4:	d4000001 	svc	#0x0
    21f8:	d65f03c0 	ret

00000000000021fc <_utee_authenc_init>:
_utee_authenc_init():
/home/build/bsp/optee_os/lib/libutee/include/utee_syscalls_asm.S:80
    21fc:	d2800448 	mov	x8, #0x22                  	// #34
    2200:	d4000001 	svc	#0x0
    2204:	d65f03c0 	ret

0000000000002208 <_utee_authenc_update_aad>:
_utee_authenc_update_aad():
/home/build/bsp/optee_os/lib/libutee/include/utee_syscalls_asm.S:82
    2208:	d2800468 	mov	x8, #0x23                  	// #35
    220c:	d4000001 	svc	#0x0
    2210:	d65f03c0 	ret

0000000000002214 <_utee_authenc_update_payload>:
_utee_authenc_update_payload():
/home/build/bsp/optee_os/lib/libutee/include/utee_syscalls_asm.S:84
    2214:	d2800488 	mov	x8, #0x24                  	// #36
    2218:	d4000001 	svc	#0x0
    221c:	d65f03c0 	ret

0000000000002220 <_utee_authenc_enc_final>:
_utee_authenc_enc_final():
/home/build/bsp/optee_os/lib/libutee/include/utee_syscalls_asm.S:87
    2220:	d28004a8 	mov	x8, #0x25                  	// #37
    2224:	d4000001 	svc	#0x0
    2228:	d65f03c0 	ret

000000000000222c <_utee_authenc_dec_final>:
_utee_authenc_dec_final():
/home/build/bsp/optee_os/lib/libutee/include/utee_syscalls_asm.S:89
    222c:	d28004c8 	mov	x8, #0x26                  	// #38
    2230:	d4000001 	svc	#0x0
    2234:	d65f03c0 	ret

0000000000002238 <_utee_asymm_operate>:
_utee_asymm_operate():
/home/build/bsp/optee_os/lib/libutee/include/utee_syscalls_asm.S:91
    2238:	d28004e8 	mov	x8, #0x27                  	// #39
    223c:	d4000001 	svc	#0x0
    2240:	d65f03c0 	ret

0000000000002244 <_utee_asymm_verify>:
_utee_asymm_verify():
/home/build/bsp/optee_os/lib/libutee/include/utee_syscalls_asm.S:93
    2244:	d2800508 	mov	x8, #0x28                  	// #40
    2248:	d4000001 	svc	#0x0
    224c:	d65f03c0 	ret

0000000000002250 <_utee_storage_obj_open>:
_utee_storage_obj_open():
/home/build/bsp/optee_os/lib/libutee/include/utee_syscalls_asm.S:95
    2250:	d2800528 	mov	x8, #0x29                  	// #41
    2254:	d4000001 	svc	#0x0
    2258:	d65f03c0 	ret

000000000000225c <_utee_storage_obj_create>:
_utee_storage_obj_create():
/home/build/bsp/optee_os/lib/libutee/include/utee_syscalls_asm.S:97
    225c:	d2800548 	mov	x8, #0x2a                  	// #42
    2260:	d4000001 	svc	#0x0
    2264:	d65f03c0 	ret

0000000000002268 <_utee_storage_obj_del>:
_utee_storage_obj_del():
/home/build/bsp/optee_os/lib/libutee/include/utee_syscalls_asm.S:99
    2268:	d2800568 	mov	x8, #0x2b                  	// #43
    226c:	d4000001 	svc	#0x0
    2270:	d65f03c0 	ret

0000000000002274 <_utee_storage_obj_rename>:
_utee_storage_obj_rename():
/home/build/bsp/optee_os/lib/libutee/include/utee_syscalls_asm.S:101
    2274:	d2800588 	mov	x8, #0x2c                  	// #44
    2278:	d4000001 	svc	#0x0
    227c:	d65f03c0 	ret

0000000000002280 <_utee_storage_alloc_enum>:
_utee_storage_alloc_enum():
/home/build/bsp/optee_os/lib/libutee/include/utee_syscalls_asm.S:103
    2280:	d28005a8 	mov	x8, #0x2d                  	// #45
    2284:	d4000001 	svc	#0x0
    2288:	d65f03c0 	ret

000000000000228c <_utee_storage_free_enum>:
_utee_storage_free_enum():
/home/build/bsp/optee_os/lib/libutee/include/utee_syscalls_asm.S:105
    228c:	d28005c8 	mov	x8, #0x2e                  	// #46
    2290:	d4000001 	svc	#0x0
    2294:	d65f03c0 	ret

0000000000002298 <_utee_storage_reset_enum>:
_utee_storage_reset_enum():
/home/build/bsp/optee_os/lib/libutee/include/utee_syscalls_asm.S:107
    2298:	d28005e8 	mov	x8, #0x2f                  	// #47
    229c:	d4000001 	svc	#0x0
    22a0:	d65f03c0 	ret

00000000000022a4 <_utee_storage_start_enum>:
_utee_storage_start_enum():
/home/build/bsp/optee_os/lib/libutee/include/utee_syscalls_asm.S:109
    22a4:	d2800608 	mov	x8, #0x30                  	// #48
    22a8:	d4000001 	svc	#0x0
    22ac:	d65f03c0 	ret

00000000000022b0 <_utee_storage_next_enum>:
_utee_storage_next_enum():
/home/build/bsp/optee_os/lib/libutee/include/utee_syscalls_asm.S:111
    22b0:	d2800628 	mov	x8, #0x31                  	// #49
    22b4:	d4000001 	svc	#0x0
    22b8:	d65f03c0 	ret

00000000000022bc <_utee_storage_obj_read>:
_utee_storage_obj_read():
/home/build/bsp/optee_os/lib/libutee/include/utee_syscalls_asm.S:113
    22bc:	d2800648 	mov	x8, #0x32                  	// #50
    22c0:	d4000001 	svc	#0x0
    22c4:	d65f03c0 	ret

00000000000022c8 <_utee_storage_obj_write>:
_utee_storage_obj_write():
/home/build/bsp/optee_os/lib/libutee/include/utee_syscalls_asm.S:115
    22c8:	d2800668 	mov	x8, #0x33                  	// #51
    22cc:	d4000001 	svc	#0x0
    22d0:	d65f03c0 	ret

00000000000022d4 <_utee_storage_obj_trunc>:
_utee_storage_obj_trunc():
/home/build/bsp/optee_os/lib/libutee/include/utee_syscalls_asm.S:117
    22d4:	d2800688 	mov	x8, #0x34                  	// #52
    22d8:	d4000001 	svc	#0x0
    22dc:	d65f03c0 	ret

00000000000022e0 <_utee_storage_obj_seek>:
_utee_storage_obj_seek():
/home/build/bsp/optee_os/lib/libutee/include/utee_syscalls_asm.S:119
    22e0:	d28006a8 	mov	x8, #0x35                  	// #53
    22e4:	d4000001 	svc	#0x0
    22e8:	d65f03c0 	ret

00000000000022ec <_utee_cryp_obj_generate_key>:
_utee_cryp_obj_generate_key():
/home/build/bsp/optee_os/lib/libutee/include/utee_syscalls_asm.S:121
    22ec:	d28006c8 	mov	x8, #0x36                  	// #54
    22f0:	d4000001 	svc	#0x0
    22f4:	d65f03c0 	ret

00000000000022f8 <_utee_cache_operation>:
_utee_cache_operation():
/home/build/bsp/optee_os/lib/libutee/include/utee_syscalls_asm.S:124
    22f8:	d28008c8 	mov	x8, #0x46                  	// #70
    22fc:	d4000001 	svc	#0x0
    2300:	d65f03c0 	ret

0000000000002304 <abort>:
abort():
/home/build/bsp/optee_os/lib/libutee/abort.c:12
    2304:	a9bf7bfd 	stp	x29, x30, [sp, #-16]!
/home/build/bsp/optee_os/lib/libutee/abort.c:13
    2308:	d0000060 	adrp	x0, 10000 <__func__.0+0x28>
    230c:	911e5000 	add	x0, x0, #0x794
/home/build/bsp/optee_os/lib/libutee/abort.c:12
    2310:	910003fd 	mov	x29, sp
/home/build/bsp/optee_os/lib/libutee/abort.c:13
    2314:	97fffcd0 	bl	1654 <puts>
/home/build/bsp/optee_os/lib/libutee/abort.c:14
    2318:	d2800000 	mov	x0, #0x0                   	// #0
    231c:	97ffff4f 	bl	2058 <_utee_panic>
/home/build/bsp/optee_os/lib/libutee/abort.c:16 (discriminator 1)
    2320:	14000000 	b	2320 <abort+0x1c>

0000000000002324 <copy_param>:
copy_param():
/home/build/bsp/optee_os/lib/libutee/tee_api.c:43
    2324:	2a0103e3 	mov	w3, w1
    2328:	52800004 	mov	w4, #0x0                   	// #0
    232c:	f8008403 	str	x3, [x0], #8
/home/build/bsp/optee_os/lib/libutee/tee_api.c:45
    2330:	1ac42425 	lsr	w5, w1, w4
    2334:	12000ca3 	and	w3, w5, #0xf
    2338:	71000c7f 	cmp	w3, #0x3
    233c:	540001a0 	b.eq	2370 <copy_param+0x4c>  // b.none
    2340:	721e04bf 	tst	w5, #0xc
    2344:	540000c1 	b.ne	235c <copy_param+0x38>  // b.any
    2348:	7100047f 	cmp	w3, #0x1
    234c:	54000120 	b.eq	2370 <copy_param+0x4c>  // b.none
    2350:	d2800003 	mov	x3, #0x0                   	// #0
    2354:	d2800005 	mov	x5, #0x0                   	// #0
    2358:	14000007 	b	2374 <copy_param+0x50>
    235c:	51001463 	sub	w3, w3, #0x5
    2360:	7100087f 	cmp	w3, #0x2
    2364:	54ffff68 	b.hi	2350 <copy_param+0x2c>  // b.pmore
/home/build/bsp/optee_os/lib/libutee/tee_api.c:55
    2368:	a9400c45 	ldp	x5, x3, [x2]
/home/build/bsp/optee_os/lib/libutee/tee_api.c:56
    236c:	14000002 	b	2374 <copy_param+0x50>
/home/build/bsp/optee_os/lib/libutee/tee_api.c:49
    2370:	29400c45 	ldp	w5, w3, [x2]
/home/build/bsp/optee_os/lib/libutee/tee_api.c:44 (discriminator 2)
    2374:	11001084 	add	w4, w4, #0x4
/home/build/bsp/optee_os/lib/libutee/tee_api.c:62 (discriminator 2)
    2378:	a9000c05 	stp	x5, x3, [x0]
/home/build/bsp/optee_os/lib/libutee/tee_api.c:44 (discriminator 2)
    237c:	91004042 	add	x2, x2, #0x10
    2380:	91004000 	add	x0, x0, #0x10
    2384:	7100409f 	cmp	w4, #0x10
    2388:	54fffd41 	b.ne	2330 <copy_param+0xc>  // b.any
/home/build/bsp/optee_os/lib/libutee/tee_api.c:64
    238c:	d65f03c0 	ret

0000000000002390 <copy_gp11_param>:
copy_gp11_param():
/home/build/bsp/optee_os/lib/libutee/tee_api.c:73
    2390:	2a0103e3 	mov	w3, w1
    2394:	52800004 	mov	w4, #0x0                   	// #0
    2398:	f8008403 	str	x3, [x0], #8
/home/build/bsp/optee_os/lib/libutee/tee_api.c:75
    239c:	1ac42425 	lsr	w5, w1, w4
    23a0:	12000ca3 	and	w3, w5, #0xf
    23a4:	71000c7f 	cmp	w3, #0x3
    23a8:	540001c0 	b.eq	23e0 <copy_gp11_param+0x50>  // b.none
    23ac:	721e04bf 	tst	w5, #0xc
    23b0:	540000c1 	b.ne	23c8 <copy_gp11_param+0x38>  // b.any
    23b4:	7100047f 	cmp	w3, #0x1
    23b8:	54000140 	b.eq	23e0 <copy_gp11_param+0x50>  // b.none
    23bc:	d2800003 	mov	x3, #0x0                   	// #0
    23c0:	d2800005 	mov	x5, #0x0                   	// #0
    23c4:	14000008 	b	23e4 <copy_gp11_param+0x54>
    23c8:	51001463 	sub	w3, w3, #0x5
    23cc:	7100087f 	cmp	w3, #0x2
    23d0:	54ffff68 	b.hi	23bc <copy_gp11_param+0x2c>  // b.pmore
/home/build/bsp/optee_os/lib/libutee/tee_api.c:85
    23d4:	b9400843 	ldr	w3, [x2, #8]
/home/build/bsp/optee_os/lib/libutee/tee_api.c:84
    23d8:	f9400045 	ldr	x5, [x2]
/home/build/bsp/optee_os/lib/libutee/tee_api.c:86
    23dc:	14000002 	b	23e4 <copy_gp11_param+0x54>
/home/build/bsp/optee_os/lib/libutee/tee_api.c:79
    23e0:	29400c45 	ldp	w5, w3, [x2]
/home/build/bsp/optee_os/lib/libutee/tee_api.c:74 (discriminator 2)
    23e4:	11001084 	add	w4, w4, #0x4
/home/build/bsp/optee_os/lib/libutee/tee_api.c:92 (discriminator 2)
    23e8:	a9000c05 	stp	x5, x3, [x0]
/home/build/bsp/optee_os/lib/libutee/tee_api.c:74 (discriminator 2)
    23ec:	91004042 	add	x2, x2, #0x10
    23f0:	91004000 	add	x0, x0, #0x10
    23f4:	7100409f 	cmp	w4, #0x10
    23f8:	54fffd21 	b.ne	239c <copy_gp11_param+0xc>  // b.any
/home/build/bsp/optee_os/lib/libutee/tee_api.c:94
    23fc:	d65f03c0 	ret

0000000000002400 <check_mem_access_rights_params>:
check_mem_access_rights_params():
/home/build/bsp/optee_os/lib/libutee/tee_api.c:261
    2400:	90000083 	adrp	x3, 12000 <_DYNAMIC>
bufs_intersect():
/home/build/bsp/optee_os/lib/libutee/tee_api.c:241
    2404:	d1000447 	sub	x7, x2, #0x1
    2408:	8b0100e7 	add	x7, x7, x1
check_mem_access_rights_params():
/home/build/bsp/optee_os/lib/libutee/tee_api.c:261
    240c:	52800005 	mov	w5, #0x0                   	// #0
    2410:	f940d064 	ldr	x4, [x3, #416]
    2414:	f940e063 	ldr	x3, [x3, #448]
    2418:	b9400089 	ldr	w9, [x4]
    241c:	1ac52524 	lsr	w4, w9, w5
    2420:	12000c84 	and	w4, w4, #0xf
    2424:	7100149f 	cmp	w4, #0x5
    2428:	54000300 	b.eq	2488 <check_mem_access_rights_params+0x88>  // b.none
    242c:	51001884 	sub	w4, w4, #0x6
    2430:	7100049f 	cmp	w4, #0x1
    2434:	540001e8 	b.hi	2470 <check_mem_access_rights_params+0x70>  // b.pmore
    2438:	528000c6 	mov	w6, #0x6                   	// #6
/home/build/bsp/optee_os/lib/libutee/tee_api.c:268
    243c:	f9400464 	ldr	x4, [x3, #8]
bufs_intersect():
/home/build/bsp/optee_os/lib/libutee/tee_api.c:244
    2440:	f100005f 	cmp	x2, #0x0
    2444:	fa401884 	ccmp	x4, #0x0, #0x4, ne  // ne = any
    2448:	54000140 	b.eq	2470 <check_mem_access_rights_params+0x70>  // b.none
/home/build/bsp/optee_os/lib/libutee/tee_api.c:240
    244c:	f9400068 	ldr	x8, [x3]
/home/build/bsp/optee_os/lib/libutee/tee_api.c:242
    2450:	d1000484 	sub	x4, x4, #0x1
    2454:	8b080084 	add	x4, x4, x8
/home/build/bsp/optee_os/lib/libutee/tee_api.c:247
    2458:	eb07011f 	cmp	x8, x7
    245c:	fa449022 	ccmp	x1, x4, #0x2, ls  // ls = plast
    2460:	54000088 	b.hi	2470 <check_mem_access_rights_params+0x70>  // b.pmore
check_mem_access_rights_params():
/home/build/bsp/optee_os/lib/libutee/tee_api.c:267
    2464:	320000c6 	orr	w6, w6, #0x1
/home/build/bsp/optee_os/lib/libutee/tee_api.c:271
    2468:	6a26001f 	bics	wzr, w0, w6
    246c:	54000121 	b.ne	2490 <check_mem_access_rights_params+0x90>  // b.any
/home/build/bsp/optee_os/lib/libutee/tee_api.c:258 (discriminator 2)
    2470:	110010a5 	add	w5, w5, #0x4
    2474:	91004063 	add	x3, x3, #0x10
    2478:	710040bf 	cmp	w5, #0x10
    247c:	54fffd01 	b.ne	241c <check_mem_access_rights_params+0x1c>  // b.any
/home/build/bsp/optee_os/lib/libutee/tee_api.c:280
    2480:	52800000 	mov	w0, #0x0                   	// #0
/home/build/bsp/optee_os/lib/libutee/tee_api.c:281
    2484:	d65f03c0 	ret
/home/build/bsp/optee_os/lib/libutee/tee_api.c:259
    2488:	52800086 	mov	w6, #0x4                   	// #4
    248c:	17ffffec 	b	243c <check_mem_access_rights_params+0x3c>
/home/build/bsp/optee_os/lib/libutee/tee_api.c:272
    2490:	129fffc0 	mov	w0, #0xffff0001            	// #-65535
    2494:	17fffffc 	b	2484 <check_mem_access_rights_params+0x84>

0000000000002498 <buf_overlaps_no_share_heap>:
buf_overlaps_no_share_heap():
/home/build/bsp/optee_os/lib/libutee/tee_api.c:284
    2498:	aa0003e3 	mov	x3, x0
/home/build/bsp/optee_os/lib/libutee/tee_api.c:285
    249c:	90000080 	adrp	x0, 12000 <_DYNAMIC>
    24a0:	f940d800 	ldr	x0, [x0, #432]
    24a4:	f9400000 	ldr	x0, [x0]
/home/build/bsp/optee_os/lib/libutee/tee_api.c:287
    24a8:	b4000140 	cbz	x0, 24d0 <buf_overlaps_no_share_heap+0x38>
/home/build/bsp/optee_os/lib/libutee/tee_api.c:284 (discriminator 1)
    24ac:	a9bf7bfd 	stp	x29, x30, [sp, #-16]!
    24b0:	aa0103e2 	mov	x2, x1
/home/build/bsp/optee_os/lib/libutee/tee_api.c:287 (discriminator 1)
    24b4:	aa0303e1 	mov	x1, x3
/home/build/bsp/optee_os/lib/libutee/tee_api.c:284 (discriminator 1)
    24b8:	910003fd 	mov	x29, sp
/home/build/bsp/optee_os/lib/libutee/tee_api.c:287 (discriminator 1)
    24bc:	94002993 	bl	cb08 <raw_malloc_buffer_overlaps_heap>
    24c0:	12001c00 	and	w0, w0, #0xff
/home/build/bsp/optee_os/lib/libutee/tee_api.c:288 (discriminator 1)
    24c4:	12000000 	and	w0, w0, #0x1
    24c8:	a8c17bfd 	ldp	x29, x30, [sp], #16
    24cc:	d65f03c0 	ret
/home/build/bsp/optee_os/lib/libutee/tee_api.c:287
    24d0:	52800000 	mov	w0, #0x0                   	// #0
/home/build/bsp/optee_os/lib/libutee/tee_api.c:288
    24d4:	12000000 	and	w0, w0, #0x1
    24d8:	d65f03c0 	ret

00000000000024dc <check_invoke_param>:
check_invoke_param():
/home/build/bsp/optee_os/lib/libutee/tee_api.c:291
    24dc:	a9bc7bfd 	stp	x29, x30, [sp, #-64]!
    24e0:	910003fd 	mov	x29, sp
    24e4:	a90153f3 	stp	x19, x20, [sp, #16]
    24e8:	aa0103f3 	mov	x19, x1
    24ec:	52800014 	mov	w20, #0x0                   	// #0
    24f0:	a9025bf5 	stp	x21, x22, [sp, #32]
    24f4:	2a0003f5 	mov	w21, w0
    24f8:	f9001bf7 	str	x23, [sp, #48]
/home/build/bsp/optee_os/lib/libutee/tee_api.c:299
    24fc:	1ad426a1 	lsr	w1, w21, w20
    2500:	12000c21 	and	w1, w1, #0xf
    2504:	7100143f 	cmp	w1, #0x5
    2508:	540003a0 	b.eq	257c <check_invoke_param+0xa0>  // b.none
    250c:	51001821 	sub	w1, w1, #0x6
    2510:	7100043f 	cmp	w1, #0x1
    2514:	54000228 	b.hi	2558 <check_invoke_param+0x7c>  // b.pmore
    2518:	528000c0 	mov	w0, #0x6                   	// #6
/home/build/bsp/optee_os/lib/libutee/tee_api.c:297
    251c:	a9405e76 	ldp	x22, x23, [x19]
/home/build/bsp/optee_os/lib/libutee/tee_api.c:306
    2520:	32000000 	orr	w0, w0, #0x1
    2524:	aa1703e2 	mov	x2, x23
    2528:	aa1603e1 	mov	x1, x22
    252c:	97ffffb5 	bl	2400 <check_mem_access_rights_params>
    2530:	34000060 	cbz	w0, 253c <check_invoke_param+0x60>
/home/build/bsp/optee_os/lib/libutee/tee_api.c:307
    2534:	52800000 	mov	w0, #0x0                   	// #0
    2538:	94000c13 	bl	5584 <TEE_Panic>
/home/build/bsp/optee_os/lib/libutee/tee_api.c:308
    253c:	aa1703e1 	mov	x1, x23
    2540:	aa1603e0 	mov	x0, x22
    2544:	97ffffd5 	bl	2498 <buf_overlaps_no_share_heap>
    2548:	72001c1f 	tst	w0, #0xff
    254c:	54000060 	b.eq	2558 <check_invoke_param+0x7c>  // b.none
/home/build/bsp/optee_os/lib/libutee/tee_api.c:309
    2550:	52800000 	mov	w0, #0x0                   	// #0
    2554:	94000c0c 	bl	5584 <TEE_Panic>
/home/build/bsp/optee_os/lib/libutee/tee_api.c:294 (discriminator 2)
    2558:	11001294 	add	w20, w20, #0x4
    255c:	91004273 	add	x19, x19, #0x10
    2560:	7100429f 	cmp	w20, #0x10
    2564:	54fffcc1 	b.ne	24fc <check_invoke_param+0x20>  // b.any
/home/build/bsp/optee_os/lib/libutee/tee_api.c:315
    2568:	a94153f3 	ldp	x19, x20, [sp, #16]
    256c:	a9425bf5 	ldp	x21, x22, [sp, #32]
    2570:	f9401bf7 	ldr	x23, [sp, #48]
    2574:	a8c47bfd 	ldp	x29, x30, [sp], #64
    2578:	d65f03c0 	ret
/home/build/bsp/optee_os/lib/libutee/tee_api.c:295
    257c:	52800080 	mov	w0, #0x4                   	// #4
    2580:	17ffffe7 	b	251c <check_invoke_param+0x40>

0000000000002584 <update_out_param>:
update_out_param():
/home/build/bsp/optee_os/lib/libutee/tee_api.c:180
    2584:	a9bc7bfd 	stp	x29, x30, [sp, #-64]!
    2588:	910003fd 	mov	x29, sp
    258c:	a90153f3 	stp	x19, x20, [sp, #16]
/home/build/bsp/optee_os/lib/libutee/tee_api.c:182
    2590:	aa0203f4 	mov	x20, x2
    2594:	aa0003f3 	mov	x19, x0
/home/build/bsp/optee_os/lib/libutee/tee_api.c:180
    2598:	a90363f7 	stp	x23, x24, [sp, #48]
    259c:	aa0103f8 	mov	x24, x1
/home/build/bsp/optee_os/lib/libutee/tee_api.c:182
    25a0:	f8408697 	ldr	x23, [x20], #8
/home/build/bsp/optee_os/lib/libutee/tee_api.c:180
    25a4:	a9025bf5 	stp	x21, x22, [sp, #32]
/home/build/bsp/optee_os/lib/libutee/tee_api.c:184
    25a8:	d2800015 	mov	x21, #0x0                   	// #0
/home/build/bsp/optee_os/lib/libutee/tee_api.c:188
    25ac:	531e76a0 	lsl	w0, w21, #2
/home/build/bsp/optee_os/lib/libutee/tee_api.c:186
    25b0:	a9405a82 	ldp	x2, x22, [x20]
/home/build/bsp/optee_os/lib/libutee/tee_api.c:188
    25b4:	1ac026e0 	lsr	w0, w23, w0
    25b8:	12000c01 	and	w1, w0, #0xf
    25bc:	721e041f 	tst	w0, #0xc
    25c0:	540000a1 	b.ne	25d4 <update_out_param+0x50>  // b.any
    25c4:	721f081f 	tst	w0, #0xe
    25c8:	540000c0 	b.eq	25e0 <update_out_param+0x5c>  // b.none
/home/build/bsp/optee_os/lib/libutee/tee_api.c:192
    25cc:	29005a62 	stp	w2, w22, [x19]
/home/build/bsp/optee_os/lib/libutee/tee_api.c:193
    25d0:	14000004 	b	25e0 <update_out_param+0x5c>
/home/build/bsp/optee_os/lib/libutee/tee_api.c:188
    25d4:	51001820 	sub	w0, w1, #0x6
    25d8:	7100041f 	cmp	w0, #0x1
    25dc:	54000169 	b.ls	2608 <update_out_param+0x84>  // b.plast
/home/build/bsp/optee_os/lib/libutee/tee_api.c:184 (discriminator 2)
    25e0:	910006b5 	add	x21, x21, #0x1
    25e4:	91004294 	add	x20, x20, #0x10
    25e8:	91004273 	add	x19, x19, #0x10
    25ec:	f10012bf 	cmp	x21, #0x4
    25f0:	54fffde1 	b.ne	25ac <update_out_param+0x28>  // b.any
/home/build/bsp/optee_os/lib/libutee/tee_api.c:205
    25f4:	a94153f3 	ldp	x19, x20, [sp, #16]
    25f8:	a9425bf5 	ldp	x21, x22, [sp, #32]
    25fc:	a94363f7 	ldp	x23, x24, [sp, #48]
    2600:	a8c47bfd 	ldp	x29, x30, [sp], #64
    2604:	d65f03c0 	ret
/home/build/bsp/optee_os/lib/libutee/tee_api.c:196
    2608:	f8757b01 	ldr	x1, [x24, x21, lsl #3]
    260c:	b40000a1 	cbz	x1, 2620 <update_out_param+0x9c>
/home/build/bsp/optee_os/lib/libutee/tee_api.c:198
    2610:	a9400a60 	ldp	x0, x2, [x19]
    2614:	eb16005f 	cmp	x2, x22
/home/build/bsp/optee_os/lib/libutee/tee_api.c:197
    2618:	9a969042 	csel	x2, x2, x22, ls  // ls = plast
    261c:	97fff679 	bl	0 <memcpy>
/home/build/bsp/optee_os/lib/libutee/tee_api.c:199
    2620:	f9000676 	str	x22, [x19, #8]
/home/build/bsp/optee_os/lib/libutee/tee_api.c:200
    2624:	17ffffef 	b	25e0 <update_out_param+0x5c>

0000000000002628 <update_out_gp11_param>:
update_out_gp11_param():
/home/build/bsp/optee_os/lib/libutee/tee_api.c:210
    2628:	a9bc7bfd 	stp	x29, x30, [sp, #-64]!
    262c:	910003fd 	mov	x29, sp
    2630:	a90153f3 	stp	x19, x20, [sp, #16]
/home/build/bsp/optee_os/lib/libutee/tee_api.c:212
    2634:	aa0203f4 	mov	x20, x2
    2638:	aa0003f3 	mov	x19, x0
/home/build/bsp/optee_os/lib/libutee/tee_api.c:210
    263c:	a90363f7 	stp	x23, x24, [sp, #48]
    2640:	aa0103f8 	mov	x24, x1
/home/build/bsp/optee_os/lib/libutee/tee_api.c:212
    2644:	f8408697 	ldr	x23, [x20], #8
/home/build/bsp/optee_os/lib/libutee/tee_api.c:210
    2648:	a9025bf5 	stp	x21, x22, [sp, #32]
/home/build/bsp/optee_os/lib/libutee/tee_api.c:214
    264c:	d2800015 	mov	x21, #0x0                   	// #0
/home/build/bsp/optee_os/lib/libutee/tee_api.c:218
    2650:	531e76a0 	lsl	w0, w21, #2
/home/build/bsp/optee_os/lib/libutee/tee_api.c:216
    2654:	a9405a82 	ldp	x2, x22, [x20]
/home/build/bsp/optee_os/lib/libutee/tee_api.c:218
    2658:	1ac026e0 	lsr	w0, w23, w0
    265c:	12000c01 	and	w1, w0, #0xf
    2660:	721e041f 	tst	w0, #0xc
    2664:	540000a1 	b.ne	2678 <update_out_gp11_param+0x50>  // b.any
    2668:	721f081f 	tst	w0, #0xe
    266c:	540000c0 	b.eq	2684 <update_out_gp11_param+0x5c>  // b.none
/home/build/bsp/optee_os/lib/libutee/tee_api.c:222
    2670:	29005a62 	stp	w2, w22, [x19]
/home/build/bsp/optee_os/lib/libutee/tee_api.c:223
    2674:	14000004 	b	2684 <update_out_gp11_param+0x5c>
/home/build/bsp/optee_os/lib/libutee/tee_api.c:218
    2678:	51001820 	sub	w0, w1, #0x6
    267c:	7100041f 	cmp	w0, #0x1
    2680:	54000169 	b.ls	26ac <update_out_gp11_param+0x84>  // b.plast
/home/build/bsp/optee_os/lib/libutee/tee_api.c:214 (discriminator 2)
    2684:	910006b5 	add	x21, x21, #0x1
    2688:	91004294 	add	x20, x20, #0x10
    268c:	91004273 	add	x19, x19, #0x10
    2690:	f10012bf 	cmp	x21, #0x4
    2694:	54fffde1 	b.ne	2650 <update_out_gp11_param+0x28>  // b.any
/home/build/bsp/optee_os/lib/libutee/tee_api.c:235
    2698:	a94153f3 	ldp	x19, x20, [sp, #16]
    269c:	a9425bf5 	ldp	x21, x22, [sp, #32]
    26a0:	a94363f7 	ldp	x23, x24, [sp, #48]
    26a4:	a8c47bfd 	ldp	x29, x30, [sp], #64
    26a8:	d65f03c0 	ret
/home/build/bsp/optee_os/lib/libutee/tee_api.c:226
    26ac:	f8757b01 	ldr	x1, [x24, x21, lsl #3]
    26b0:	b40000c1 	cbz	x1, 26c8 <update_out_gp11_param+0xa0>
/home/build/bsp/optee_os/lib/libutee/tee_api.c:228
    26b4:	b9400a62 	ldr	w2, [x19, #8]
/home/build/bsp/optee_os/lib/libutee/tee_api.c:227
    26b8:	f9400260 	ldr	x0, [x19]
/home/build/bsp/optee_os/lib/libutee/tee_api.c:228
    26bc:	eb16005f 	cmp	x2, x22
/home/build/bsp/optee_os/lib/libutee/tee_api.c:227
    26c0:	9a969042 	csel	x2, x2, x22, ls  // ls = plast
    26c4:	97fff64f 	bl	0 <memcpy>
/home/build/bsp/optee_os/lib/libutee/tee_api.c:229
    26c8:	b9000a76 	str	w22, [x19, #8]
/home/build/bsp/optee_os/lib/libutee/tee_api.c:230
    26cc:	17ffffee 	b	2684 <update_out_gp11_param+0x5c>

00000000000026d0 <TEE_CloseTASession>:
TEE_CloseTASession():
/home/build/bsp/optee_os/lib/libutee/tee_api.c:415
    26d0:	b4000120 	cbz	x0, 26f4 <TEE_CloseTASession+0x24>
/home/build/bsp/optee_os/lib/libutee/tee_api.c:414
    26d4:	a9bf7bfd 	stp	x29, x30, [sp, #-16]!
    26d8:	910003fd 	mov	x29, sp
/home/build/bsp/optee_os/lib/libutee/tee_api.c:416
    26dc:	97fffe74 	bl	20ac <_utee_close_ta_session>
/home/build/bsp/optee_os/lib/libutee/tee_api.c:418
    26e0:	34000060 	cbz	w0, 26ec <TEE_CloseTASession+0x1c>
/home/build/bsp/optee_os/lib/libutee/tee_api.c:421
    26e4:	a8c17bfd 	ldp	x29, x30, [sp], #16
/home/build/bsp/optee_os/lib/libutee/tee_api.c:419
    26e8:	14000ba7 	b	5584 <TEE_Panic>
/home/build/bsp/optee_os/lib/libutee/tee_api.c:421
    26ec:	a8c17bfd 	ldp	x29, x30, [sp], #16
    26f0:	d65f03c0 	ret
    26f4:	d65f03c0 	ret

00000000000026f8 <TEE_GetCancellationFlag>:
TEE_GetCancellationFlag():
/home/build/bsp/optee_os/lib/libutee/tee_api.c:530
    26f8:	a9be7bfd 	stp	x29, x30, [sp, #-32]!
    26fc:	90000081 	adrp	x1, 12000 <_DYNAMIC>
    2700:	910003fd 	mov	x29, sp
    2704:	f9409821 	ldr	x1, [x1, #304]
    2708:	f9400020 	ldr	x0, [x1]
    270c:	f9000fe0 	str	x0, [sp, #24]
    2710:	d2800000 	mov	x0, #0x0                   	// #0
/home/build/bsp/optee_os/lib/libutee/tee_api.c:532
    2714:	910053e0 	add	x0, sp, #0x14
    2718:	97fffe6b 	bl	20c4 <_utee_get_cancellation_flag>
/home/build/bsp/optee_os/lib/libutee/tee_api.c:534
    271c:	34000040 	cbz	w0, 2724 <TEE_GetCancellationFlag+0x2c>
/home/build/bsp/optee_os/lib/libutee/tee_api.c:535
    2720:	b90017ff 	str	wzr, [sp, #20]
/home/build/bsp/optee_os/lib/libutee/tee_api.c:537
    2724:	90000081 	adrp	x1, 12000 <_DYNAMIC>
/home/build/bsp/optee_os/lib/libutee/tee_api.c:536
    2728:	b94017e0 	ldr	w0, [sp, #20]
/home/build/bsp/optee_os/lib/libutee/tee_api.c:537
    272c:	f9409821 	ldr	x1, [x1, #304]
/home/build/bsp/optee_os/lib/libutee/tee_api.c:536
    2730:	7100001f 	cmp	w0, #0x0
    2734:	1a9f07e0 	cset	w0, ne  // ne = any
/home/build/bsp/optee_os/lib/libutee/tee_api.c:537
    2738:	f9400fe3 	ldr	x3, [sp, #24]
    273c:	f9400022 	ldr	x2, [x1]
    2740:	eb020063 	subs	x3, x3, x2
    2744:	d2800002 	mov	x2, #0x0                   	// #0
    2748:	54000040 	b.eq	2750 <TEE_GetCancellationFlag+0x58>  // b.none
    274c:	97fff7d9 	bl	6b0 <__stack_chk_fail>
    2750:	a8c27bfd 	ldp	x29, x30, [sp], #32
    2754:	d65f03c0 	ret

0000000000002758 <TEE_UnmaskCancellation>:
TEE_UnmaskCancellation():
/home/build/bsp/optee_os/lib/libutee/tee_api.c:540
    2758:	a9be7bfd 	stp	x29, x30, [sp, #-32]!
    275c:	90000081 	adrp	x1, 12000 <_DYNAMIC>
    2760:	910003fd 	mov	x29, sp
    2764:	f9409821 	ldr	x1, [x1, #304]
    2768:	f9400020 	ldr	x0, [x1]
    276c:	f9000fe0 	str	x0, [sp, #24]
    2770:	d2800000 	mov	x0, #0x0                   	// #0
/home/build/bsp/optee_os/lib/libutee/tee_api.c:542
    2774:	910053e0 	add	x0, sp, #0x14
    2778:	97fffe59 	bl	20dc <_utee_unmask_cancellation>
/home/build/bsp/optee_os/lib/libutee/tee_api.c:544
    277c:	34000040 	cbz	w0, 2784 <TEE_UnmaskCancellation+0x2c>
/home/build/bsp/optee_os/lib/libutee/tee_api.c:545
    2780:	94000b81 	bl	5584 <TEE_Panic>
/home/build/bsp/optee_os/lib/libutee/tee_api.c:547
    2784:	90000081 	adrp	x1, 12000 <_DYNAMIC>
/home/build/bsp/optee_os/lib/libutee/tee_api.c:546
    2788:	b94017e0 	ldr	w0, [sp, #20]
/home/build/bsp/optee_os/lib/libutee/tee_api.c:547
    278c:	f9409821 	ldr	x1, [x1, #304]
/home/build/bsp/optee_os/lib/libutee/tee_api.c:546
    2790:	7100001f 	cmp	w0, #0x0
    2794:	1a9f07e0 	cset	w0, ne  // ne = any
/home/build/bsp/optee_os/lib/libutee/tee_api.c:547
    2798:	f9400fe3 	ldr	x3, [sp, #24]
    279c:	f9400022 	ldr	x2, [x1]
    27a0:	eb020063 	subs	x3, x3, x2
    27a4:	d2800002 	mov	x2, #0x0                   	// #0
    27a8:	54000040 	b.eq	27b0 <TEE_UnmaskCancellation+0x58>  // b.none
    27ac:	97fff7c1 	bl	6b0 <__stack_chk_fail>
    27b0:	a8c27bfd 	ldp	x29, x30, [sp], #32
    27b4:	d65f03c0 	ret

00000000000027b8 <TEE_MaskCancellation>:
TEE_MaskCancellation():
/home/build/bsp/optee_os/lib/libutee/tee_api.c:550
    27b8:	a9be7bfd 	stp	x29, x30, [sp, #-32]!
    27bc:	90000081 	adrp	x1, 12000 <_DYNAMIC>
    27c0:	910003fd 	mov	x29, sp
    27c4:	f9409821 	ldr	x1, [x1, #304]
    27c8:	f9400020 	ldr	x0, [x1]
    27cc:	f9000fe0 	str	x0, [sp, #24]
    27d0:	d2800000 	mov	x0, #0x0                   	// #0
/home/build/bsp/optee_os/lib/libutee/tee_api.c:552
    27d4:	910053e0 	add	x0, sp, #0x14
    27d8:	97fffe44 	bl	20e8 <_utee_mask_cancellation>
/home/build/bsp/optee_os/lib/libutee/tee_api.c:554
    27dc:	34000040 	cbz	w0, 27e4 <TEE_MaskCancellation+0x2c>
/home/build/bsp/optee_os/lib/libutee/tee_api.c:555
    27e0:	94000b69 	bl	5584 <TEE_Panic>
/home/build/bsp/optee_os/lib/libutee/tee_api.c:557
    27e4:	90000081 	adrp	x1, 12000 <_DYNAMIC>
/home/build/bsp/optee_os/lib/libutee/tee_api.c:556
    27e8:	b94017e0 	ldr	w0, [sp, #20]
/home/build/bsp/optee_os/lib/libutee/tee_api.c:557
    27ec:	f9409821 	ldr	x1, [x1, #304]
/home/build/bsp/optee_os/lib/libutee/tee_api.c:556
    27f0:	7100001f 	cmp	w0, #0x0
    27f4:	1a9f07e0 	cset	w0, ne  // ne = any
/home/build/bsp/optee_os/lib/libutee/tee_api.c:557
    27f8:	f9400fe3 	ldr	x3, [sp, #24]
    27fc:	f9400022 	ldr	x2, [x1]
    2800:	eb020063 	subs	x3, x3, x2
    2804:	d2800002 	mov	x2, #0x0                   	// #0
    2808:	54000040 	b.eq	2810 <TEE_MaskCancellation+0x58>  // b.none
    280c:	97fff7a9 	bl	6b0 <__stack_chk_fail>
    2810:	a8c27bfd 	ldp	x29, x30, [sp], #32
    2814:	d65f03c0 	ret

0000000000002818 <TEE_CheckMemoryAccessRights>:
TEE_CheckMemoryAccessRights():
/home/build/bsp/optee_os/lib/libutee/tee_api.c:566
    2818:	b5000102 	cbnz	x2, 2838 <TEE_CheckMemoryAccessRights+0x20>
/home/build/bsp/optee_os/lib/libutee/tee_api.c:567
    281c:	52800000 	mov	w0, #0x0                   	// #0
/home/build/bsp/optee_os/lib/libutee/tee_api.c:592
    2820:	d65f03c0 	ret
/home/build/bsp/optee_os/lib/libutee/tee_api.c:567
    2824:	52800000 	mov	w0, #0x0                   	// #0
/home/build/bsp/optee_os/lib/libutee/tee_api.c:592
    2828:	a94153f3 	ldp	x19, x20, [sp, #16]
    282c:	f94013f5 	ldr	x21, [sp, #32]
    2830:	a8c37bfd 	ldp	x29, x30, [sp], #48
    2834:	d65f03c0 	ret
/home/build/bsp/optee_os/lib/libutee/tee_api.c:563
    2838:	a9bd7bfd 	stp	x29, x30, [sp, #-48]!
    283c:	910003fd 	mov	x29, sp
    2840:	a90153f3 	stp	x19, x20, [sp, #16]
    2844:	aa0103f4 	mov	x20, x1
    2848:	aa0203f3 	mov	x19, x2
    284c:	f90013f5 	str	x21, [sp, #32]
    2850:	2a0003f5 	mov	w21, w0
/home/build/bsp/optee_os/lib/libutee/tee_api.c:573
    2854:	97fffe1f 	bl	20d0 <_utee_check_access_rights>
    2858:	35000200 	cbnz	w0, 2898 <TEE_CheckMemoryAccessRights+0x80>
/home/build/bsp/optee_os/lib/libutee/tee_api.c:584
    285c:	aa1303e2 	mov	x2, x19
    2860:	aa1403e1 	mov	x1, x20
    2864:	12000aa0 	and	w0, w21, #0x7
    2868:	97fffee6 	bl	2400 <check_mem_access_rights_params>
    286c:	35000160 	cbnz	w0, 2898 <TEE_CheckMemoryAccessRights+0x80>
/home/build/bsp/optee_os/lib/libutee/tee_api.c:587
    2870:	aa1303e1 	mov	x1, x19
    2874:	aa1403e0 	mov	x0, x20
    2878:	94002935 	bl	cd4c <malloc_buffer_overlaps_heap>
    287c:	72001c1f 	tst	w0, #0xff
    2880:	54fffd20 	b.eq	2824 <TEE_CheckMemoryAccessRights+0xc>  // b.none
/home/build/bsp/optee_os/lib/libutee/tee_api.c:588
    2884:	aa1303e1 	mov	x1, x19
    2888:	aa1403e0 	mov	x0, x20
    288c:	9400292b 	bl	cd38 <malloc_buffer_is_within_alloced>
/home/build/bsp/optee_os/lib/libutee/tee_api.c:587
    2890:	72001c1f 	tst	w0, #0xff
    2894:	54fffc81 	b.ne	2824 <TEE_CheckMemoryAccessRights+0xc>  // b.any
/home/build/bsp/optee_os/lib/libutee/tee_api.c:589
    2898:	129fffc0 	mov	w0, #0xffff0001            	// #-65535
    289c:	17ffffe3 	b	2828 <TEE_CheckMemoryAccessRights+0x10>

00000000000028a0 <map_tmp_param>:
map_tmp_param():
/home/build/bsp/optee_os/lib/libutee/tee_api.c:98
    28a0:	a9b87bfd 	stp	x29, x30, [sp, #-128]!
    28a4:	90000084 	adrp	x4, 12000 <_DYNAMIC>
    28a8:	910003fd 	mov	x29, sp
    28ac:	f9409884 	ldr	x4, [x4, #304]
    28b0:	a90153f3 	stp	x19, x20, [sp, #16]
/home/build/bsp/optee_os/lib/libutee/tee_api.c:116
    28b4:	d2800013 	mov	x19, #0x0                   	// #0
/home/build/bsp/optee_os/lib/libutee/tee_api.c:98
    28b8:	a9025bf5 	stp	x21, x22, [sp, #32]
    28bc:	aa0203f6 	mov	x22, x2
    28c0:	aa0303f5 	mov	x21, x3
    28c4:	a90363f7 	stp	x23, x24, [sp, #48]
    28c8:	aa0103f7 	mov	x23, x1
/home/build/bsp/optee_os/lib/libutee/tee_api.c:135
    28cc:	52800023 	mov	w3, #0x1                   	// #1
/home/build/bsp/optee_os/lib/libutee/tee_api.c:98
    28d0:	a9046bf9 	stp	x25, x26, [sp, #64]
    28d4:	aa0003f9 	mov	x25, x0
    28d8:	91002338 	add	x24, x25, #0x8
    28dc:	a90573fb 	stp	x27, x28, [sp, #80]
/home/build/bsp/optee_os/lib/libutee/tee_api.c:115
    28e0:	aa1803fb 	mov	x27, x24
/home/build/bsp/optee_os/lib/libutee/tee_api.c:135
    28e4:	9101c3fc 	add	x28, sp, #0x70
/home/build/bsp/optee_os/lib/libutee/tee_api.c:98
    28e8:	f9400080 	ldr	x0, [x4]
    28ec:	f9003fe0 	str	x0, [sp, #120]
    28f0:	d2800000 	mov	x0, #0x0                   	// #0
/home/build/bsp/optee_os/lib/libutee/tee_api.c:114
    28f4:	f900003f 	str	xzr, [x1]
/home/build/bsp/optee_os/lib/libutee/tee_api.c:101
    28f8:	d280001a 	mov	x26, #0x0                   	// #0
/home/build/bsp/optee_os/lib/libutee/tee_api.c:115
    28fc:	f900005f 	str	xzr, [x2]
/home/build/bsp/optee_os/lib/libutee/tee_api.c:103
    2900:	b90073ff 	str	wzr, [sp, #112]
/home/build/bsp/optee_os/lib/libutee/tee_api.c:118
    2904:	f9400321 	ldr	x1, [x25]
    2908:	531e7660 	lsl	w0, w19, #2
/home/build/bsp/optee_os/lib/libutee/tee_api.c:117
    290c:	f8337abf 	str	xzr, [x21, x19, lsl #3]
/home/build/bsp/optee_os/lib/libutee/tee_api.c:118
    2910:	1ac02421 	lsr	w1, w1, w0
    2914:	12000c21 	and	w1, w1, #0xf
    2918:	51001421 	sub	w1, w1, #0x5
    291c:	7100083f 	cmp	w1, #0x2
    2920:	540001e8 	b.hi	295c <map_tmp_param+0xbc>  // b.pmore
/home/build/bsp/optee_os/lib/libutee/tee_api.c:123
    2924:	a9405361 	ldp	x1, x20, [x27]
/home/build/bsp/optee_os/lib/libutee/tee_api.c:133
    2928:	f100003f 	cmp	x1, #0x0
    292c:	fa401a84 	ccmp	x20, #0x0, #0x4, ne  // ne = any
    2930:	54000160 	b.eq	295c <map_tmp_param+0xbc>  // b.none
/home/build/bsp/optee_os/lib/libutee/tee_api.c:134 (discriminator 1)
    2934:	aa1403e2 	mov	x2, x20
    2938:	52800020 	mov	w0, #0x1                   	// #1
    293c:	b9006fe3 	str	w3, [sp, #108]
    2940:	97ffffb6 	bl	2818 <TEE_CheckMemoryAccessRights>
/home/build/bsp/optee_os/lib/libutee/tee_api.c:133 (discriminator 1)
    2944:	b9406fe3 	ldr	w3, [sp, #108]
    2948:	350000a0 	cbnz	w0, 295c <map_tmp_param+0xbc>
/home/build/bsp/optee_os/lib/libutee/tee_api.c:136
    294c:	91003e94 	add	x20, x20, #0xf
/home/build/bsp/optee_os/lib/libutee/tee_api.c:135
    2950:	383c6a63 	strb	w3, [x19, x28]
/home/build/bsp/optee_os/lib/libutee/tee_api.c:136
    2954:	927cee94 	and	x20, x20, #0xfffffffffffffff0
    2958:	8b14035a 	add	x26, x26, x20
/home/build/bsp/optee_os/lib/libutee/tee_api.c:116 (discriminator 2)
    295c:	91000673 	add	x19, x19, #0x1
    2960:	9100437b 	add	x27, x27, #0x10
    2964:	f100127f 	cmp	x19, #0x4
    2968:	54fffce1 	b.ne	2904 <map_tmp_param+0x64>  // b.any
/home/build/bsp/optee_os/lib/libutee/tee_api.c:144
    296c:	b400053a 	cbz	x26, 2a10 <map_tmp_param+0x170>
/home/build/bsp/optee_os/lib/libutee/tee_api.c:145
    2970:	2a1303e1 	mov	w1, w19
    2974:	aa1a03e0 	mov	x0, x26
    2978:	94000f90 	bl	67b8 <tee_map_zi>
/home/build/bsp/optee_os/lib/libutee/tee_api.c:146
    297c:	b40004e0 	cbz	x0, 2a18 <map_tmp_param+0x178>
/home/build/bsp/optee_os/lib/libutee/tee_api.c:148
    2980:	f90002e0 	str	x0, [x23]
/home/build/bsp/optee_os/lib/libutee/tee_api.c:149
    2984:	f90002da 	str	x26, [x22]
/home/build/bsp/optee_os/lib/libutee/tee_api.c:157
    2988:	9101c3f6 	add	x22, sp, #0x70
/home/build/bsp/optee_os/lib/libutee/tee_api.c:100
    298c:	d2800013 	mov	x19, #0x0                   	// #0
/home/build/bsp/optee_os/lib/libutee/tee_api.c:153
    2990:	f9400323 	ldr	x3, [x25]
    2994:	531e7661 	lsl	w1, w19, #2
    2998:	1ac12463 	lsr	w3, w3, w1
    299c:	12000c63 	and	w3, w3, #0xf
    29a0:	51001461 	sub	w1, w3, #0x5
    29a4:	7100083f 	cmp	w1, #0x2
    29a8:	540001a8 	b.hi	29dc <map_tmp_param+0x13c>  // b.pmore
/home/build/bsp/optee_os/lib/libutee/tee_api.c:157
    29ac:	38766a61 	ldrb	w1, [x19, x22]
    29b0:	34000161 	cbz	w1, 29dc <map_tmp_param+0x13c>
/home/build/bsp/optee_os/lib/libutee/tee_api.c:159
    29b4:	a9400b01 	ldp	x1, x2, [x24]
/home/build/bsp/optee_os/lib/libutee/tee_api.c:161
    29b8:	f8337aa0 	str	x0, [x21, x19, lsl #3]
/home/build/bsp/optee_os/lib/libutee/tee_api.c:163
    29bc:	f9000300 	str	x0, [x24]
/home/build/bsp/optee_os/lib/libutee/tee_api.c:162
    29c0:	91003c54 	add	x20, x2, #0xf
    29c4:	927cee94 	and	x20, x20, #0xfffffffffffffff0
    29c8:	8b140014 	add	x20, x0, x20
/home/build/bsp/optee_os/lib/libutee/tee_api.c:164
    29cc:	7100187f 	cmp	w3, #0x6
    29d0:	54000040 	b.eq	29d8 <map_tmp_param+0x138>  // b.none
/home/build/bsp/optee_os/lib/libutee/tee_api.c:166
    29d4:	97fff58b 	bl	0 <memcpy>
/home/build/bsp/optee_os/lib/libutee/tee_api.c:162
    29d8:	aa1403e0 	mov	x0, x20
/home/build/bsp/optee_os/lib/libutee/tee_api.c:152 (discriminator 2)
    29dc:	91000673 	add	x19, x19, #0x1
    29e0:	91004318 	add	x24, x24, #0x10
    29e4:	f100127f 	cmp	x19, #0x4
    29e8:	54fffd41 	b.ne	2990 <map_tmp_param+0xf0>  // b.any
/home/build/bsp/optee_os/lib/libutee/tee_api.c:173
    29ec:	52800000 	mov	w0, #0x0                   	// #0
/home/build/bsp/optee_os/lib/libutee/tee_api.c:175
    29f0:	90000084 	adrp	x4, 12000 <_DYNAMIC>
    29f4:	f9409884 	ldr	x4, [x4, #304]
    29f8:	f9403fe1 	ldr	x1, [sp, #120]
    29fc:	f9400082 	ldr	x2, [x4]
    2a00:	eb020021 	subs	x1, x1, x2
    2a04:	d2800002 	mov	x2, #0x0                   	// #0
    2a08:	540000c0 	b.eq	2a20 <map_tmp_param+0x180>  // b.none
    2a0c:	97fff729 	bl	6b0 <__stack_chk_fail>
/home/build/bsp/optee_os/lib/libutee/tee_api.c:100
    2a10:	d2800000 	mov	x0, #0x0                   	// #0
    2a14:	17ffffdd 	b	2988 <map_tmp_param+0xe8>
/home/build/bsp/optee_os/lib/libutee/tee_api.c:147
    2a18:	129ffe60 	mov	w0, #0xffff000c            	// #-65524
    2a1c:	17fffff5 	b	29f0 <map_tmp_param+0x150>
/home/build/bsp/optee_os/lib/libutee/tee_api.c:175
    2a20:	a94153f3 	ldp	x19, x20, [sp, #16]
    2a24:	a9425bf5 	ldp	x21, x22, [sp, #32]
    2a28:	a94363f7 	ldp	x23, x24, [sp, #48]
    2a2c:	a9446bf9 	ldp	x25, x26, [sp, #64]
    2a30:	a94573fb 	ldp	x27, x28, [sp, #80]
    2a34:	a8c87bfd 	ldp	x29, x30, [sp], #128
    2a38:	d65f03c0 	ret

0000000000002a3c <TEE_OpenTASession>:
TEE_OpenTASession():
/home/build/bsp/optee_os/lib/libutee/tee_api.c:323
    2a3c:	a9b27bfd 	stp	x29, x30, [sp, #-224]!
    2a40:	90000086 	adrp	x6, 12000 <_DYNAMIC>
    2a44:	910003fd 	mov	x29, sp
    2a48:	f94098c6 	ldr	x6, [x6, #304]
    2a4c:	a90153f3 	stp	x19, x20, [sp, #16]
    2a50:	2a0203f3 	mov	w19, w2
    2a54:	a9025bf5 	stp	x21, x22, [sp, #32]
    2a58:	aa0303f4 	mov	x20, x3
    2a5c:	aa0403f5 	mov	x21, x4
    2a60:	a90363f7 	stp	x23, x24, [sp, #48]
    2a64:	aa0003f7 	mov	x23, x0
    2a68:	2a0103f8 	mov	w24, w1
    2a6c:	a9046bf9 	stp	x25, x26, [sp, #64]
    2a70:	aa0503f9 	mov	x25, x5
    2a74:	f94000c0 	ldr	x0, [x6]
    2a78:	f9006fe0 	str	x0, [sp, #216]
    2a7c:	d2800000 	mov	x0, #0x0                   	// #0
/home/build/bsp/optee_os/lib/libutee/tee_api.c:326
    2a80:	b9005fff 	str	wzr, [sp, #92]
/home/build/bsp/optee_os/lib/libutee/tee_api.c:328
    2a84:	a9067fff 	stp	xzr, xzr, [sp, #96]
/home/build/bsp/optee_os/lib/libutee/tee_api.c:329
    2a88:	a9077fff 	stp	xzr, xzr, [sp, #112]
    2a8c:	a9087fff 	stp	xzr, xzr, [sp, #128]
/home/build/bsp/optee_os/lib/libutee/tee_api.c:325
    2a90:	a9097fff 	stp	xzr, xzr, [sp, #144]
    2a94:	a90a7fff 	stp	xzr, xzr, [sp, #160]
    2a98:	a90b7fff 	stp	xzr, xzr, [sp, #176]
    2a9c:	a90c7fff 	stp	xzr, xzr, [sp, #192]
    2aa0:	f9006bff 	str	xzr, [sp, #208]
/home/build/bsp/optee_os/lib/libutee/tee_api.c:331
    2aa4:	340000e2 	cbz	w2, 2ac0 <TEE_OpenTASession+0x84>
/home/build/bsp/optee_os/lib/libutee/tee_api.c:332
    2aa8:	aa0303e0 	mov	x0, x3
    2aac:	d2800801 	mov	x1, #0x40                  	// #64
    2ab0:	94000b25 	bl	5744 <__utee_check_inout_annotation>
/home/build/bsp/optee_os/lib/libutee/tee_api.c:335
    2ab4:	aa1403e1 	mov	x1, x20
    2ab8:	2a1303e0 	mov	w0, w19
    2abc:	97fffe88 	bl	24dc <check_invoke_param>
/home/build/bsp/optee_os/lib/libutee/tee_api.c:337
    2ac0:	aa1503e0 	mov	x0, x21
/home/build/bsp/optee_os/lib/libutee/tee_api.c:339
    2ac4:	910243f6 	add	x22, sp, #0x90
/home/build/bsp/optee_os/lib/libutee/tee_api.c:337
    2ac8:	d2800101 	mov	x1, #0x8                   	// #8
    2acc:	94000b0c 	bl	56fc <__utee_check_out_annotation>
/home/build/bsp/optee_os/lib/libutee/tee_api.c:339
    2ad0:	2a1303e1 	mov	w1, w19
    2ad4:	aa1403e2 	mov	x2, x20
    2ad8:	aa1603e0 	mov	x0, x22
/home/build/bsp/optee_os/lib/libutee/tee_api.c:340
    2adc:	9101c3fa 	add	x26, sp, #0x70
/home/build/bsp/optee_os/lib/libutee/tee_api.c:339
    2ae0:	97fffe11 	bl	2324 <copy_param>
/home/build/bsp/optee_os/lib/libutee/tee_api.c:340
    2ae4:	910183e1 	add	x1, sp, #0x60
    2ae8:	aa1a03e3 	mov	x3, x26
    2aec:	9101a3e2 	add	x2, sp, #0x68
    2af0:	aa1603e0 	mov	x0, x22
    2af4:	97ffff6b 	bl	28a0 <map_tmp_param>
    2af8:	2a0003f3 	mov	w19, w0
/home/build/bsp/optee_os/lib/libutee/tee_api.c:341
    2afc:	35000260 	cbnz	w0, 2b48 <TEE_OpenTASession+0x10c>
/home/build/bsp/optee_os/lib/libutee/tee_api.c:343
    2b00:	aa1903e4 	mov	x4, x25
    2b04:	910173e3 	add	x3, sp, #0x5c
    2b08:	aa1603e2 	mov	x2, x22
    2b0c:	2a1803e1 	mov	w1, w24
    2b10:	aa1703e0 	mov	x0, x23
    2b14:	97fffd63 	bl	20a0 <_utee_open_ta_session>
/home/build/bsp/optee_os/lib/libutee/tee_api.c:345
    2b18:	aa1603e2 	mov	x2, x22
/home/build/bsp/optee_os/lib/libutee/tee_api.c:343
    2b1c:	2a0003f3 	mov	w19, w0
/home/build/bsp/optee_os/lib/libutee/tee_api.c:345
    2b20:	aa1a03e1 	mov	x1, x26
    2b24:	aa1403e0 	mov	x0, x20
    2b28:	97fffe97 	bl	2584 <update_out_param>
/home/build/bsp/optee_os/lib/libutee/tee_api.c:346
    2b2c:	f94033e0 	ldr	x0, [sp, #96]
    2b30:	b40000a0 	cbz	x0, 2b44 <TEE_OpenTASession+0x108>
/home/build/bsp/optee_os/lib/libutee/tee_api.c:347
    2b34:	f94037e1 	ldr	x1, [sp, #104]
    2b38:	94000f45 	bl	684c <tee_unmap>
/home/build/bsp/optee_os/lib/libutee/tee_api.c:349
    2b3c:	34000040 	cbz	w0, 2b44 <TEE_OpenTASession+0x108>
/home/build/bsp/optee_os/lib/libutee/tee_api.c:350
    2b40:	94000a91 	bl	5584 <TEE_Panic>
/home/build/bsp/optee_os/lib/libutee/tee_api.c:359
    2b44:	34000053 	cbz	w19, 2b4c <TEE_OpenTASession+0x110>
/home/build/bsp/optee_os/lib/libutee/tee_api.c:360
    2b48:	b9005fff 	str	wzr, [sp, #92]
/home/build/bsp/optee_os/lib/libutee/tee_api.c:364
    2b4c:	90000086 	adrp	x6, 12000 <_DYNAMIC>
/home/build/bsp/optee_os/lib/libutee/tee_api.c:362
    2b50:	b9405fe0 	ldr	w0, [sp, #92]
    2b54:	f90002a0 	str	x0, [x21]
/home/build/bsp/optee_os/lib/libutee/tee_api.c:364
    2b58:	f94098c6 	ldr	x6, [x6, #304]
    2b5c:	f9406fe0 	ldr	x0, [sp, #216]
    2b60:	f94000c1 	ldr	x1, [x6]
    2b64:	eb010000 	subs	x0, x0, x1
    2b68:	d2800001 	mov	x1, #0x0                   	// #0
    2b6c:	54000040 	b.eq	2b74 <TEE_OpenTASession+0x138>  // b.none
    2b70:	97fff6d0 	bl	6b0 <__stack_chk_fail>
    2b74:	2a1303e0 	mov	w0, w19
    2b78:	a94153f3 	ldp	x19, x20, [sp, #16]
    2b7c:	a9425bf5 	ldp	x21, x22, [sp, #32]
    2b80:	a94363f7 	ldp	x23, x24, [sp, #48]
    2b84:	a9446bf9 	ldp	x25, x26, [sp, #64]
    2b88:	a8ce7bfd 	ldp	x29, x30, [sp], #224
    2b8c:	d65f03c0 	ret

0000000000002b90 <__GP11_TEE_OpenTASession>:
__GP11_TEE_OpenTASession():
/home/build/bsp/optee_os/lib/libutee/tee_api.c:372
    2b90:	a9b27bfd 	stp	x29, x30, [sp, #-224]!
    2b94:	90000086 	adrp	x6, 12000 <_DYNAMIC>
    2b98:	910003fd 	mov	x29, sp
    2b9c:	f94098c6 	ldr	x6, [x6, #304]
    2ba0:	a90153f3 	stp	x19, x20, [sp, #16]
    2ba4:	2a0203f3 	mov	w19, w2
    2ba8:	a9025bf5 	stp	x21, x22, [sp, #32]
    2bac:	aa0303f4 	mov	x20, x3
    2bb0:	aa0403f5 	mov	x21, x4
    2bb4:	a90363f7 	stp	x23, x24, [sp, #48]
    2bb8:	aa0003f7 	mov	x23, x0
    2bbc:	2a0103f8 	mov	w24, w1
    2bc0:	a9046bf9 	stp	x25, x26, [sp, #64]
    2bc4:	aa0503f9 	mov	x25, x5
    2bc8:	f94000c0 	ldr	x0, [x6]
    2bcc:	f9006fe0 	str	x0, [sp, #216]
    2bd0:	d2800000 	mov	x0, #0x0                   	// #0
/home/build/bsp/optee_os/lib/libutee/tee_api.c:375
    2bd4:	b9005fff 	str	wzr, [sp, #92]
/home/build/bsp/optee_os/lib/libutee/tee_api.c:377
    2bd8:	a9067fff 	stp	xzr, xzr, [sp, #96]
/home/build/bsp/optee_os/lib/libutee/tee_api.c:378
    2bdc:	a9077fff 	stp	xzr, xzr, [sp, #112]
    2be0:	a9087fff 	stp	xzr, xzr, [sp, #128]
/home/build/bsp/optee_os/lib/libutee/tee_api.c:374
    2be4:	a9097fff 	stp	xzr, xzr, [sp, #144]
    2be8:	a90a7fff 	stp	xzr, xzr, [sp, #160]
    2bec:	a90b7fff 	stp	xzr, xzr, [sp, #176]
    2bf0:	a90c7fff 	stp	xzr, xzr, [sp, #192]
    2bf4:	f9006bff 	str	xzr, [sp, #208]
/home/build/bsp/optee_os/lib/libutee/tee_api.c:380
    2bf8:	34000082 	cbz	w2, 2c08 <__GP11_TEE_OpenTASession+0x78>
/home/build/bsp/optee_os/lib/libutee/tee_api.c:381
    2bfc:	aa0303e0 	mov	x0, x3
    2c00:	d2800801 	mov	x1, #0x40                  	// #64
    2c04:	94000ad0 	bl	5744 <__utee_check_inout_annotation>
/home/build/bsp/optee_os/lib/libutee/tee_api.c:384
    2c08:	aa1503e0 	mov	x0, x21
/home/build/bsp/optee_os/lib/libutee/tee_api.c:386
    2c0c:	910243f6 	add	x22, sp, #0x90
/home/build/bsp/optee_os/lib/libutee/tee_api.c:384
    2c10:	d2800101 	mov	x1, #0x8                   	// #8
    2c14:	94000aba 	bl	56fc <__utee_check_out_annotation>
/home/build/bsp/optee_os/lib/libutee/tee_api.c:386
    2c18:	2a1303e1 	mov	w1, w19
    2c1c:	aa1403e2 	mov	x2, x20
    2c20:	aa1603e0 	mov	x0, x22
/home/build/bsp/optee_os/lib/libutee/tee_api.c:387
    2c24:	9101c3fa 	add	x26, sp, #0x70
/home/build/bsp/optee_os/lib/libutee/tee_api.c:386
    2c28:	97fffdda 	bl	2390 <copy_gp11_param>
/home/build/bsp/optee_os/lib/libutee/tee_api.c:387
    2c2c:	910183e1 	add	x1, sp, #0x60
    2c30:	aa1a03e3 	mov	x3, x26
    2c34:	9101a3e2 	add	x2, sp, #0x68
    2c38:	aa1603e0 	mov	x0, x22
    2c3c:	97ffff19 	bl	28a0 <map_tmp_param>
    2c40:	2a0003f3 	mov	w19, w0
/home/build/bsp/optee_os/lib/libutee/tee_api.c:388
    2c44:	35000260 	cbnz	w0, 2c90 <__GP11_TEE_OpenTASession+0x100>
/home/build/bsp/optee_os/lib/libutee/tee_api.c:390
    2c48:	aa1903e4 	mov	x4, x25
    2c4c:	910173e3 	add	x3, sp, #0x5c
    2c50:	aa1603e2 	mov	x2, x22
    2c54:	2a1803e1 	mov	w1, w24
    2c58:	aa1703e0 	mov	x0, x23
    2c5c:	97fffd11 	bl	20a0 <_utee_open_ta_session>
/home/build/bsp/optee_os/lib/libutee/tee_api.c:392
    2c60:	aa1603e2 	mov	x2, x22
/home/build/bsp/optee_os/lib/libutee/tee_api.c:390
    2c64:	2a0003f3 	mov	w19, w0
/home/build/bsp/optee_os/lib/libutee/tee_api.c:392
    2c68:	aa1a03e1 	mov	x1, x26
    2c6c:	aa1403e0 	mov	x0, x20
    2c70:	97fffe6e 	bl	2628 <update_out_gp11_param>
/home/build/bsp/optee_os/lib/libutee/tee_api.c:393
    2c74:	f94033e0 	ldr	x0, [sp, #96]
    2c78:	b40000a0 	cbz	x0, 2c8c <__GP11_TEE_OpenTASession+0xfc>
/home/build/bsp/optee_os/lib/libutee/tee_api.c:394
    2c7c:	f94037e1 	ldr	x1, [sp, #104]
    2c80:	94000ef3 	bl	684c <tee_unmap>
/home/build/bsp/optee_os/lib/libutee/tee_api.c:396
    2c84:	34000040 	cbz	w0, 2c8c <__GP11_TEE_OpenTASession+0xfc>
/home/build/bsp/optee_os/lib/libutee/tee_api.c:397
    2c88:	94000a3f 	bl	5584 <TEE_Panic>
/home/build/bsp/optee_os/lib/libutee/tee_api.c:406
    2c8c:	34000053 	cbz	w19, 2c94 <__GP11_TEE_OpenTASession+0x104>
/home/build/bsp/optee_os/lib/libutee/tee_api.c:407
    2c90:	b9005fff 	str	wzr, [sp, #92]
/home/build/bsp/optee_os/lib/libutee/tee_api.c:411
    2c94:	90000086 	adrp	x6, 12000 <_DYNAMIC>
/home/build/bsp/optee_os/lib/libutee/tee_api.c:409
    2c98:	b9405fe0 	ldr	w0, [sp, #92]
    2c9c:	f90002a0 	str	x0, [x21]
/home/build/bsp/optee_os/lib/libutee/tee_api.c:411
    2ca0:	f94098c6 	ldr	x6, [x6, #304]
    2ca4:	f9406fe0 	ldr	x0, [sp, #216]
    2ca8:	f94000c1 	ldr	x1, [x6]
    2cac:	eb010000 	subs	x0, x0, x1
    2cb0:	d2800001 	mov	x1, #0x0                   	// #0
    2cb4:	54000040 	b.eq	2cbc <__GP11_TEE_OpenTASession+0x12c>  // b.none
    2cb8:	97fff67e 	bl	6b0 <__stack_chk_fail>
    2cbc:	2a1303e0 	mov	w0, w19
    2cc0:	a94153f3 	ldp	x19, x20, [sp, #16]
    2cc4:	a9425bf5 	ldp	x21, x22, [sp, #32]
    2cc8:	a94363f7 	ldp	x23, x24, [sp, #48]
    2ccc:	a9446bf9 	ldp	x25, x26, [sp, #64]
    2cd0:	a8ce7bfd 	ldp	x29, x30, [sp], #224
    2cd4:	d65f03c0 	ret

0000000000002cd8 <TEE_InvokeTACommand>:
TEE_InvokeTACommand():
/home/build/bsp/optee_os/lib/libutee/tee_api.c:428
    2cd8:	a9b27bfd 	stp	x29, x30, [sp, #-224]!
    2cdc:	90000086 	adrp	x6, 12000 <_DYNAMIC>
    2ce0:	910003fd 	mov	x29, sp
    2ce4:	f94098c6 	ldr	x6, [x6, #304]
    2ce8:	a90153f3 	stp	x19, x20, [sp, #16]
    2cec:	2a0303f3 	mov	w19, w3
    2cf0:	a9025bf5 	stp	x21, x22, [sp, #32]
    2cf4:	aa0003f6 	mov	x22, x0
    2cf8:	aa0403f5 	mov	x21, x4
    2cfc:	a90363f7 	stp	x23, x24, [sp, #48]
    2d00:	aa0503f4 	mov	x20, x5
    2d04:	2a0103f7 	mov	w23, w1
    2d08:	a9046bf9 	stp	x25, x26, [sp, #64]
    2d0c:	2a0203f8 	mov	w24, w2
    2d10:	f94000c0 	ldr	x0, [x6]
    2d14:	f9006fe0 	str	x0, [sp, #216]
    2d18:	d2800000 	mov	x0, #0x0                   	// #0
/home/build/bsp/optee_os/lib/libutee/tee_api.c:433
    2d1c:	a9067fff 	stp	xzr, xzr, [sp, #96]
/home/build/bsp/optee_os/lib/libutee/tee_api.c:430
    2d20:	52800060 	mov	w0, #0x3                   	// #3
    2d24:	b9005fe0 	str	w0, [sp, #92]
/home/build/bsp/optee_os/lib/libutee/tee_api.c:434
    2d28:	a9077fff 	stp	xzr, xzr, [sp, #112]
    2d2c:	a9087fff 	stp	xzr, xzr, [sp, #128]
/home/build/bsp/optee_os/lib/libutee/tee_api.c:431
    2d30:	a9097fff 	stp	xzr, xzr, [sp, #144]
    2d34:	a90a7fff 	stp	xzr, xzr, [sp, #160]
    2d38:	a90b7fff 	stp	xzr, xzr, [sp, #176]
    2d3c:	a90c7fff 	stp	xzr, xzr, [sp, #192]
    2d40:	f9006bff 	str	xzr, [sp, #208]
/home/build/bsp/optee_os/lib/libutee/tee_api.c:436
    2d44:	340000e3 	cbz	w3, 2d60 <TEE_InvokeTACommand+0x88>
/home/build/bsp/optee_os/lib/libutee/tee_api.c:437
    2d48:	aa0403e0 	mov	x0, x4
    2d4c:	d2800801 	mov	x1, #0x40                  	// #64
    2d50:	94000a7d 	bl	5744 <__utee_check_inout_annotation>
/home/build/bsp/optee_os/lib/libutee/tee_api.c:440
    2d54:	aa1503e1 	mov	x1, x21
    2d58:	2a1303e0 	mov	w0, w19
    2d5c:	97fffde0 	bl	24dc <check_invoke_param>
/home/build/bsp/optee_os/lib/libutee/tee_api.c:442
    2d60:	b4000094 	cbz	x20, 2d70 <TEE_InvokeTACommand+0x98>
/home/build/bsp/optee_os/lib/libutee/tee_api.c:443
    2d64:	aa1403e0 	mov	x0, x20
    2d68:	d2800081 	mov	x1, #0x4                   	// #4
    2d6c:	94000a64 	bl	56fc <__utee_check_out_annotation>
/home/build/bsp/optee_os/lib/libutee/tee_api.c:446
    2d70:	910243f9 	add	x25, sp, #0x90
    2d74:	2a1303e1 	mov	w1, w19
    2d78:	aa1503e2 	mov	x2, x21
    2d7c:	aa1903e0 	mov	x0, x25
/home/build/bsp/optee_os/lib/libutee/tee_api.c:447
    2d80:	9101c3fa 	add	x26, sp, #0x70
/home/build/bsp/optee_os/lib/libutee/tee_api.c:446
    2d84:	97fffd68 	bl	2324 <copy_param>
/home/build/bsp/optee_os/lib/libutee/tee_api.c:447
    2d88:	aa1a03e3 	mov	x3, x26
    2d8c:	9101a3e2 	add	x2, sp, #0x68
    2d90:	910183e1 	add	x1, sp, #0x60
    2d94:	aa1903e0 	mov	x0, x25
    2d98:	97fffec2 	bl	28a0 <map_tmp_param>
    2d9c:	2a0003f3 	mov	w19, w0
/home/build/bsp/optee_os/lib/libutee/tee_api.c:448
    2da0:	35000240 	cbnz	w0, 2de8 <TEE_InvokeTACommand+0x110>
/home/build/bsp/optee_os/lib/libutee/tee_api.c:450
    2da4:	910173e4 	add	x4, sp, #0x5c
    2da8:	aa1903e3 	mov	x3, x25
    2dac:	2a1803e2 	mov	w2, w24
    2db0:	2a1703e1 	mov	w1, w23
    2db4:	aa1603e0 	mov	x0, x22
    2db8:	97fffcc0 	bl	20b8 <_utee_invoke_ta_command>
/home/build/bsp/optee_os/lib/libutee/tee_api.c:453
    2dbc:	aa1903e2 	mov	x2, x25
/home/build/bsp/optee_os/lib/libutee/tee_api.c:450
    2dc0:	2a0003f3 	mov	w19, w0
/home/build/bsp/optee_os/lib/libutee/tee_api.c:453
    2dc4:	aa1a03e1 	mov	x1, x26
    2dc8:	aa1503e0 	mov	x0, x21
    2dcc:	97fffdee 	bl	2584 <update_out_param>
/home/build/bsp/optee_os/lib/libutee/tee_api.c:454
    2dd0:	f94033e0 	ldr	x0, [sp, #96]
    2dd4:	b40000a0 	cbz	x0, 2de8 <TEE_InvokeTACommand+0x110>
/home/build/bsp/optee_os/lib/libutee/tee_api.c:455
    2dd8:	f94037e1 	ldr	x1, [sp, #104]
    2ddc:	94000e9c 	bl	684c <tee_unmap>
/home/build/bsp/optee_os/lib/libutee/tee_api.c:457
    2de0:	34000040 	cbz	w0, 2de8 <TEE_InvokeTACommand+0x110>
/home/build/bsp/optee_os/lib/libutee/tee_api.c:458
    2de4:	940009e8 	bl	5584 <TEE_Panic>
/home/build/bsp/optee_os/lib/libutee/tee_api.c:463
    2de8:	b9405fe0 	ldr	w0, [sp, #92]
/home/build/bsp/optee_os/lib/libutee/tee_api.c:462
    2dec:	b4000054 	cbz	x20, 2df4 <TEE_InvokeTACommand+0x11c>
/home/build/bsp/optee_os/lib/libutee/tee_api.c:463
    2df0:	b9000280 	str	w0, [x20]
/home/build/bsp/optee_os/lib/libutee/tee_api.c:465
    2df4:	7100101f 	cmp	w0, #0x4
    2df8:	54000140 	b.eq	2e20 <TEE_InvokeTACommand+0x148>  // b.none
/home/build/bsp/optee_os/lib/libutee/tee_api.c:468
    2dfc:	7100027f 	cmp	w19, #0x0
    2e00:	129ffe60 	mov	w0, #0xffff000c            	// #-65524
    2e04:	7a401264 	ccmp	w19, w0, #0x4, ne  // ne = any
    2e08:	540000c0 	b.eq	2e20 <TEE_InvokeTACommand+0x148>  // b.none
/home/build/bsp/optee_os/lib/libutee/tee_api.c:469
    2e0c:	1299fb60 	mov	w0, #0xffff3024            	// #-53212
    2e10:	6b00027f 	cmp	w19, w0
    2e14:	54000060 	b.eq	2e20 <TEE_InvokeTACommand+0x148>  // b.none
/home/build/bsp/optee_os/lib/libutee/tee_api.c:471
    2e18:	2a1303e0 	mov	w0, w19
    2e1c:	940009da 	bl	5584 <TEE_Panic>
/home/build/bsp/optee_os/lib/libutee/tee_api.c:474
    2e20:	90000086 	adrp	x6, 12000 <_DYNAMIC>
    2e24:	f94098c6 	ldr	x6, [x6, #304]
    2e28:	f9406fe0 	ldr	x0, [sp, #216]
    2e2c:	f94000c1 	ldr	x1, [x6]
    2e30:	eb010000 	subs	x0, x0, x1
    2e34:	d2800001 	mov	x1, #0x0                   	// #0
    2e38:	54000040 	b.eq	2e40 <TEE_InvokeTACommand+0x168>  // b.none
    2e3c:	97fff61d 	bl	6b0 <__stack_chk_fail>
    2e40:	2a1303e0 	mov	w0, w19
    2e44:	a94153f3 	ldp	x19, x20, [sp, #16]
    2e48:	a9425bf5 	ldp	x21, x22, [sp, #32]
    2e4c:	a94363f7 	ldp	x23, x24, [sp, #48]
    2e50:	a9446bf9 	ldp	x25, x26, [sp, #64]
    2e54:	a8ce7bfd 	ldp	x29, x30, [sp], #224
    2e58:	d65f03c0 	ret

0000000000002e5c <__GP11_TEE_InvokeTACommand>:
__GP11_TEE_InvokeTACommand():
/home/build/bsp/optee_os/lib/libutee/tee_api.c:481
    2e5c:	a9b27bfd 	stp	x29, x30, [sp, #-224]!
    2e60:	90000086 	adrp	x6, 12000 <_DYNAMIC>
    2e64:	910003fd 	mov	x29, sp
    2e68:	f94098c6 	ldr	x6, [x6, #304]
    2e6c:	a90153f3 	stp	x19, x20, [sp, #16]
    2e70:	2a0303f3 	mov	w19, w3
    2e74:	a9025bf5 	stp	x21, x22, [sp, #32]
    2e78:	aa0503f4 	mov	x20, x5
    2e7c:	aa0403f5 	mov	x21, x4
    2e80:	a90363f7 	stp	x23, x24, [sp, #48]
    2e84:	aa0003f7 	mov	x23, x0
    2e88:	2a0103f8 	mov	w24, w1
    2e8c:	a9046bf9 	stp	x25, x26, [sp, #64]
    2e90:	2a0203f9 	mov	w25, w2
    2e94:	f94000c0 	ldr	x0, [x6]
    2e98:	f9006fe0 	str	x0, [sp, #216]
    2e9c:	d2800000 	mov	x0, #0x0                   	// #0
/home/build/bsp/optee_os/lib/libutee/tee_api.c:486
    2ea0:	a9067fff 	stp	xzr, xzr, [sp, #96]
/home/build/bsp/optee_os/lib/libutee/tee_api.c:483
    2ea4:	52800060 	mov	w0, #0x3                   	// #3
    2ea8:	b9005fe0 	str	w0, [sp, #92]
/home/build/bsp/optee_os/lib/libutee/tee_api.c:487
    2eac:	a9077fff 	stp	xzr, xzr, [sp, #112]
    2eb0:	a9087fff 	stp	xzr, xzr, [sp, #128]
/home/build/bsp/optee_os/lib/libutee/tee_api.c:484
    2eb4:	a9097fff 	stp	xzr, xzr, [sp, #144]
    2eb8:	a90a7fff 	stp	xzr, xzr, [sp, #160]
    2ebc:	a90b7fff 	stp	xzr, xzr, [sp, #176]
    2ec0:	a90c7fff 	stp	xzr, xzr, [sp, #192]
    2ec4:	f9006bff 	str	xzr, [sp, #208]
/home/build/bsp/optee_os/lib/libutee/tee_api.c:489
    2ec8:	34000083 	cbz	w3, 2ed8 <__GP11_TEE_InvokeTACommand+0x7c>
/home/build/bsp/optee_os/lib/libutee/tee_api.c:490
    2ecc:	aa0403e0 	mov	x0, x4
    2ed0:	d2800801 	mov	x1, #0x40                  	// #64
    2ed4:	94000a1c 	bl	5744 <__utee_check_inout_annotation>
/home/build/bsp/optee_os/lib/libutee/tee_api.c:493
    2ed8:	b4000094 	cbz	x20, 2ee8 <__GP11_TEE_InvokeTACommand+0x8c>
/home/build/bsp/optee_os/lib/libutee/tee_api.c:494
    2edc:	aa1403e0 	mov	x0, x20
    2ee0:	d2800081 	mov	x1, #0x4                   	// #4
    2ee4:	94000a06 	bl	56fc <__utee_check_out_annotation>
/home/build/bsp/optee_os/lib/libutee/tee_api.c:497
    2ee8:	910243f6 	add	x22, sp, #0x90
    2eec:	2a1303e1 	mov	w1, w19
    2ef0:	aa1503e2 	mov	x2, x21
    2ef4:	aa1603e0 	mov	x0, x22
/home/build/bsp/optee_os/lib/libutee/tee_api.c:498
    2ef8:	9101c3fa 	add	x26, sp, #0x70
/home/build/bsp/optee_os/lib/libutee/tee_api.c:497
    2efc:	97fffd25 	bl	2390 <copy_gp11_param>
/home/build/bsp/optee_os/lib/libutee/tee_api.c:498
    2f00:	aa1a03e3 	mov	x3, x26
    2f04:	9101a3e2 	add	x2, sp, #0x68
    2f08:	910183e1 	add	x1, sp, #0x60
    2f0c:	aa1603e0 	mov	x0, x22
    2f10:	97fffe64 	bl	28a0 <map_tmp_param>
    2f14:	2a0003f3 	mov	w19, w0
/home/build/bsp/optee_os/lib/libutee/tee_api.c:499
    2f18:	35000240 	cbnz	w0, 2f60 <__GP11_TEE_InvokeTACommand+0x104>
/home/build/bsp/optee_os/lib/libutee/tee_api.c:501
    2f1c:	910173e4 	add	x4, sp, #0x5c
    2f20:	aa1603e3 	mov	x3, x22
    2f24:	2a1903e2 	mov	w2, w25
    2f28:	2a1803e1 	mov	w1, w24
    2f2c:	aa1703e0 	mov	x0, x23
    2f30:	97fffc62 	bl	20b8 <_utee_invoke_ta_command>
/home/build/bsp/optee_os/lib/libutee/tee_api.c:504
    2f34:	aa1603e2 	mov	x2, x22
/home/build/bsp/optee_os/lib/libutee/tee_api.c:501
    2f38:	2a0003f3 	mov	w19, w0
/home/build/bsp/optee_os/lib/libutee/tee_api.c:504
    2f3c:	aa1a03e1 	mov	x1, x26
    2f40:	aa1503e0 	mov	x0, x21
    2f44:	97fffdb9 	bl	2628 <update_out_gp11_param>
/home/build/bsp/optee_os/lib/libutee/tee_api.c:505
    2f48:	f94033e0 	ldr	x0, [sp, #96]
    2f4c:	b40000a0 	cbz	x0, 2f60 <__GP11_TEE_InvokeTACommand+0x104>
/home/build/bsp/optee_os/lib/libutee/tee_api.c:506
    2f50:	f94037e1 	ldr	x1, [sp, #104]
    2f54:	94000e3e 	bl	684c <tee_unmap>
/home/build/bsp/optee_os/lib/libutee/tee_api.c:508
    2f58:	34000040 	cbz	w0, 2f60 <__GP11_TEE_InvokeTACommand+0x104>
/home/build/bsp/optee_os/lib/libutee/tee_api.c:509
    2f5c:	9400098a 	bl	5584 <TEE_Panic>
/home/build/bsp/optee_os/lib/libutee/tee_api.c:514
    2f60:	b9405fe0 	ldr	w0, [sp, #92]
/home/build/bsp/optee_os/lib/libutee/tee_api.c:513
    2f64:	b4000054 	cbz	x20, 2f6c <__GP11_TEE_InvokeTACommand+0x110>
/home/build/bsp/optee_os/lib/libutee/tee_api.c:514
    2f68:	b9000280 	str	w0, [x20]
/home/build/bsp/optee_os/lib/libutee/tee_api.c:516
    2f6c:	7100101f 	cmp	w0, #0x4
    2f70:	54000140 	b.eq	2f98 <__GP11_TEE_InvokeTACommand+0x13c>  // b.none
/home/build/bsp/optee_os/lib/libutee/tee_api.c:519
    2f74:	7100027f 	cmp	w19, #0x0
    2f78:	129ffe60 	mov	w0, #0xffff000c            	// #-65524
    2f7c:	7a401264 	ccmp	w19, w0, #0x4, ne  // ne = any
    2f80:	540000c0 	b.eq	2f98 <__GP11_TEE_InvokeTACommand+0x13c>  // b.none
/home/build/bsp/optee_os/lib/libutee/tee_api.c:520
    2f84:	1299fb60 	mov	w0, #0xffff3024            	// #-53212
    2f88:	6b00027f 	cmp	w19, w0
    2f8c:	54000060 	b.eq	2f98 <__GP11_TEE_InvokeTACommand+0x13c>  // b.none
/home/build/bsp/optee_os/lib/libutee/tee_api.c:522
    2f90:	2a1303e0 	mov	w0, w19
    2f94:	9400097c 	bl	5584 <TEE_Panic>
/home/build/bsp/optee_os/lib/libutee/tee_api.c:525
    2f98:	90000086 	adrp	x6, 12000 <_DYNAMIC>
    2f9c:	f94098c6 	ldr	x6, [x6, #304]
    2fa0:	f9406fe0 	ldr	x0, [sp, #216]
    2fa4:	f94000c1 	ldr	x1, [x6]
    2fa8:	eb010000 	subs	x0, x0, x1
    2fac:	d2800001 	mov	x1, #0x0                   	// #0
    2fb0:	54000040 	b.eq	2fb8 <__GP11_TEE_InvokeTACommand+0x15c>  // b.none
    2fb4:	97fff5bf 	bl	6b0 <__stack_chk_fail>
    2fb8:	2a1303e0 	mov	w0, w19
    2fbc:	a94153f3 	ldp	x19, x20, [sp, #16]
    2fc0:	a9425bf5 	ldp	x21, x22, [sp, #32]
    2fc4:	a94363f7 	ldp	x23, x24, [sp, #48]
    2fc8:	a9446bf9 	ldp	x25, x26, [sp, #64]
    2fcc:	a8ce7bfd 	ldp	x29, x30, [sp], #224
    2fd0:	d65f03c0 	ret

0000000000002fd4 <__GP11_TEE_CheckMemoryAccessRights>:
__GP11_TEE_CheckMemoryAccessRights():
/home/build/bsp/optee_os/lib/libutee/tee_api.c:597
    2fd4:	2a0203e2 	mov	w2, w2
    2fd8:	17fffe10 	b	2818 <TEE_CheckMemoryAccessRights>

0000000000002fdc <TEE_SetInstanceData>:
TEE_SetInstanceData():
/home/build/bsp/optee_os/lib/libutee/tee_api.c:602
    2fdc:	90000081 	adrp	x1, 12000 <_DYNAMIC>
    2fe0:	f9034020 	str	x0, [x1, #1664]
/home/build/bsp/optee_os/lib/libutee/tee_api.c:603
    2fe4:	d65f03c0 	ret

0000000000002fe8 <TEE_GetInstanceData>:
TEE_GetInstanceData():
/home/build/bsp/optee_os/lib/libutee/tee_api.c:608
    2fe8:	90000080 	adrp	x0, 12000 <_DYNAMIC>
    2fec:	f9434000 	ldr	x0, [x0, #1664]
    2ff0:	d65f03c0 	ret

0000000000002ff4 <TEE_MemMove>:
TEE_MemMove():
/home/build/bsp/optee_os/lib/libutee/tee_api.c:612
    2ff4:	140027a6 	b	ce8c <memmove>

0000000000002ff8 <__GP11_TEE_MemMove>:
__GP11_TEE_MemMove():
/home/build/bsp/optee_os/lib/libutee/tee_api.c:617
    2ff8:	2a0203e2 	mov	w2, w2
    2ffc:	17fffffe 	b	2ff4 <TEE_MemMove>

0000000000003000 <TEE_MemCompare>:
TEE_MemCompare():
/home/build/bsp/optee_os/lib/libutee/tee_api.c:622
    3000:	1400283e 	b	d0f8 <consttime_memcmp>

0000000000003004 <__GP11_TEE_MemCompare>:
__GP11_TEE_MemCompare():
/home/build/bsp/optee_os/lib/libutee/tee_api.c:628
    3004:	2a0203e2 	mov	w2, w2
    3008:	17fffffe 	b	3000 <TEE_MemCompare>

000000000000300c <TEE_MemFill>:
TEE_MemFill():
/home/build/bsp/optee_os/lib/libutee/tee_api.c:633
    300c:	140027b7 	b	cee8 <memset>

0000000000003010 <__GP11_TEE_MemFill>:
__GP11_TEE_MemFill():
/home/build/bsp/optee_os/lib/libutee/tee_api.c:638
    3010:	2a0203e2 	mov	w2, w2
    3014:	17fffffe 	b	300c <TEE_MemFill>

0000000000003018 <TEE_GetSystemTime>:
TEE_GetSystemTime():
/home/build/bsp/optee_os/lib/libutee/tee_api.c:644
    3018:	a9bf7bfd 	stp	x29, x30, [sp, #-16]!
/home/build/bsp/optee_os/lib/libutee/tee_api.c:645
    301c:	aa0003e1 	mov	x1, x0
    3020:	d2800000 	mov	x0, #0x0                   	// #0
/home/build/bsp/optee_os/lib/libutee/tee_api.c:644
    3024:	910003fd 	mov	x29, sp
/home/build/bsp/optee_os/lib/libutee/tee_api.c:645
    3028:	97fffc36 	bl	2100 <_utee_get_time>
/home/build/bsp/optee_os/lib/libutee/tee_api.c:647
    302c:	34000060 	cbz	w0, 3038 <TEE_GetSystemTime+0x20>
/home/build/bsp/optee_os/lib/libutee/tee_api.c:649
    3030:	a8c17bfd 	ldp	x29, x30, [sp], #16
/home/build/bsp/optee_os/lib/libutee/tee_api.c:648
    3034:	14000954 	b	5584 <TEE_Panic>
/home/build/bsp/optee_os/lib/libutee/tee_api.c:649
    3038:	a8c17bfd 	ldp	x29, x30, [sp], #16
    303c:	d65f03c0 	ret

0000000000003040 <TEE_Wait>:
TEE_Wait():
/home/build/bsp/optee_os/lib/libutee/tee_api.c:652
    3040:	a9be7bfd 	stp	x29, x30, [sp, #-32]!
/home/build/bsp/optee_os/lib/libutee/tee_api.c:653
    3044:	2a0003e0 	mov	w0, w0
/home/build/bsp/optee_os/lib/libutee/tee_api.c:652
    3048:	910003fd 	mov	x29, sp
    304c:	f9000bf3 	str	x19, [sp, #16]
/home/build/bsp/optee_os/lib/libutee/tee_api.c:653
    3050:	97fffc29 	bl	20f4 <_utee_wait>
/home/build/bsp/optee_os/lib/libutee/tee_api.c:655
    3054:	7100001f 	cmp	w0, #0x0
    3058:	129fffa1 	mov	w1, #0xffff0002            	// #-65534
/home/build/bsp/optee_os/lib/libutee/tee_api.c:653
    305c:	2a0003f3 	mov	w19, w0
/home/build/bsp/optee_os/lib/libutee/tee_api.c:655
    3060:	7a411004 	ccmp	w0, w1, #0x4, ne  // ne = any
    3064:	54000040 	b.eq	306c <TEE_Wait+0x2c>  // b.none
/home/build/bsp/optee_os/lib/libutee/tee_api.c:656
    3068:	94000947 	bl	5584 <TEE_Panic>
/home/build/bsp/optee_os/lib/libutee/tee_api.c:659
    306c:	2a1303e0 	mov	w0, w19
    3070:	f9400bf3 	ldr	x19, [sp, #16]
    3074:	a8c27bfd 	ldp	x29, x30, [sp], #32
    3078:	d65f03c0 	ret

000000000000307c <TEE_GetTAPersistentTime>:
TEE_GetTAPersistentTime():
/home/build/bsp/optee_os/lib/libutee/tee_api.c:662
    307c:	a9be7bfd 	stp	x29, x30, [sp, #-32]!
/home/build/bsp/optee_os/lib/libutee/tee_api.c:665
    3080:	aa0003e1 	mov	x1, x0
/home/build/bsp/optee_os/lib/libutee/tee_api.c:662
    3084:	910003fd 	mov	x29, sp
    3088:	a90153f3 	stp	x19, x20, [sp, #16]
    308c:	aa0003f4 	mov	x20, x0
/home/build/bsp/optee_os/lib/libutee/tee_api.c:665
    3090:	d2800020 	mov	x0, #0x1                   	// #1
    3094:	97fffc1b 	bl	2100 <_utee_get_time>
/home/build/bsp/optee_os/lib/libutee/tee_api.c:667
    3098:	7100001f 	cmp	w0, #0x0
/home/build/bsp/optee_os/lib/libutee/tee_api.c:665
    309c:	2a0003f3 	mov	w19, w0
/home/build/bsp/optee_os/lib/libutee/tee_api.c:667
    30a0:	1a9f07e2 	cset	w2, ne  // ne = any
    30a4:	1299fe00 	mov	w0, #0xffff300f            	// #-53233
    30a8:	6b00027f 	cmp	w19, w0
    30ac:	1a9f07e0 	cset	w0, ne  // ne = any
    30b0:	6a000040 	ands	w0, w2, w0
    30b4:	54000040 	b.eq	30bc <TEE_GetTAPersistentTime+0x40>  // b.none
/home/build/bsp/optee_os/lib/libutee/tee_api.c:669
    30b8:	29007e9f 	stp	wzr, wzr, [x20]
/home/build/bsp/optee_os/lib/libutee/tee_api.c:673
    30bc:	11402e61 	add	w1, w19, #0xb, lsl #12
/home/build/bsp/optee_os/lib/libutee/tee_api.c:672
    30c0:	7100005f 	cmp	w2, #0x0
    30c4:	7a411820 	ccmp	w1, #0x1, #0x0, ne  // ne = any
    30c8:	540000e9 	b.ls	30e4 <TEE_GetTAPersistentTime+0x68>  // b.plast
/home/build/bsp/optee_os/lib/libutee/tee_api.c:674
    30cc:	340000c0 	cbz	w0, 30e4 <TEE_GetTAPersistentTime+0x68>
/home/build/bsp/optee_os/lib/libutee/tee_api.c:675
    30d0:	129ffe60 	mov	w0, #0xffff000c            	// #-65524
    30d4:	6b00027f 	cmp	w19, w0
    30d8:	54000060 	b.eq	30e4 <TEE_GetTAPersistentTime+0x68>  // b.none
/home/build/bsp/optee_os/lib/libutee/tee_api.c:677
    30dc:	2a1303e0 	mov	w0, w19
    30e0:	94000929 	bl	5584 <TEE_Panic>
/home/build/bsp/optee_os/lib/libutee/tee_api.c:680
    30e4:	2a1303e0 	mov	w0, w19
    30e8:	a94153f3 	ldp	x19, x20, [sp, #16]
    30ec:	a8c27bfd 	ldp	x29, x30, [sp], #32
    30f0:	d65f03c0 	ret

00000000000030f4 <TEE_SetTAPersistentTime>:
TEE_SetTAPersistentTime():
/home/build/bsp/optee_os/lib/libutee/tee_api.c:683
    30f4:	a9be7bfd 	stp	x29, x30, [sp, #-32]!
    30f8:	910003fd 	mov	x29, sp
    30fc:	f9000bf3 	str	x19, [sp, #16]
/home/build/bsp/optee_os/lib/libutee/tee_api.c:686
    3100:	97fffc03 	bl	210c <_utee_set_ta_time>
/home/build/bsp/optee_os/lib/libutee/tee_api.c:688
    3104:	7100001f 	cmp	w0, #0x0
    3108:	129ffe61 	mov	w1, #0xffff000c            	// #-65524
/home/build/bsp/optee_os/lib/libutee/tee_api.c:686
    310c:	2a0003f3 	mov	w19, w0
/home/build/bsp/optee_os/lib/libutee/tee_api.c:688
    3110:	7a411004 	ccmp	w0, w1, #0x4, ne  // ne = any
    3114:	540000a0 	b.eq	3128 <TEE_SetTAPersistentTime+0x34>  // b.none
/home/build/bsp/optee_os/lib/libutee/tee_api.c:689
    3118:	1299f7c1 	mov	w1, #0xffff3041            	// #-53183
    311c:	6b01001f 	cmp	w0, w1
    3120:	54000040 	b.eq	3128 <TEE_SetTAPersistentTime+0x34>  // b.none
/home/build/bsp/optee_os/lib/libutee/tee_api.c:691
    3124:	94000918 	bl	5584 <TEE_Panic>
/home/build/bsp/optee_os/lib/libutee/tee_api.c:694
    3128:	2a1303e0 	mov	w0, w19
    312c:	f9400bf3 	ldr	x19, [sp, #16]
    3130:	a8c27bfd 	ldp	x29, x30, [sp], #32
    3134:	d65f03c0 	ret

0000000000003138 <TEE_GetREETime>:
TEE_GetREETime():
/home/build/bsp/optee_os/lib/libutee/tee_api.c:697
    3138:	a9bf7bfd 	stp	x29, x30, [sp, #-16]!
/home/build/bsp/optee_os/lib/libutee/tee_api.c:698
    313c:	aa0003e1 	mov	x1, x0
    3140:	d2800040 	mov	x0, #0x2                   	// #2
/home/build/bsp/optee_os/lib/libutee/tee_api.c:697
    3144:	910003fd 	mov	x29, sp
/home/build/bsp/optee_os/lib/libutee/tee_api.c:698
    3148:	97fffbee 	bl	2100 <_utee_get_time>
/home/build/bsp/optee_os/lib/libutee/tee_api.c:700
    314c:	34000060 	cbz	w0, 3158 <TEE_GetREETime+0x20>
/home/build/bsp/optee_os/lib/libutee/tee_api.c:702
    3150:	a8c17bfd 	ldp	x29, x30, [sp], #16
/home/build/bsp/optee_os/lib/libutee/tee_api.c:701
    3154:	1400090c 	b	5584 <TEE_Panic>
/home/build/bsp/optee_os/lib/libutee/tee_api.c:702
    3158:	a8c17bfd 	ldp	x29, x30, [sp], #16
    315c:	d65f03c0 	ret

0000000000003160 <TEE_Malloc>:
TEE_Malloc():
/home/build/bsp/optee_os/lib/libutee/tee_api.c:705
    3160:	a9be7bfd 	stp	x29, x30, [sp, #-32]!
    3164:	aa0003e2 	mov	x2, x0
    3168:	910003fd 	mov	x29, sp
    316c:	f9000bf3 	str	x19, [sp, #16]
    3170:	2a0103f3 	mov	w19, w1
/home/build/bsp/optee_os/lib/libutee/tee_api.c:706
    3174:	71000c3f 	cmp	w1, #0x3
    3178:	54000148 	b.hi	31a0 <TEE_Malloc+0x40>  // b.pmore
    317c:	51000421 	sub	w1, w1, #0x1
    3180:	7100083f 	cmp	w1, #0x2
    3184:	54000308 	b.hi	31e4 <TEE_Malloc+0x84>  // b.pmore
    3188:	90000060 	adrp	x0, f000 <__text_end+0x1e98>
    318c:	913f4000 	add	x0, x0, #0xfd0
    3190:	38614800 	ldrb	w0, [x0, w1, uxtw]
    3194:	10000061 	adr	x1, 31a0 <TEE_Malloc+0x40>
    3198:	8b208820 	add	x0, x1, w0, sxtb #2
    319c:	d61f0000 	br	x0
    31a0:	52b00001 	mov	w1, #0x80000000            	// #-2147483648
    31a4:	6b01027f 	cmp	w19, w1
    31a8:	540005e0 	b.eq	3264 <TEE_Malloc+0x104>  // b.none
/home/build/bsp/optee_os/lib/libutee/tee_api.c:739
    31ac:	2a1303e5 	mov	w5, w19
    31b0:	b0000064 	adrp	x4, 10000 <__func__.0+0x28>
    31b4:	52800023 	mov	w3, #0x1                   	// #1
    31b8:	911e6c84 	add	x4, x4, #0x79b
    31bc:	52800022 	mov	w2, #0x1                   	// #1
    31c0:	52805c61 	mov	w1, #0x2e3                 	// #739
    31c4:	90000060 	adrp	x0, f000 <__text_end+0x1e98>
    31c8:	913f6000 	add	x0, x0, #0xfd8
    31cc:	97fff4ff 	bl	5c8 <trace_printf>
/home/build/bsp/optee_os/lib/libutee/tee_api.c:741
    31d0:	d2800004 	mov	x4, #0x0                   	// #0
/home/build/bsp/optee_os/lib/libutee/tee_api.c:742
    31d4:	aa0403e0 	mov	x0, x4
    31d8:	f9400bf3 	ldr	x19, [sp, #16]
    31dc:	a8c27bfd 	ldp	x29, x30, [sp], #32
    31e0:	d65f03c0 	ret
/home/build/bsp/optee_os/lib/libutee/tee_api.c:708
    31e4:	b40004c0 	cbz	x0, 327c <TEE_Malloc+0x11c>
/home/build/bsp/optee_os/lib/libutee/tee_api.c:742
    31e8:	f9400bf3 	ldr	x19, [sp, #16]
/home/build/bsp/optee_os/lib/libutee/tee_api.c:710
    31ec:	aa0003e1 	mov	x1, x0
/home/build/bsp/optee_os/lib/libutee/tee_api.c:742
    31f0:	a8c27bfd 	ldp	x29, x30, [sp], #32
/home/build/bsp/optee_os/lib/libutee/tee_api.c:710
    31f4:	d2800020 	mov	x0, #0x1                   	// #1
    31f8:	140025e4 	b	c988 <calloc>
/home/build/bsp/optee_os/lib/libutee/tee_api.c:713
    31fc:	52800000 	mov	w0, #0x0                   	// #0
    3200:	940008e1 	bl	5584 <TEE_Panic>
/home/build/bsp/optee_os/lib/libutee/tee_api.c:714
    3204:	17ffffea 	b	31ac <TEE_Malloc+0x4c>
/home/build/bsp/optee_os/lib/libutee/tee_api.c:717
    3208:	b4000362 	cbz	x2, 3274 <TEE_Malloc+0x114>
/home/build/bsp/optee_os/lib/libutee/tee_api.c:719
    320c:	f0000060 	adrp	x0, 12000 <_DYNAMIC>
    3210:	f940d800 	ldr	x0, [x0, #432]
    3214:	f9400004 	ldr	x4, [x0]
    3218:	b4fffde4 	cbz	x4, 31d4 <TEE_Malloc+0x74>
/home/build/bsp/optee_os/lib/libutee/tee_api.c:742
    321c:	f9400bf3 	ldr	x19, [sp, #16]
/home/build/bsp/optee_os/lib/libutee/tee_api.c:721
    3220:	aa0203e3 	mov	x3, x2
/home/build/bsp/optee_os/lib/libutee/tee_api.c:742
    3224:	a8c27bfd 	ldp	x29, x30, [sp], #32
/home/build/bsp/optee_os/lib/libutee/tee_api.c:721
    3228:	d2800022 	mov	x2, #0x1                   	// #1
    322c:	d2800001 	mov	x1, #0x0                   	// #0
    3230:	d2800000 	mov	x0, #0x0                   	// #0
    3234:	14002576 	b	c80c <raw_calloc>
/home/build/bsp/optee_os/lib/libutee/tee_api.c:724
    3238:	b40001e2 	cbz	x2, 3274 <TEE_Malloc+0x114>
/home/build/bsp/optee_os/lib/libutee/tee_api.c:726
    323c:	f0000060 	adrp	x0, 12000 <_DYNAMIC>
    3240:	f940d800 	ldr	x0, [x0, #432]
    3244:	f9400004 	ldr	x4, [x0]
    3248:	b4fffc64 	cbz	x4, 31d4 <TEE_Malloc+0x74>
/home/build/bsp/optee_os/lib/libutee/tee_api.c:742
    324c:	f9400bf3 	ldr	x19, [sp, #16]
/home/build/bsp/optee_os/lib/libutee/tee_api.c:728
    3250:	aa0403e3 	mov	x3, x4
/home/build/bsp/optee_os/lib/libutee/tee_api.c:742
    3254:	a8c27bfd 	ldp	x29, x30, [sp], #32
/home/build/bsp/optee_os/lib/libutee/tee_api.c:728
    3258:	d2800001 	mov	x1, #0x0                   	// #0
    325c:	d2800000 	mov	x0, #0x0                   	// #0
    3260:	14002563 	b	c7ec <raw_malloc>
/home/build/bsp/optee_os/lib/libutee/tee_api.c:731
    3264:	b40000c0 	cbz	x0, 327c <TEE_Malloc+0x11c>
/home/build/bsp/optee_os/lib/libutee/tee_api.c:742
    3268:	f9400bf3 	ldr	x19, [sp, #16]
    326c:	a8c27bfd 	ldp	x29, x30, [sp], #32
/home/build/bsp/optee_os/lib/libutee/tee_api.c:733
    3270:	140025c0 	b	c970 <malloc>
/home/build/bsp/optee_os/lib/libutee/tee_api.c:718
    3274:	d2800044 	mov	x4, #0x2                   	// #2
    3278:	17ffffd7 	b	31d4 <TEE_Malloc+0x74>
/home/build/bsp/optee_os/lib/libutee/tee_api.c:709
    327c:	d2800024 	mov	x4, #0x1                   	// #1
    3280:	17ffffd5 	b	31d4 <TEE_Malloc+0x74>

0000000000003284 <__GP11_TEE_Malloc>:
__GP11_TEE_Malloc():
/home/build/bsp/optee_os/lib/libutee/tee_api.c:746
    3284:	2a0003e0 	mov	w0, w0
    3288:	17ffffb6 	b	3160 <TEE_Malloc>

000000000000328c <TEE_Free>:
TEE_Free():
/home/build/bsp/optee_os/lib/libutee/tee_api.c:791
    328c:	d1000401 	sub	x1, x0, #0x1
    3290:	f100043f 	cmp	x1, #0x1
    3294:	540002a9 	b.ls	32e8 <TEE_Free+0x5c>  // b.plast
/home/build/bsp/optee_os/lib/libutee/tee_api.c:790
    3298:	a9be7bfd 	stp	x29, x30, [sp, #-32]!
addr_is_in_no_share_heap():
/home/build/bsp/optee_os/lib/libutee/tee_api.c:751
    329c:	d2800021 	mov	x1, #0x1                   	// #1
TEE_Free():
/home/build/bsp/optee_os/lib/libutee/tee_api.c:790
    32a0:	910003fd 	mov	x29, sp
    32a4:	f9000bf3 	str	x19, [sp, #16]
    32a8:	aa0003f3 	mov	x19, x0
addr_is_in_no_share_heap():
/home/build/bsp/optee_os/lib/libutee/tee_api.c:751
    32ac:	97fffc7b 	bl	2498 <buf_overlaps_no_share_heap>
TEE_Free():
/home/build/bsp/optee_os/lib/libutee/tee_api.c:793
    32b0:	72001c1f 	tst	w0, #0xff
    32b4:	54000120 	b.eq	32d8 <TEE_Free+0x4c>  // b.none
/home/build/bsp/optee_os/lib/libutee/tee_api.c:794
    32b8:	f0000060 	adrp	x0, 12000 <_DYNAMIC>
    32bc:	52800002 	mov	w2, #0x0                   	// #0
    32c0:	f940d800 	ldr	x0, [x0, #432]
    32c4:	f9400001 	ldr	x1, [x0]
    32c8:	aa1303e0 	mov	x0, x19
/home/build/bsp/optee_os/lib/libutee/tee_api.c:798
    32cc:	f9400bf3 	ldr	x19, [sp, #16]
    32d0:	a8c27bfd 	ldp	x29, x30, [sp], #32
/home/build/bsp/optee_os/lib/libutee/tee_api.c:794
    32d4:	1400254a 	b	c7fc <raw_free>
/home/build/bsp/optee_os/lib/libutee/tee_api.c:796
    32d8:	aa1303e0 	mov	x0, x19
/home/build/bsp/optee_os/lib/libutee/tee_api.c:798
    32dc:	f9400bf3 	ldr	x19, [sp, #16]
    32e0:	a8c27bfd 	ldp	x29, x30, [sp], #32
/home/build/bsp/optee_os/lib/libutee/tee_api.c:796
    32e4:	140025c3 	b	c9f0 <free>
    32e8:	d65f03c0 	ret

00000000000032ec <TEE_Realloc>:
TEE_Realloc():
/home/build/bsp/optee_os/lib/libutee/tee_api.c:755
    32ec:	a9bd7bfd 	stp	x29, x30, [sp, #-48]!
    32f0:	910003fd 	mov	x29, sp
    32f4:	a90153f3 	stp	x19, x20, [sp, #16]
    32f8:	aa0003f3 	mov	x19, x0
    32fc:	f90013f5 	str	x21, [sp, #32]
/home/build/bsp/optee_os/lib/libutee/tee_api.c:756
    3300:	b50001a1 	cbnz	x1, 3334 <TEE_Realloc+0x48>
addr_is_in_no_share_heap():
/home/build/bsp/optee_os/lib/libutee/tee_api.c:751
    3304:	d2800021 	mov	x1, #0x1                   	// #1
    3308:	97fffc64 	bl	2498 <buf_overlaps_no_share_heap>
TEE_Realloc():
/home/build/bsp/optee_os/lib/libutee/tee_api.c:762
    330c:	72001c1f 	tst	w0, #0xff
/home/build/bsp/optee_os/lib/libutee/tee_api.c:764
    3310:	aa1303e0 	mov	x0, x19
/home/build/bsp/optee_os/lib/libutee/tee_api.c:762
    3314:	9a9f07f4 	cset	x20, ne  // ne = any
    3318:	91000694 	add	x20, x20, #0x1
/home/build/bsp/optee_os/lib/libutee/tee_api.c:764
    331c:	97ffffdc 	bl	328c <TEE_Free>
/home/build/bsp/optee_os/lib/libutee/tee_api.c:782
    3320:	aa1403e0 	mov	x0, x20
    3324:	a94153f3 	ldp	x19, x20, [sp, #16]
    3328:	f94013f5 	ldr	x21, [sp, #32]
    332c:	a8c37bfd 	ldp	x29, x30, [sp], #48
    3330:	d65f03c0 	ret
/home/build/bsp/optee_os/lib/libutee/tee_api.c:769
    3334:	f100041f 	cmp	x0, #0x1
    3338:	540000a1 	b.ne	334c <TEE_Realloc+0x60>  // b.any
/home/build/bsp/optee_os/lib/libutee/tee_api.c:782
    333c:	a94153f3 	ldp	x19, x20, [sp, #16]
    3340:	f94013f5 	ldr	x21, [sp, #32]
    3344:	a8c37bfd 	ldp	x29, x30, [sp], #48
/home/build/bsp/optee_os/lib/libutee/tee_api.c:770
    3348:	14002590 	b	c988 <calloc>
    334c:	aa0103f5 	mov	x21, x1
/home/build/bsp/optee_os/lib/libutee/tee_api.c:771
    3350:	f100081f 	cmp	x0, #0x2
    3354:	540001c1 	b.ne	338c <TEE_Realloc+0xa0>  // b.any
/home/build/bsp/optee_os/lib/libutee/tee_api.c:772
    3358:	f0000060 	adrp	x0, 12000 <_DYNAMIC>
    335c:	f940d800 	ldr	x0, [x0, #432]
    3360:	f9400014 	ldr	x20, [x0]
    3364:	b4fffdf4 	cbz	x20, 3320 <TEE_Realloc+0x34>
/home/build/bsp/optee_os/lib/libutee/tee_api.c:774
    3368:	aa1403e4 	mov	x4, x20
    336c:	aa0103e3 	mov	x3, x1
/home/build/bsp/optee_os/lib/libutee/tee_api.c:782
    3370:	a94153f3 	ldp	x19, x20, [sp, #16]
/home/build/bsp/optee_os/lib/libutee/tee_api.c:774
    3374:	d2800022 	mov	x2, #0x1                   	// #1
/home/build/bsp/optee_os/lib/libutee/tee_api.c:782
    3378:	f94013f5 	ldr	x21, [sp, #32]
/home/build/bsp/optee_os/lib/libutee/tee_api.c:774
    337c:	d2800001 	mov	x1, #0x0                   	// #0
/home/build/bsp/optee_os/lib/libutee/tee_api.c:782
    3380:	a8c37bfd 	ldp	x29, x30, [sp], #48
/home/build/bsp/optee_os/lib/libutee/tee_api.c:774
    3384:	d2800000 	mov	x0, #0x0                   	// #0
    3388:	14002521 	b	c80c <raw_calloc>
addr_is_in_no_share_heap():
/home/build/bsp/optee_os/lib/libutee/tee_api.c:751
    338c:	d2800021 	mov	x1, #0x1                   	// #1
    3390:	97fffc42 	bl	2498 <buf_overlaps_no_share_heap>
TEE_Realloc():
/home/build/bsp/optee_os/lib/libutee/tee_api.c:777
    3394:	72001c1f 	tst	w0, #0xff
    3398:	54000180 	b.eq	33c8 <TEE_Realloc+0xdc>  // b.none
/home/build/bsp/optee_os/lib/libutee/tee_api.c:778
    339c:	f0000060 	adrp	x0, 12000 <_DYNAMIC>
    33a0:	aa1503e3 	mov	x3, x21
/home/build/bsp/optee_os/lib/libutee/tee_api.c:782
    33a4:	f94013f5 	ldr	x21, [sp, #32]
/home/build/bsp/optee_os/lib/libutee/tee_api.c:778
    33a8:	d2800002 	mov	x2, #0x0                   	// #0
    33ac:	f940d800 	ldr	x0, [x0, #432]
    33b0:	d2800001 	mov	x1, #0x0                   	// #0
    33b4:	f9400004 	ldr	x4, [x0]
    33b8:	aa1303e0 	mov	x0, x19
/home/build/bsp/optee_os/lib/libutee/tee_api.c:782
    33bc:	a94153f3 	ldp	x19, x20, [sp, #16]
    33c0:	a8c37bfd 	ldp	x29, x30, [sp], #48
/home/build/bsp/optee_os/lib/libutee/tee_api.c:778
    33c4:	1400252e 	b	c87c <raw_realloc>
/home/build/bsp/optee_os/lib/libutee/tee_api.c:781
    33c8:	aa1503e1 	mov	x1, x21
    33cc:	aa1303e0 	mov	x0, x19
/home/build/bsp/optee_os/lib/libutee/tee_api.c:782
    33d0:	a94153f3 	ldp	x19, x20, [sp, #16]
    33d4:	f94013f5 	ldr	x21, [sp, #32]
    33d8:	a8c37bfd 	ldp	x29, x30, [sp], #48
/home/build/bsp/optee_os/lib/libutee/tee_api.c:781
    33dc:	14002572 	b	c9a4 <realloc>

00000000000033e0 <__GP11_TEE_Realloc>:
__GP11_TEE_Realloc():
/home/build/bsp/optee_os/lib/libutee/tee_api.c:786
    33e0:	2a0103e1 	mov	w1, w1
    33e4:	17ffffc2 	b	32ec <TEE_Realloc>

00000000000033e8 <TEE_CacheClean>:
TEE_CacheClean():
/home/build/bsp/optee_os/lib/libutee/tee_api.c:803
    33e8:	d2800002 	mov	x2, #0x0                   	// #0
    33ec:	17fffbc3 	b	22f8 <_utee_cache_operation>

00000000000033f0 <TEE_CacheFlush>:
TEE_CacheFlush():
/home/build/bsp/optee_os/lib/libutee/tee_api.c:807
    33f0:	d2800022 	mov	x2, #0x1                   	// #1
    33f4:	17fffbc1 	b	22f8 <_utee_cache_operation>

00000000000033f8 <TEE_CacheInvalidate>:
TEE_CacheInvalidate():
/home/build/bsp/optee_os/lib/libutee/tee_api.c:812
    33f8:	d2800042 	mov	x2, #0x2                   	// #2
    33fc:	17fffbbf 	b	22f8 <_utee_cache_operation>

0000000000003400 <api_panic>:
api_panic():
/home/build/bsp/optee_os/lib/libutee/tee_api_arith_mpi.c:19
    3400:	a9bf7bfd 	stp	x29, x30, [sp, #-16]!
/home/build/bsp/optee_os/lib/libutee/tee_api_arith_mpi.c:20
    3404:	aa0203e3 	mov	x3, x2
    3408:	2a0103e2 	mov	w2, w1
    340c:	aa0003e1 	mov	x1, x0
/home/build/bsp/optee_os/lib/libutee/tee_api_arith_mpi.c:19
    3410:	910003fd 	mov	x29, sp
/home/build/bsp/optee_os/lib/libutee/tee_api_arith_mpi.c:20
    3414:	b0000060 	adrp	x0, 10000 <__func__.0+0x28>
    3418:	911eb000 	add	x0, x0, #0x7ac
    341c:	97fff84e 	bl	1554 <printf>
/home/build/bsp/optee_os/lib/libutee/tee_api_arith_mpi.c:21
    3420:	528c24e0 	mov	w0, #0x6127                	// #24871
    3424:	72a01620 	movk	w0, #0xb1, lsl #16
    3428:	94000857 	bl	5584 <TEE_Panic>
/home/build/bsp/optee_os/lib/libutee/tee_api_arith_mpi.c:22 (discriminator 1)
    342c:	14000000 	b	342c <api_panic+0x2c>

0000000000003430 <mpi_panic>:
mpi_panic():
/home/build/bsp/optee_os/lib/libutee/tee_api_arith_mpi.c:29
    3430:	a9bf7bfd 	stp	x29, x30, [sp, #-16]!
/home/build/bsp/optee_os/lib/libutee/tee_api_arith_mpi.c:30
    3434:	2a0203e3 	mov	w3, w2
    3438:	2a0103e2 	mov	w2, w1
    343c:	aa0003e1 	mov	x1, x0
/home/build/bsp/optee_os/lib/libutee/tee_api_arith_mpi.c:29
    3440:	910003fd 	mov	x29, sp
/home/build/bsp/optee_os/lib/libutee/tee_api_arith_mpi.c:30
    3444:	b0000060 	adrp	x0, 10000 <__func__.0+0x28>
    3448:	911f3000 	add	x0, x0, #0x7cc
    344c:	97fff842 	bl	1554 <printf>
/home/build/bsp/optee_os/lib/libutee/tee_api_arith_mpi.c:31
    3450:	528c24e0 	mov	w0, #0x6127                	// #24871
    3454:	72a01620 	movk	w0, #0xb1, lsl #16
    3458:	9400084b 	bl	5584 <TEE_Panic>
/home/build/bsp/optee_os/lib/libutee/tee_api_arith_mpi.c:32 (discriminator 1)
    345c:	14000000 	b	345c <mpi_panic+0x2c>

0000000000003460 <get_mpi>:
get_mpi():
/home/build/bsp/optee_os/lib/libutee/tee_api_arith_mpi.c:86
    3460:	a9bd7bfd 	stp	x29, x30, [sp, #-48]!
    3464:	910003fd 	mov	x29, sp
    3468:	a90153f3 	stp	x19, x20, [sp, #16]
    346c:	aa0103f3 	mov	x19, x1
    3470:	a9025bf5 	stp	x21, x22, [sp, #32]
    3474:	aa0003f5 	mov	x21, x0
/home/build/bsp/optee_os/lib/libutee/tee_api_arith_mpi.c:101
    3478:	94000f38 	bl	7158 <mbedtls_mpi_init_mempool>
/home/build/bsp/optee_os/lib/libutee/tee_api_arith_mpi.c:103
    347c:	b4000373 	cbz	x19, 34e8 <get_mpi+0x88>
/home/build/bsp/optee_os/lib/libutee/tee_api_arith_mpi.c:106
    3480:	79400e74 	ldrh	w20, [x19, #6]
/home/build/bsp/optee_os/lib/libutee/tee_api_arith_mpi.c:105
    3484:	91002276 	add	x22, x19, #0x8
/home/build/bsp/optee_os/lib/libutee/tee_api_arith_mpi.c:109
    3488:	91001261 	add	x1, x19, #0x4
    348c:	b4000074 	cbz	x20, 3498 <get_mpi+0x38>
/home/build/bsp/optee_os/lib/libutee/tee_api_arith_mpi.c:109 (discriminator 1)
    3490:	b8747820 	ldr	w0, [x1, x20, lsl #2]
    3494:	34000140 	cbz	w0, 34bc <get_mpi+0x5c>
/home/build/bsp/optee_os/lib/libutee/tee_api_arith_mpi.c:112
    3498:	aa1403e1 	mov	x1, x20
    349c:	aa1503e0 	mov	x0, x21
    34a0:	94000f53 	bl	71ec <mbedtls_mpi_grow>
    34a4:	2a0003e2 	mov	w2, w0
    34a8:	340000e0 	cbz	w0, 34c4 <get_mpi+0x64>
/home/build/bsp/optee_os/lib/libutee/tee_api_arith_mpi.c:112 (discriminator 1)
    34ac:	b0000060 	adrp	x0, 10000 <__func__.0+0x28>
    34b0:	52800e01 	mov	w1, #0x70                  	// #112
    34b4:	9121d400 	add	x0, x0, #0x875
    34b8:	97ffffde 	bl	3430 <mpi_panic>
/home/build/bsp/optee_os/lib/libutee/tee_api_arith_mpi.c:110
    34bc:	d1000694 	sub	x20, x20, #0x1
    34c0:	17fffff3 	b	348c <get_mpi+0x2c>
/home/build/bsp/optee_os/lib/libutee/tee_api_arith_mpi.c:113 (discriminator 2)
    34c4:	b9400260 	ldr	w0, [x19]
/home/build/bsp/optee_os/lib/libutee/tee_api_arith_mpi.c:114 (discriminator 2)
    34c8:	d37ef682 	lsl	x2, x20, #2
/home/build/bsp/optee_os/lib/libutee/tee_api_arith_mpi.c:116 (discriminator 2)
    34cc:	a94153f3 	ldp	x19, x20, [sp, #16]
/home/build/bsp/optee_os/lib/libutee/tee_api_arith_mpi.c:113 (discriminator 2)
    34d0:	b90002a0 	str	w0, [x21]
/home/build/bsp/optee_os/lib/libutee/tee_api_arith_mpi.c:114 (discriminator 2)
    34d4:	aa1603e1 	mov	x1, x22
    34d8:	f9400aa0 	ldr	x0, [x21, #16]
/home/build/bsp/optee_os/lib/libutee/tee_api_arith_mpi.c:116 (discriminator 2)
    34dc:	a9425bf5 	ldp	x21, x22, [sp, #32]
    34e0:	a8c37bfd 	ldp	x29, x30, [sp], #48
/home/build/bsp/optee_os/lib/libutee/tee_api_arith_mpi.c:114 (discriminator 2)
    34e4:	17fff2c7 	b	0 <memcpy>
/home/build/bsp/optee_os/lib/libutee/tee_api_arith_mpi.c:116
    34e8:	a94153f3 	ldp	x19, x20, [sp, #16]
    34ec:	a9425bf5 	ldp	x21, x22, [sp, #32]
    34f0:	a8c37bfd 	ldp	x29, x30, [sp], #48
    34f4:	d65f03c0 	ret

00000000000034f8 <copy_mpi_to_bigint>:
copy_mpi_to_bigint():
/home/build/bsp/optee_os/lib/libutee/tee_api_arith_mpi.c:61
    34f8:	aa0003e4 	mov	x4, x0
    34fc:	aa0103e0 	mov	x0, x1
/home/build/bsp/optee_os/lib/libutee/tee_api_arith_mpi.c:66
    3500:	a9408482 	ldp	x2, x1, [x4, #8]
/home/build/bsp/optee_os/lib/libutee/tee_api_arith_mpi.c:63
    3504:	aa0203e3 	mov	x3, x2
/home/build/bsp/optee_os/lib/libutee/tee_api_arith_mpi.c:66
    3508:	b40000e3 	cbz	x3, 3524 <copy_mpi_to_bigint+0x2c>
/home/build/bsp/optee_os/lib/libutee/tee_api_arith_mpi.c:66 (discriminator 1)
    350c:	8b030825 	add	x5, x1, x3, lsl #2
    3510:	b85fc0a5 	ldur	w5, [x5, #-4]
    3514:	340001c5 	cbz	w5, 354c <copy_mpi_to_bigint+0x54>
/home/build/bsp/optee_os/lib/libutee/tee_api_arith_mpi.c:69
    3518:	79400805 	ldrh	w5, [x0, #4]
    351c:	eb0300bf 	cmp	x5, x3
    3520:	540001a3 	b.cc	3554 <copy_mpi_to_bigint+0x5c>  // b.lo, b.ul, b.last
/home/build/bsp/optee_os/lib/libutee/tee_api_arith_mpi.c:61
    3524:	a9bf7bfd 	stp	x29, x30, [sp, #-16]!
/home/build/bsp/optee_os/lib/libutee/tee_api_arith_mpi.c:74
    3528:	d37ef442 	lsl	x2, x2, #2
/home/build/bsp/optee_os/lib/libutee/tee_api_arith_mpi.c:61
    352c:	910003fd 	mov	x29, sp
/home/build/bsp/optee_os/lib/libutee/tee_api_arith_mpi.c:72
    3530:	79000c03 	strh	w3, [x0, #6]
/home/build/bsp/optee_os/lib/libutee/tee_api_arith_mpi.c:73
    3534:	b9400083 	ldr	w3, [x4]
    3538:	b8008403 	str	w3, [x0], #8
/home/build/bsp/optee_os/lib/libutee/tee_api_arith_mpi.c:74
    353c:	97fff2b1 	bl	0 <memcpy>
/home/build/bsp/optee_os/lib/libutee/tee_api_arith_mpi.c:76
    3540:	52800000 	mov	w0, #0x0                   	// #0
/home/build/bsp/optee_os/lib/libutee/tee_api_arith_mpi.c:77
    3544:	a8c17bfd 	ldp	x29, x30, [sp], #16
    3548:	d65f03c0 	ret
/home/build/bsp/optee_os/lib/libutee/tee_api_arith_mpi.c:67
    354c:	d1000463 	sub	x3, x3, #0x1
    3550:	17ffffee 	b	3508 <copy_mpi_to_bigint+0x10>
/home/build/bsp/optee_os/lib/libutee/tee_api_arith_mpi.c:70
    3554:	1299fe00 	mov	w0, #0xffff300f            	// #-53233
/home/build/bsp/optee_os/lib/libutee/tee_api_arith_mpi.c:77
    3558:	d65f03c0 	ret

000000000000355c <bigint_binary>:
bigint_binary():
/home/build/bsp/optee_os/lib/libutee/tee_api_arith_mpi.c:402
    355c:	a9b47bfd 	stp	x29, x30, [sp, #-192]!
    3560:	f0000064 	adrp	x4, 12000 <_DYNAMIC>
    3564:	910003fd 	mov	x29, sp
    3568:	f9409884 	ldr	x4, [x4, #304]
    356c:	a90153f3 	stp	x19, x20, [sp, #16]
    3570:	aa0003f4 	mov	x20, x0
    3574:	a9025bf5 	stp	x21, x22, [sp, #32]
/home/build/bsp/optee_os/lib/libutee/tee_api_arith_mpi.c:409
    3578:	910163f3 	add	x19, sp, #0x58
/home/build/bsp/optee_os/lib/libutee/tee_api_arith_mpi.c:402
    357c:	aa0203f5 	mov	x21, x2
    3580:	a90363f7 	stp	x23, x24, [sp, #48]
    3584:	aa0103f7 	mov	x23, x1
/home/build/bsp/optee_os/lib/libutee/tee_api_arith_mpi.c:409
    3588:	aa1403e1 	mov	x1, x20
/home/build/bsp/optee_os/lib/libutee/tee_api_arith_mpi.c:402
    358c:	a9046bf9 	stp	x25, x26, [sp, #64]
    3590:	aa0303f9 	mov	x25, x3
    3594:	9101e3fa 	add	x26, sp, #0x78
    3598:	f9400080 	ldr	x0, [x4]
    359c:	f9005fe0 	str	x0, [sp, #184]
    35a0:	d2800000 	mov	x0, #0x0                   	// #0
/home/build/bsp/optee_os/lib/libutee/tee_api_arith_mpi.c:409
    35a4:	aa1303e0 	mov	x0, x19
    35a8:	97ffffae 	bl	3460 <get_mpi>
/home/build/bsp/optee_os/lib/libutee/tee_api_arith_mpi.c:411
    35ac:	eb17029f 	cmp	x20, x23
    35b0:	54000320 	b.eq	3614 <bigint_binary+0xb8>  // b.none
/home/build/bsp/optee_os/lib/libutee/tee_api_arith_mpi.c:406
    35b4:	aa1a03f6 	mov	x22, x26
/home/build/bsp/optee_os/lib/libutee/tee_api_arith_mpi.c:414
    35b8:	aa1703e1 	mov	x1, x23
    35bc:	aa1a03e0 	mov	x0, x26
    35c0:	97ffffa8 	bl	3460 <get_mpi>
/home/build/bsp/optee_os/lib/libutee/tee_api_arith_mpi.c:416
    35c4:	eb15029f 	cmp	x20, x21
    35c8:	910263f8 	add	x24, sp, #0x98
    35cc:	54000280 	b.eq	361c <bigint_binary+0xc0>  // b.none
/home/build/bsp/optee_os/lib/libutee/tee_api_arith_mpi.c:418
    35d0:	eb1502ff 	cmp	x23, x21
    35d4:	54000280 	b.eq	3624 <bigint_binary+0xc8>  // b.none
/home/build/bsp/optee_os/lib/libutee/tee_api_arith_mpi.c:421
    35d8:	aa1503e1 	mov	x1, x21
/home/build/bsp/optee_os/lib/libutee/tee_api_arith_mpi.c:407
    35dc:	aa1803f5 	mov	x21, x24
/home/build/bsp/optee_os/lib/libutee/tee_api_arith_mpi.c:421
    35e0:	aa1803e0 	mov	x0, x24
    35e4:	97ffff9f 	bl	3460 <get_mpi>
/home/build/bsp/optee_os/lib/libutee/tee_api_arith_mpi.c:423
    35e8:	aa1503e2 	mov	x2, x21
    35ec:	aa1603e1 	mov	x1, x22
    35f0:	aa1303e0 	mov	x0, x19
    35f4:	d63f0320 	blr	x25
    35f8:	2a0003e2 	mov	w2, w0
    35fc:	34000180 	cbz	w0, 362c <bigint_binary+0xd0>
/home/build/bsp/optee_os/lib/libutee/tee_api_arith_mpi.c:423 (discriminator 1)
    3600:	528034e1 	mov	w1, #0x1a7                 	// #423
/home/build/bsp/optee_os/lib/libutee/tee_api_arith_mpi.c:425 (discriminator 1)
    3604:	b0000060 	adrp	x0, 10000 <__func__.0+0x28>
    3608:	9121d400 	add	x0, x0, #0x875
    360c:	91002000 	add	x0, x0, #0x8
    3610:	97ffff88 	bl	3430 <mpi_panic>
/home/build/bsp/optee_os/lib/libutee/tee_api_arith_mpi.c:412
    3614:	aa1303f6 	mov	x22, x19
    3618:	17ffffeb 	b	35c4 <bigint_binary+0x68>
/home/build/bsp/optee_os/lib/libutee/tee_api_arith_mpi.c:417
    361c:	aa1303f5 	mov	x21, x19
    3620:	17fffff2 	b	35e8 <bigint_binary+0x8c>
/home/build/bsp/optee_os/lib/libutee/tee_api_arith_mpi.c:419
    3624:	aa1603f5 	mov	x21, x22
    3628:	17fffff0 	b	35e8 <bigint_binary+0x8c>
/home/build/bsp/optee_os/lib/libutee/tee_api_arith_mpi.c:425 (discriminator 2)
    362c:	aa1403e1 	mov	x1, x20
    3630:	aa1303e0 	mov	x0, x19
    3634:	97ffffb1 	bl	34f8 <copy_mpi_to_bigint>
    3638:	2a0003e2 	mov	w2, w0
    363c:	34000060 	cbz	w0, 3648 <bigint_binary+0xec>
/home/build/bsp/optee_os/lib/libutee/tee_api_arith_mpi.c:425 (discriminator 1)
    3640:	52803521 	mov	w1, #0x1a9                 	// #425
    3644:	17fffff0 	b	3604 <bigint_binary+0xa8>
/home/build/bsp/optee_os/lib/libutee/tee_api_arith_mpi.c:426 (discriminator 2)
    3648:	aa1303e0 	mov	x0, x19
    364c:	94000ecd 	bl	7180 <mbedtls_mpi_free>
/home/build/bsp/optee_os/lib/libutee/tee_api_arith_mpi.c:427 (discriminator 2)
    3650:	eb1a02df 	cmp	x22, x26
    3654:	54000061 	b.ne	3660 <bigint_binary+0x104>  // b.any
/home/build/bsp/optee_os/lib/libutee/tee_api_arith_mpi.c:428
    3658:	aa1603e0 	mov	x0, x22
    365c:	94000ec9 	bl	7180 <mbedtls_mpi_free>
/home/build/bsp/optee_os/lib/libutee/tee_api_arith_mpi.c:429
    3660:	eb1802bf 	cmp	x21, x24
    3664:	54000061 	b.ne	3670 <bigint_binary+0x114>  // b.any
/home/build/bsp/optee_os/lib/libutee/tee_api_arith_mpi.c:430
    3668:	aa1503e0 	mov	x0, x21
    366c:	94000ec5 	bl	7180 <mbedtls_mpi_free>
/home/build/bsp/optee_os/lib/libutee/tee_api_arith_mpi.c:431
    3670:	f0000064 	adrp	x4, 12000 <_DYNAMIC>
    3674:	f9409884 	ldr	x4, [x4, #304]
    3678:	f9405fe0 	ldr	x0, [sp, #184]
    367c:	f9400081 	ldr	x1, [x4]
    3680:	eb010000 	subs	x0, x0, x1
    3684:	d2800001 	mov	x1, #0x0                   	// #0
    3688:	54000040 	b.eq	3690 <bigint_binary+0x134>  // b.none
    368c:	97fff409 	bl	6b0 <__stack_chk_fail>
    3690:	a94153f3 	ldp	x19, x20, [sp, #16]
    3694:	a9425bf5 	ldp	x21, x22, [sp, #32]
    3698:	a94363f7 	ldp	x23, x24, [sp, #48]
    369c:	a9446bf9 	ldp	x25, x26, [sp, #64]
    36a0:	a8cc7bfd 	ldp	x29, x30, [sp], #192
    36a4:	d65f03c0 	ret

00000000000036a8 <mpi_is_odd>:
mpi_is_odd():
/home/build/bsp/optee_os/lib/libutee/tee_api_arith_mpi.c:674
    36a8:	a9bf7bfd 	stp	x29, x30, [sp, #-16]!
/home/build/bsp/optee_os/lib/libutee/tee_api_arith_mpi.c:675
    36ac:	d2800001 	mov	x1, #0x0                   	// #0
/home/build/bsp/optee_os/lib/libutee/tee_api_arith_mpi.c:674
    36b0:	910003fd 	mov	x29, sp
/home/build/bsp/optee_os/lib/libutee/tee_api_arith_mpi.c:675
    36b4:	94000fd9 	bl	7618 <mbedtls_mpi_get_bit>
    36b8:	7100001f 	cmp	w0, #0x0
/home/build/bsp/optee_os/lib/libutee/tee_api_arith_mpi.c:676
    36bc:	1a9f07e0 	cset	w0, ne  // ne = any
    36c0:	a8c17bfd 	ldp	x29, x30, [sp], #16
    36c4:	d65f03c0 	ret

00000000000036c8 <rng_read>:
rng_read():
/home/build/bsp/optee_os/lib/libutee/tee_api_arith_mpi.c:881
    36c8:	a9bf7bfd 	stp	x29, x30, [sp, #-16]!
    36cc:	aa0103e0 	mov	x0, x1
    36d0:	aa0203e1 	mov	x1, x2
    36d4:	910003fd 	mov	x29, sp
/home/build/bsp/optee_os/lib/libutee/tee_api_arith_mpi.c:882
    36d8:	97fffac6 	bl	21f0 <_utee_cryp_random_number_generate>
/home/build/bsp/optee_os/lib/libutee/tee_api_arith_mpi.c:883
    36dc:	7100001f 	cmp	w0, #0x0
/home/build/bsp/optee_os/lib/libutee/tee_api_arith_mpi.c:885
    36e0:	a8c17bfd 	ldp	x29, x30, [sp], #16
    36e4:	12800020 	mov	w0, #0xfffffffe            	// #-2
    36e8:	1a9f1000 	csel	w0, w0, wzr, ne  // ne = any
    36ec:	d65f03c0 	ret

00000000000036f0 <mpi_egcd>:
mpi_egcd():
/home/build/bsp/optee_os/lib/libutee/tee_api_arith_mpi.c:731
    36f0:	a9aa7bfd 	stp	x29, x30, [sp, #-352]!
    36f4:	910003fd 	mov	x29, sp
    36f8:	a9025bf5 	stp	x21, x22, [sp, #32]
    36fc:	aa0003f5 	mov	x21, x0
    3700:	f0000060 	adrp	x0, 12000 <_DYNAMIC>
    3704:	a90153f3 	stp	x19, x20, [sp, #16]
get_mpi():
/home/build/bsp/optee_os/lib/libutee/tee_api_arith_mpi.c:101
    3708:	9102e3f4 	add	x20, sp, #0xb8
    370c:	910363f3 	add	x19, sp, #0xd8
mpi_egcd():
/home/build/bsp/optee_os/lib/libutee/tee_api_arith_mpi.c:731
    3710:	f9409800 	ldr	x0, [x0, #304]
    3714:	a90363f7 	stp	x23, x24, [sp, #48]
get_mpi():
/home/build/bsp/optee_os/lib/libutee/tee_api_arith_mpi.c:101
    3718:	9101e3f8 	add	x24, sp, #0x78
mpi_egcd():
/home/build/bsp/optee_os/lib/libutee/tee_api_arith_mpi.c:731
    371c:	a9046bf9 	stp	x25, x26, [sp, #64]
get_mpi():
/home/build/bsp/optee_os/lib/libutee/tee_api_arith_mpi.c:101
    3720:	910263f7 	add	x23, sp, #0x98
    3724:	9103e3fa 	add	x26, sp, #0xf8
mpi_egcd():
/home/build/bsp/optee_os/lib/libutee/tee_api_arith_mpi.c:731
    3728:	a90573fb 	stp	x27, x28, [sp, #80]
    372c:	aa0103fb 	mov	x27, x1
    3730:	aa0303fc 	mov	x28, x3
    3734:	a90613e2 	stp	x2, x4, [sp, #96]
get_mpi():
/home/build/bsp/optee_os/lib/libutee/tee_api_arith_mpi.c:101
    3738:	910463f9 	add	x25, sp, #0x118
    373c:	9104e3f6 	add	x22, sp, #0x138
mpi_egcd():
/home/build/bsp/optee_os/lib/libutee/tee_api_arith_mpi.c:731
    3740:	f9400001 	ldr	x1, [x0]
    3744:	f900afe1 	str	x1, [sp, #344]
    3748:	d2800001 	mov	x1, #0x0                   	// #0
get_mpi():
/home/build/bsp/optee_os/lib/libutee/tee_api_arith_mpi.c:101
    374c:	aa1803e0 	mov	x0, x24
    3750:	94000e82 	bl	7158 <mbedtls_mpi_init_mempool>
    3754:	aa1703e0 	mov	x0, x23
    3758:	94000e80 	bl	7158 <mbedtls_mpi_init_mempool>
    375c:	aa1403e0 	mov	x0, x20
    3760:	94000e7e 	bl	7158 <mbedtls_mpi_init_mempool>
    3764:	aa1303e0 	mov	x0, x19
    3768:	94000e7c 	bl	7158 <mbedtls_mpi_init_mempool>
    376c:	aa1a03e0 	mov	x0, x26
    3770:	94000e7a 	bl	7158 <mbedtls_mpi_init_mempool>
    3774:	aa1903e0 	mov	x0, x25
    3778:	94000e78 	bl	7158 <mbedtls_mpi_init_mempool>
    377c:	aa1603e0 	mov	x0, x22
    3780:	94000e76 	bl	7158 <mbedtls_mpi_init_mempool>
mpi_egcd():
/home/build/bsp/optee_os/lib/libutee/tee_api_arith_mpi.c:750
    3784:	f94037e0 	ldr	x0, [sp, #104]
    3788:	52800001 	mov	w1, #0x0                   	// #0
    378c:	940010d0 	bl	7acc <mbedtls_mpi_cmp_int>
    3790:	35000320 	cbnz	w0, 37f4 <mpi_egcd+0x104>
/home/build/bsp/optee_os/lib/libutee/tee_api_arith_mpi.c:751
    3794:	aa1b03e0 	mov	x0, x27
    3798:	52800021 	mov	w1, #0x1                   	// #1
    379c:	94000f85 	bl	75b0 <mbedtls_mpi_lset>
    37a0:	2a0003e2 	mov	w2, w0
    37a4:	340000c0 	cbz	w0, 37bc <mpi_egcd+0xcc>
/home/build/bsp/optee_os/lib/libutee/tee_api_arith_mpi.c:751 (discriminator 1)
    37a8:	52805de1 	mov	w1, #0x2ef                 	// #751
/home/build/bsp/optee_os/lib/libutee/tee_api_arith_mpi.c:752 (discriminator 1)
    37ac:	b0000060 	adrp	x0, 10000 <__func__.0+0x28>
    37b0:	9121d400 	add	x0, x0, #0x875
    37b4:	91005800 	add	x0, x0, #0x16
    37b8:	97ffff1e 	bl	3430 <mpi_panic>
/home/build/bsp/optee_os/lib/libutee/tee_api_arith_mpi.c:752 (discriminator 2)
    37bc:	f94033e0 	ldr	x0, [sp, #96]
    37c0:	52800001 	mov	w1, #0x0                   	// #0
    37c4:	94000f7b 	bl	75b0 <mbedtls_mpi_lset>
    37c8:	2a0003e2 	mov	w2, w0
    37cc:	34000060 	cbz	w0, 37d8 <mpi_egcd+0xe8>
/home/build/bsp/optee_os/lib/libutee/tee_api_arith_mpi.c:752 (discriminator 1)
    37d0:	52805e01 	mov	w1, #0x2f0                 	// #752
    37d4:	17fffff6 	b	37ac <mpi_egcd+0xbc>
/home/build/bsp/optee_os/lib/libutee/tee_api_arith_mpi.c:753 (discriminator 2)
    37d8:	aa1c03e1 	mov	x1, x28
    37dc:	aa1503e0 	mov	x0, x21
    37e0:	94000f1e 	bl	7458 <mbedtls_mpi_copy>
    37e4:	2a0003e2 	mov	w2, w0
    37e8:	34002040 	cbz	w0, 3bf0 <mpi_egcd+0x500>
/home/build/bsp/optee_os/lib/libutee/tee_api_arith_mpi.c:753 (discriminator 1)
    37ec:	52805e21 	mov	w1, #0x2f1                 	// #753
    37f0:	17ffffef 	b	37ac <mpi_egcd+0xbc>
/home/build/bsp/optee_os/lib/libutee/tee_api_arith_mpi.c:757
    37f4:	aa1c03e1 	mov	x1, x28
    37f8:	aa1a03e0 	mov	x0, x26
    37fc:	94000f17 	bl	7458 <mbedtls_mpi_copy>
    3800:	2a0003e2 	mov	w2, w0
    3804:	34000060 	cbz	w0, 3810 <mpi_egcd+0x120>
/home/build/bsp/optee_os/lib/libutee/tee_api_arith_mpi.c:757 (discriminator 1)
    3808:	52805ea1 	mov	w1, #0x2f5                 	// #757
    380c:	17ffffe8 	b	37ac <mpi_egcd+0xbc>
/home/build/bsp/optee_os/lib/libutee/tee_api_arith_mpi.c:758 (discriminator 2)
    3810:	f94037e1 	ldr	x1, [sp, #104]
    3814:	aa1903e0 	mov	x0, x25
/home/build/bsp/optee_os/lib/libutee/tee_api_arith_mpi.c:760 (discriminator 2)
    3818:	5280001c 	mov	w28, #0x0                   	// #0
/home/build/bsp/optee_os/lib/libutee/tee_api_arith_mpi.c:758 (discriminator 2)
    381c:	94000f0f 	bl	7458 <mbedtls_mpi_copy>
    3820:	2a0003e2 	mov	w2, w0
    3824:	34000140 	cbz	w0, 384c <mpi_egcd+0x15c>
/home/build/bsp/optee_os/lib/libutee/tee_api_arith_mpi.c:758 (discriminator 1)
    3828:	52805ec1 	mov	w1, #0x2f6                 	// #758
    382c:	17ffffe0 	b	37ac <mpi_egcd+0xbc>
/home/build/bsp/optee_os/lib/libutee/tee_api_arith_mpi.c:764 (discriminator 2)
    3830:	aa1903e0 	mov	x0, x25
    3834:	d2800021 	mov	x1, #0x1                   	// #1
    3838:	9400103e 	bl	7930 <mbedtls_mpi_shift_r>
    383c:	2a0003e2 	mov	w2, w0
    3840:	34000060 	cbz	w0, 384c <mpi_egcd+0x15c>
/home/build/bsp/optee_os/lib/libutee/tee_api_arith_mpi.c:764 (discriminator 1)
    3844:	52805f81 	mov	w1, #0x2fc                 	// #764
    3848:	17ffffd9 	b	37ac <mpi_egcd+0xbc>
mpi_is_even():
/home/build/bsp/optee_os/lib/libutee/tee_api_arith_mpi.c:680 (discriminator 2)
    384c:	aa1a03e0 	mov	x0, x26
    3850:	97ffff96 	bl	36a8 <mpi_is_odd>
mpi_egcd():
/home/build/bsp/optee_os/lib/libutee/tee_api_arith_mpi.c:761 (discriminator 2)
    3854:	72001c1f 	tst	w0, #0xff
    3858:	54000100 	b.eq	3878 <mpi_egcd+0x188>  // b.none
/home/build/bsp/optee_os/lib/libutee/tee_api_arith_mpi.c:767
    385c:	aa1a03e1 	mov	x1, x26
    3860:	aa1603e0 	mov	x0, x22
    3864:	94000efd 	bl	7458 <mbedtls_mpi_copy>
    3868:	2a0003e2 	mov	w2, w0
    386c:	340001e0 	cbz	w0, 38a8 <mpi_egcd+0x1b8>
/home/build/bsp/optee_os/lib/libutee/tee_api_arith_mpi.c:767 (discriminator 1)
    3870:	52805fe1 	mov	w1, #0x2ff                 	// #767
    3874:	17ffffce 	b	37ac <mpi_egcd+0xbc>
mpi_is_even():
/home/build/bsp/optee_os/lib/libutee/tee_api_arith_mpi.c:680
    3878:	aa1903e0 	mov	x0, x25
    387c:	97ffff8b 	bl	36a8 <mpi_is_odd>
mpi_egcd():
/home/build/bsp/optee_os/lib/libutee/tee_api_arith_mpi.c:761
    3880:	72001c1f 	tst	w0, #0xff
    3884:	54fffec1 	b.ne	385c <mpi_egcd+0x16c>  // b.any
/home/build/bsp/optee_os/lib/libutee/tee_api_arith_mpi.c:763
    3888:	aa1a03e0 	mov	x0, x26
    388c:	d2800021 	mov	x1, #0x1                   	// #1
/home/build/bsp/optee_os/lib/libutee/tee_api_arith_mpi.c:762
    3890:	1100079c 	add	w28, w28, #0x1
/home/build/bsp/optee_os/lib/libutee/tee_api_arith_mpi.c:763
    3894:	94001027 	bl	7930 <mbedtls_mpi_shift_r>
    3898:	2a0003e2 	mov	w2, w0
    389c:	34fffca0 	cbz	w0, 3830 <mpi_egcd+0x140>
/home/build/bsp/optee_os/lib/libutee/tee_api_arith_mpi.c:763 (discriminator 1)
    38a0:	52805f61 	mov	w1, #0x2fb                 	// #763
    38a4:	17ffffc2 	b	37ac <mpi_egcd+0xbc>
/home/build/bsp/optee_os/lib/libutee/tee_api_arith_mpi.c:768 (discriminator 2)
    38a8:	aa1903e1 	mov	x1, x25
    38ac:	aa1503e0 	mov	x0, x21
    38b0:	94000eea 	bl	7458 <mbedtls_mpi_copy>
    38b4:	2a0003e2 	mov	w2, w0
    38b8:	34000060 	cbz	w0, 38c4 <mpi_egcd+0x1d4>
/home/build/bsp/optee_os/lib/libutee/tee_api_arith_mpi.c:768 (discriminator 1)
    38bc:	52806001 	mov	w1, #0x300                 	// #768
    38c0:	17ffffbb 	b	37ac <mpi_egcd+0xbc>
/home/build/bsp/optee_os/lib/libutee/tee_api_arith_mpi.c:769 (discriminator 2)
    38c4:	aa1803e0 	mov	x0, x24
    38c8:	52800021 	mov	w1, #0x1                   	// #1
    38cc:	94000f39 	bl	75b0 <mbedtls_mpi_lset>
    38d0:	2a0003e2 	mov	w2, w0
    38d4:	34000060 	cbz	w0, 38e0 <mpi_egcd+0x1f0>
/home/build/bsp/optee_os/lib/libutee/tee_api_arith_mpi.c:769 (discriminator 1)
    38d8:	52806021 	mov	w1, #0x301                 	// #769
    38dc:	17ffffb4 	b	37ac <mpi_egcd+0xbc>
/home/build/bsp/optee_os/lib/libutee/tee_api_arith_mpi.c:770 (discriminator 2)
    38e0:	aa1703e0 	mov	x0, x23
    38e4:	52800001 	mov	w1, #0x0                   	// #0
    38e8:	94000f32 	bl	75b0 <mbedtls_mpi_lset>
    38ec:	2a0003e2 	mov	w2, w0
    38f0:	34000060 	cbz	w0, 38fc <mpi_egcd+0x20c>
/home/build/bsp/optee_os/lib/libutee/tee_api_arith_mpi.c:770 (discriminator 1)
    38f4:	52806041 	mov	w1, #0x302                 	// #770
    38f8:	17ffffad 	b	37ac <mpi_egcd+0xbc>
/home/build/bsp/optee_os/lib/libutee/tee_api_arith_mpi.c:771 (discriminator 2)
    38fc:	aa1403e0 	mov	x0, x20
    3900:	52800001 	mov	w1, #0x0                   	// #0
    3904:	94000f2b 	bl	75b0 <mbedtls_mpi_lset>
    3908:	2a0003e2 	mov	w2, w0
    390c:	34000060 	cbz	w0, 3918 <mpi_egcd+0x228>
/home/build/bsp/optee_os/lib/libutee/tee_api_arith_mpi.c:771 (discriminator 1)
    3910:	52806061 	mov	w1, #0x303                 	// #771
    3914:	17ffffa6 	b	37ac <mpi_egcd+0xbc>
/home/build/bsp/optee_os/lib/libutee/tee_api_arith_mpi.c:772 (discriminator 2)
    3918:	aa1303e0 	mov	x0, x19
    391c:	52800021 	mov	w1, #0x1                   	// #1
    3920:	94000f24 	bl	75b0 <mbedtls_mpi_lset>
    3924:	2a0003e2 	mov	w2, w0
    3928:	34001320 	cbz	w0, 3b8c <mpi_egcd+0x49c>
/home/build/bsp/optee_os/lib/libutee/tee_api_arith_mpi.c:772 (discriminator 1)
    392c:	52806081 	mov	w1, #0x304                 	// #772
    3930:	17ffff9f 	b	37ac <mpi_egcd+0xbc>
/home/build/bsp/optee_os/lib/libutee/tee_api_arith_mpi.c:776
    3934:	aa1603e0 	mov	x0, x22
    3938:	d2800021 	mov	x1, #0x1                   	// #1
    393c:	94000ffd 	bl	7930 <mbedtls_mpi_shift_r>
    3940:	2a0003e2 	mov	w2, w0
    3944:	34000060 	cbz	w0, 3950 <mpi_egcd+0x260>
/home/build/bsp/optee_os/lib/libutee/tee_api_arith_mpi.c:776 (discriminator 1)
    3948:	52806101 	mov	w1, #0x308                 	// #776
    394c:	17ffff98 	b	37ac <mpi_egcd+0xbc>
/home/build/bsp/optee_os/lib/libutee/tee_api_arith_mpi.c:777 (discriminator 2)
    3950:	aa1803e0 	mov	x0, x24
    3954:	97ffff55 	bl	36a8 <mpi_is_odd>
    3958:	72001c1f 	tst	w0, #0xff
    395c:	54000120 	b.eq	3980 <mpi_egcd+0x290>  // b.none
/home/build/bsp/optee_os/lib/libutee/tee_api_arith_mpi.c:778
    3960:	aa1903e2 	mov	x2, x25
    3964:	aa1803e1 	mov	x1, x24
    3968:	aa1803e0 	mov	x0, x24
    396c:	94001122 	bl	7df4 <mbedtls_mpi_add_mpi>
    3970:	2a0003e2 	mov	w2, w0
    3974:	340001c0 	cbz	w0, 39ac <mpi_egcd+0x2bc>
/home/build/bsp/optee_os/lib/libutee/tee_api_arith_mpi.c:778 (discriminator 1)
    3978:	52806141 	mov	w1, #0x30a                 	// #778
    397c:	17ffff8c 	b	37ac <mpi_egcd+0xbc>
/home/build/bsp/optee_os/lib/libutee/tee_api_arith_mpi.c:777 (discriminator 1)
    3980:	aa1703e0 	mov	x0, x23
    3984:	97ffff49 	bl	36a8 <mpi_is_odd>
    3988:	72001c1f 	tst	w0, #0xff
    398c:	54fffea1 	b.ne	3960 <mpi_egcd+0x270>  // b.any
/home/build/bsp/optee_os/lib/libutee/tee_api_arith_mpi.c:781
    3990:	aa1803e0 	mov	x0, x24
    3994:	d2800021 	mov	x1, #0x1                   	// #1
    3998:	94000fe6 	bl	7930 <mbedtls_mpi_shift_r>
    399c:	2a0003e2 	mov	w2, w0
    39a0:	34000160 	cbz	w0, 39cc <mpi_egcd+0x2dc>
/home/build/bsp/optee_os/lib/libutee/tee_api_arith_mpi.c:781 (discriminator 1)
    39a4:	528061a1 	mov	w1, #0x30d                 	// #781
    39a8:	17ffff81 	b	37ac <mpi_egcd+0xbc>
/home/build/bsp/optee_os/lib/libutee/tee_api_arith_mpi.c:779 (discriminator 2)
    39ac:	aa1a03e2 	mov	x2, x26
    39b0:	aa1703e1 	mov	x1, x23
    39b4:	aa1703e0 	mov	x0, x23
    39b8:	94001111 	bl	7dfc <mbedtls_mpi_sub_mpi>
    39bc:	2a0003e2 	mov	w2, w0
    39c0:	34fffe80 	cbz	w0, 3990 <mpi_egcd+0x2a0>
/home/build/bsp/optee_os/lib/libutee/tee_api_arith_mpi.c:779 (discriminator 1)
    39c4:	52806161 	mov	w1, #0x30b                 	// #779
    39c8:	17ffff79 	b	37ac <mpi_egcd+0xbc>
/home/build/bsp/optee_os/lib/libutee/tee_api_arith_mpi.c:782 (discriminator 2)
    39cc:	aa1703e0 	mov	x0, x23
    39d0:	d2800021 	mov	x1, #0x1                   	// #1
    39d4:	94000fd7 	bl	7930 <mbedtls_mpi_shift_r>
    39d8:	2a0003e2 	mov	w2, w0
    39dc:	34000060 	cbz	w0, 39e8 <mpi_egcd+0x2f8>
/home/build/bsp/optee_os/lib/libutee/tee_api_arith_mpi.c:782 (discriminator 1)
    39e0:	528061c1 	mov	w1, #0x30e                 	// #782
    39e4:	17ffff72 	b	37ac <mpi_egcd+0xbc>
mpi_is_even():
/home/build/bsp/optee_os/lib/libutee/tee_api_arith_mpi.c:680 (discriminator 2)
    39e8:	aa1603e0 	mov	x0, x22
    39ec:	97ffff2f 	bl	36a8 <mpi_is_odd>
mpi_egcd():
/home/build/bsp/optee_os/lib/libutee/tee_api_arith_mpi.c:775 (discriminator 2)
    39f0:	72001c1f 	tst	w0, #0xff
    39f4:	54fffa00 	b.eq	3934 <mpi_egcd+0x244>  // b.none
mpi_is_even():
/home/build/bsp/optee_os/lib/libutee/tee_api_arith_mpi.c:680 (discriminator 2)
    39f8:	aa1503e0 	mov	x0, x21
    39fc:	97ffff2b 	bl	36a8 <mpi_is_odd>
mpi_egcd():
/home/build/bsp/optee_os/lib/libutee/tee_api_arith_mpi.c:785 (discriminator 2)
    3a00:	72001c1f 	tst	w0, #0xff
    3a04:	540001a0 	b.eq	3a38 <mpi_egcd+0x348>  // b.none
/home/build/bsp/optee_os/lib/libutee/tee_api_arith_mpi.c:796
    3a08:	aa1503e1 	mov	x1, x21
    3a0c:	aa1603e0 	mov	x0, x22
    3a10:	94000ffb 	bl	79fc <mbedtls_mpi_cmp_mpi>
    3a14:	37f808c0 	tbnz	w0, #31, 3b2c <mpi_egcd+0x43c>
/home/build/bsp/optee_os/lib/libutee/tee_api_arith_mpi.c:797
    3a18:	aa1503e2 	mov	x2, x21
    3a1c:	aa1603e1 	mov	x1, x22
    3a20:	aa1603e0 	mov	x0, x22
    3a24:	940010f6 	bl	7dfc <mbedtls_mpi_sub_mpi>
    3a28:	2a0003e2 	mov	w2, w0
    3a2c:	34000600 	cbz	w0, 3aec <mpi_egcd+0x3fc>
/home/build/bsp/optee_os/lib/libutee/tee_api_arith_mpi.c:797 (discriminator 1)
    3a30:	528063a1 	mov	w1, #0x31d                 	// #797
    3a34:	17ffff5e 	b	37ac <mpi_egcd+0xbc>
/home/build/bsp/optee_os/lib/libutee/tee_api_arith_mpi.c:786
    3a38:	aa1503e0 	mov	x0, x21
    3a3c:	d2800021 	mov	x1, #0x1                   	// #1
    3a40:	94000fbc 	bl	7930 <mbedtls_mpi_shift_r>
    3a44:	2a0003e2 	mov	w2, w0
    3a48:	34000060 	cbz	w0, 3a54 <mpi_egcd+0x364>
/home/build/bsp/optee_os/lib/libutee/tee_api_arith_mpi.c:786 (discriminator 1)
    3a4c:	52806241 	mov	w1, #0x312                 	// #786
    3a50:	17ffff57 	b	37ac <mpi_egcd+0xbc>
/home/build/bsp/optee_os/lib/libutee/tee_api_arith_mpi.c:787 (discriminator 2)
    3a54:	aa1403e0 	mov	x0, x20
    3a58:	97ffff14 	bl	36a8 <mpi_is_odd>
    3a5c:	72001c1f 	tst	w0, #0xff
    3a60:	54000120 	b.eq	3a84 <mpi_egcd+0x394>  // b.none
/home/build/bsp/optee_os/lib/libutee/tee_api_arith_mpi.c:788
    3a64:	aa1903e2 	mov	x2, x25
    3a68:	aa1403e1 	mov	x1, x20
    3a6c:	aa1403e0 	mov	x0, x20
    3a70:	940010e1 	bl	7df4 <mbedtls_mpi_add_mpi>
    3a74:	2a0003e2 	mov	w2, w0
    3a78:	340001c0 	cbz	w0, 3ab0 <mpi_egcd+0x3c0>
/home/build/bsp/optee_os/lib/libutee/tee_api_arith_mpi.c:788 (discriminator 1)
    3a7c:	52806281 	mov	w1, #0x314                 	// #788
    3a80:	17ffff4b 	b	37ac <mpi_egcd+0xbc>
/home/build/bsp/optee_os/lib/libutee/tee_api_arith_mpi.c:787 (discriminator 1)
    3a84:	aa1303e0 	mov	x0, x19
    3a88:	97ffff08 	bl	36a8 <mpi_is_odd>
    3a8c:	72001c1f 	tst	w0, #0xff
    3a90:	54fffea1 	b.ne	3a64 <mpi_egcd+0x374>  // b.any
/home/build/bsp/optee_os/lib/libutee/tee_api_arith_mpi.c:791
    3a94:	aa1403e0 	mov	x0, x20
    3a98:	d2800021 	mov	x1, #0x1                   	// #1
    3a9c:	94000fa5 	bl	7930 <mbedtls_mpi_shift_r>
    3aa0:	2a0003e2 	mov	w2, w0
    3aa4:	34000160 	cbz	w0, 3ad0 <mpi_egcd+0x3e0>
/home/build/bsp/optee_os/lib/libutee/tee_api_arith_mpi.c:791 (discriminator 1)
    3aa8:	528062e1 	mov	w1, #0x317                 	// #791
    3aac:	17ffff40 	b	37ac <mpi_egcd+0xbc>
/home/build/bsp/optee_os/lib/libutee/tee_api_arith_mpi.c:789 (discriminator 2)
    3ab0:	aa1a03e2 	mov	x2, x26
    3ab4:	aa1303e1 	mov	x1, x19
    3ab8:	aa1303e0 	mov	x0, x19
    3abc:	940010d0 	bl	7dfc <mbedtls_mpi_sub_mpi>
    3ac0:	2a0003e2 	mov	w2, w0
    3ac4:	34fffe80 	cbz	w0, 3a94 <mpi_egcd+0x3a4>
/home/build/bsp/optee_os/lib/libutee/tee_api_arith_mpi.c:789 (discriminator 1)
    3ac8:	528062a1 	mov	w1, #0x315                 	// #789
    3acc:	17ffff38 	b	37ac <mpi_egcd+0xbc>
/home/build/bsp/optee_os/lib/libutee/tee_api_arith_mpi.c:792 (discriminator 2)
    3ad0:	aa1303e0 	mov	x0, x19
    3ad4:	d2800021 	mov	x1, #0x1                   	// #1
    3ad8:	94000f96 	bl	7930 <mbedtls_mpi_shift_r>
    3adc:	2a0003e2 	mov	w2, w0
    3ae0:	34fff8c0 	cbz	w0, 39f8 <mpi_egcd+0x308>
/home/build/bsp/optee_os/lib/libutee/tee_api_arith_mpi.c:792 (discriminator 1)
    3ae4:	52806301 	mov	w1, #0x318                 	// #792
    3ae8:	17ffff31 	b	37ac <mpi_egcd+0xbc>
/home/build/bsp/optee_os/lib/libutee/tee_api_arith_mpi.c:798 (discriminator 2)
    3aec:	aa1403e2 	mov	x2, x20
    3af0:	aa1803e1 	mov	x1, x24
    3af4:	aa1803e0 	mov	x0, x24
    3af8:	940010c1 	bl	7dfc <mbedtls_mpi_sub_mpi>
    3afc:	2a0003e2 	mov	w2, w0
    3b00:	34000060 	cbz	w0, 3b0c <mpi_egcd+0x41c>
/home/build/bsp/optee_os/lib/libutee/tee_api_arith_mpi.c:798 (discriminator 1)
    3b04:	528063c1 	mov	w1, #0x31e                 	// #798
    3b08:	17ffff29 	b	37ac <mpi_egcd+0xbc>
/home/build/bsp/optee_os/lib/libutee/tee_api_arith_mpi.c:799 (discriminator 2)
    3b0c:	aa1303e2 	mov	x2, x19
    3b10:	aa1703e1 	mov	x1, x23
    3b14:	aa1703e0 	mov	x0, x23
    3b18:	940010b9 	bl	7dfc <mbedtls_mpi_sub_mpi>
    3b1c:	2a0003e2 	mov	w2, w0
    3b20:	34000360 	cbz	w0, 3b8c <mpi_egcd+0x49c>
/home/build/bsp/optee_os/lib/libutee/tee_api_arith_mpi.c:799 (discriminator 1)
    3b24:	528063e1 	mov	w1, #0x31f                 	// #799
    3b28:	17ffff21 	b	37ac <mpi_egcd+0xbc>
/home/build/bsp/optee_os/lib/libutee/tee_api_arith_mpi.c:801
    3b2c:	aa1603e2 	mov	x2, x22
    3b30:	aa1503e1 	mov	x1, x21
    3b34:	aa1503e0 	mov	x0, x21
    3b38:	940010b1 	bl	7dfc <mbedtls_mpi_sub_mpi>
    3b3c:	2a0003e2 	mov	w2, w0
    3b40:	34000060 	cbz	w0, 3b4c <mpi_egcd+0x45c>
/home/build/bsp/optee_os/lib/libutee/tee_api_arith_mpi.c:801 (discriminator 1)
    3b44:	52806421 	mov	w1, #0x321                 	// #801
    3b48:	17ffff19 	b	37ac <mpi_egcd+0xbc>
/home/build/bsp/optee_os/lib/libutee/tee_api_arith_mpi.c:802 (discriminator 2)
    3b4c:	aa1803e2 	mov	x2, x24
    3b50:	aa1403e1 	mov	x1, x20
    3b54:	aa1403e0 	mov	x0, x20
    3b58:	940010a9 	bl	7dfc <mbedtls_mpi_sub_mpi>
    3b5c:	2a0003e2 	mov	w2, w0
    3b60:	34000060 	cbz	w0, 3b6c <mpi_egcd+0x47c>
/home/build/bsp/optee_os/lib/libutee/tee_api_arith_mpi.c:802 (discriminator 1)
    3b64:	52806441 	mov	w1, #0x322                 	// #802
    3b68:	17ffff11 	b	37ac <mpi_egcd+0xbc>
/home/build/bsp/optee_os/lib/libutee/tee_api_arith_mpi.c:803 (discriminator 2)
    3b6c:	aa1703e2 	mov	x2, x23
    3b70:	aa1303e1 	mov	x1, x19
    3b74:	aa1303e0 	mov	x0, x19
    3b78:	940010a1 	bl	7dfc <mbedtls_mpi_sub_mpi>
    3b7c:	2a0003e2 	mov	w2, w0
    3b80:	34000060 	cbz	w0, 3b8c <mpi_egcd+0x49c>
/home/build/bsp/optee_os/lib/libutee/tee_api_arith_mpi.c:803 (discriminator 1)
    3b84:	52806461 	mov	w1, #0x323                 	// #803
    3b88:	17ffff09 	b	37ac <mpi_egcd+0xbc>
/home/build/bsp/optee_os/lib/libutee/tee_api_arith_mpi.c:774 (discriminator 2)
    3b8c:	aa1603e0 	mov	x0, x22
    3b90:	52800001 	mov	w1, #0x0                   	// #0
    3b94:	94000fce 	bl	7acc <mbedtls_mpi_cmp_int>
    3b98:	35fff280 	cbnz	w0, 39e8 <mpi_egcd+0x2f8>
/home/build/bsp/optee_os/lib/libutee/tee_api_arith_mpi.c:807
    3b9c:	aa1403e1 	mov	x1, x20
    3ba0:	aa1b03e0 	mov	x0, x27
    3ba4:	94000e2d 	bl	7458 <mbedtls_mpi_copy>
    3ba8:	2a0003e2 	mov	w2, w0
    3bac:	34000060 	cbz	w0, 3bb8 <mpi_egcd+0x4c8>
/home/build/bsp/optee_os/lib/libutee/tee_api_arith_mpi.c:807 (discriminator 1)
    3bb0:	528064e1 	mov	w1, #0x327                 	// #807
    3bb4:	17fffefe 	b	37ac <mpi_egcd+0xbc>
/home/build/bsp/optee_os/lib/libutee/tee_api_arith_mpi.c:808 (discriminator 2)
    3bb8:	f94033e0 	ldr	x0, [sp, #96]
    3bbc:	aa1303e1 	mov	x1, x19
    3bc0:	94000e26 	bl	7458 <mbedtls_mpi_copy>
    3bc4:	2a0003e2 	mov	w2, w0
    3bc8:	34000060 	cbz	w0, 3bd4 <mpi_egcd+0x4e4>
/home/build/bsp/optee_os/lib/libutee/tee_api_arith_mpi.c:808 (discriminator 1)
    3bcc:	52806501 	mov	w1, #0x328                 	// #808
    3bd0:	17fffef7 	b	37ac <mpi_egcd+0xbc>
/home/build/bsp/optee_os/lib/libutee/tee_api_arith_mpi.c:809 (discriminator 2)
    3bd4:	2a1c03e1 	mov	w1, w28
    3bd8:	aa1503e0 	mov	x0, x21
    3bdc:	94000f11 	bl	7820 <mbedtls_mpi_shift_l>
    3be0:	2a0003e2 	mov	w2, w0
    3be4:	34000060 	cbz	w0, 3bf0 <mpi_egcd+0x500>
/home/build/bsp/optee_os/lib/libutee/tee_api_arith_mpi.c:809 (discriminator 1)
    3be8:	52806521 	mov	w1, #0x329                 	// #809
    3bec:	17fffef0 	b	37ac <mpi_egcd+0xbc>
/home/build/bsp/optee_os/lib/libutee/tee_api_arith_mpi.c:812
    3bf0:	aa1803e0 	mov	x0, x24
    3bf4:	94000d63 	bl	7180 <mbedtls_mpi_free>
/home/build/bsp/optee_os/lib/libutee/tee_api_arith_mpi.c:813
    3bf8:	aa1703e0 	mov	x0, x23
    3bfc:	94000d61 	bl	7180 <mbedtls_mpi_free>
/home/build/bsp/optee_os/lib/libutee/tee_api_arith_mpi.c:814
    3c00:	aa1403e0 	mov	x0, x20
    3c04:	94000d5f 	bl	7180 <mbedtls_mpi_free>
/home/build/bsp/optee_os/lib/libutee/tee_api_arith_mpi.c:815
    3c08:	aa1303e0 	mov	x0, x19
    3c0c:	94000d5d 	bl	7180 <mbedtls_mpi_free>
/home/build/bsp/optee_os/lib/libutee/tee_api_arith_mpi.c:816
    3c10:	aa1a03e0 	mov	x0, x26
    3c14:	94000d5b 	bl	7180 <mbedtls_mpi_free>
/home/build/bsp/optee_os/lib/libutee/tee_api_arith_mpi.c:817
    3c18:	aa1903e0 	mov	x0, x25
    3c1c:	94000d59 	bl	7180 <mbedtls_mpi_free>
/home/build/bsp/optee_os/lib/libutee/tee_api_arith_mpi.c:818
    3c20:	aa1603e0 	mov	x0, x22
    3c24:	94000d57 	bl	7180 <mbedtls_mpi_free>
/home/build/bsp/optee_os/lib/libutee/tee_api_arith_mpi.c:819
    3c28:	f0000060 	adrp	x0, 12000 <_DYNAMIC>
    3c2c:	f9409800 	ldr	x0, [x0, #304]
    3c30:	f940afe2 	ldr	x2, [sp, #344]
    3c34:	f9400001 	ldr	x1, [x0]
    3c38:	eb010042 	subs	x2, x2, x1
    3c3c:	d2800001 	mov	x1, #0x0                   	// #0
    3c40:	54000040 	b.eq	3c48 <mpi_egcd+0x558>  // b.none
    3c44:	97fff29b 	bl	6b0 <__stack_chk_fail>
    3c48:	a94153f3 	ldp	x19, x20, [sp, #16]
    3c4c:	a9425bf5 	ldp	x21, x22, [sp, #32]
    3c50:	a94363f7 	ldp	x23, x24, [sp, #48]
    3c54:	a9446bf9 	ldp	x25, x26, [sp, #64]
    3c58:	a94573fb 	ldp	x27, x28, [sp, #80]
    3c5c:	a8d67bfd 	ldp	x29, x30, [sp], #352
    3c60:	d65f03c0 	ret

0000000000003c64 <_TEE_MathAPI_Init>:
_TEE_MathAPI_Init():
/home/build/bsp/optee_os/lib/libutee/tee_api_arith_mpi.c:44
    3c64:	a9bf7bfd 	stp	x29, x30, [sp, #-16]!
/home/build/bsp/optee_os/lib/libutee/tee_api_arith_mpi.c:47
    3c68:	d2870001 	mov	x1, #0x3800                	// #14336
    3c6c:	d2800002 	mov	x2, #0x0                   	// #0
/home/build/bsp/optee_os/lib/libutee/tee_api_arith_mpi.c:44
    3c70:	910003fd 	mov	x29, sp
/home/build/bsp/optee_os/lib/libutee/tee_api_arith_mpi.c:47
    3c74:	f0000060 	adrp	x0, 12000 <_DYNAMIC>
    3c78:	911a4000 	add	x0, x0, #0x690
    3c7c:	940024b9 	bl	cf60 <mempool_alloc_pool>
    3c80:	f0000061 	adrp	x1, 12000 <_DYNAMIC>
    3c84:	f940ec21 	ldr	x1, [x1, #472]
    3c88:	f9000020 	str	x0, [x1]
/home/build/bsp/optee_os/lib/libutee/tee_api_arith_mpi.c:48
    3c8c:	b5000100 	cbnz	x0, 3cac <_TEE_MathAPI_Init+0x48>
/home/build/bsp/optee_os/lib/libutee/tee_api_arith_mpi.c:49
    3c90:	b0000060 	adrp	x0, 10000 <__func__.0+0x28>
    3c94:	9121d400 	add	x0, x0, #0x875
    3c98:	b0000062 	adrp	x2, 10000 <__func__.0+0x28>
    3c9c:	91007c00 	add	x0, x0, #0x1f
    3ca0:	911fc442 	add	x2, x2, #0x7f1
    3ca4:	52800621 	mov	w1, #0x31                  	// #49
    3ca8:	97fffdd6 	bl	3400 <api_panic>
/home/build/bsp/optee_os/lib/libutee/tee_api_arith_mpi.c:50
    3cac:	a8c17bfd 	ldp	x29, x30, [sp], #16
    3cb0:	d65f03c0 	ret

0000000000003cb4 <TEE_BigIntInit>:
TEE_BigIntInit():
/home/build/bsp/optee_os/lib/libutee/tee_api_arith_mpi.c:119
    3cb4:	a9be7bfd 	stp	x29, x30, [sp, #-32]!
/home/build/bsp/optee_os/lib/libutee/tee_api_arith_mpi.c:125
    3cb8:	d37ef422 	lsl	x2, x1, #2
/home/build/bsp/optee_os/lib/libutee/tee_api_arith_mpi.c:119
    3cbc:	910003fd 	mov	x29, sp
    3cc0:	a90153f3 	stp	x19, x20, [sp, #16]
    3cc4:	aa0003f4 	mov	x20, x0
    3cc8:	aa0103f3 	mov	x19, x1
/home/build/bsp/optee_os/lib/libutee/tee_api_arith_mpi.c:125
    3ccc:	52800001 	mov	w1, #0x0                   	// #0
    3cd0:	94002486 	bl	cee8 <memset>
/home/build/bsp/optee_os/lib/libutee/tee_api_arith_mpi.c:126
    3cd4:	52800020 	mov	w0, #0x1                   	// #1
    3cd8:	b9000280 	str	w0, [x20]
/home/build/bsp/optee_os/lib/libutee/tee_api_arith_mpi.c:129
    3cdc:	f108027f 	cmp	x19, #0x200
    3ce0:	54000109 	b.ls	3d00 <TEE_BigIntInit+0x4c>  // b.plast
/home/build/bsp/optee_os/lib/libutee/tee_api_arith_mpi.c:130
    3ce4:	b0000060 	adrp	x0, 10000 <__func__.0+0x28>
    3ce8:	9121d400 	add	x0, x0, #0x875
    3cec:	b0000062 	adrp	x2, 10000 <__func__.0+0x28>
    3cf0:	9100c400 	add	x0, x0, #0x31
    3cf4:	91204842 	add	x2, x2, #0x812
    3cf8:	52801041 	mov	w1, #0x82                  	// #130
    3cfc:	97fffdc1 	bl	3400 <api_panic>
/home/build/bsp/optee_os/lib/libutee/tee_api_arith_mpi.c:131
    3d00:	51000a73 	sub	w19, w19, #0x2
    3d04:	79000a93 	strh	w19, [x20, #4]
/home/build/bsp/optee_os/lib/libutee/tee_api_arith_mpi.c:132
    3d08:	a94153f3 	ldp	x19, x20, [sp, #16]
    3d0c:	a8c27bfd 	ldp	x29, x30, [sp], #32
    3d10:	d65f03c0 	ret

0000000000003d14 <__GP11_TEE_BigIntInit>:
__GP11_TEE_BigIntInit():
/home/build/bsp/optee_os/lib/libutee/tee_api_arith_mpi.c:136
    3d14:	2a0103e1 	mov	w1, w1
    3d18:	17ffffe7 	b	3cb4 <TEE_BigIntInit>

0000000000003d1c <TEE_BigIntConvertFromOctetString>:
TEE_BigIntConvertFromOctetString():
/home/build/bsp/optee_os/lib/libutee/tee_api_arith_mpi.c:142
    3d1c:	a9b97bfd 	stp	x29, x30, [sp, #-112]!
    3d20:	f0000064 	adrp	x4, 12000 <_DYNAMIC>
    3d24:	910003fd 	mov	x29, sp
    3d28:	f9409884 	ldr	x4, [x4, #304]
    3d2c:	a90153f3 	stp	x19, x20, [sp, #16]
get_mpi():
/home/build/bsp/optee_os/lib/libutee/tee_api_arith_mpi.c:101
    3d30:	910123f4 	add	x20, sp, #0x48
TEE_BigIntConvertFromOctetString():
/home/build/bsp/optee_os/lib/libutee/tee_api_arith_mpi.c:142
    3d34:	a9025bf5 	stp	x21, x22, [sp, #32]
    3d38:	aa0003f5 	mov	x21, x0
    3d3c:	aa0103f6 	mov	x22, x1
    3d40:	f9001bf7 	str	x23, [sp, #48]
    3d44:	2a0303f3 	mov	w19, w3
    3d48:	aa0203f7 	mov	x23, x2
    3d4c:	f9400080 	ldr	x0, [x4]
    3d50:	f90037e0 	str	x0, [sp, #104]
    3d54:	d2800000 	mov	x0, #0x0                   	// #0
get_mpi():
/home/build/bsp/optee_os/lib/libutee/tee_api_arith_mpi.c:101
    3d58:	aa1403e0 	mov	x0, x20
    3d5c:	94000cff 	bl	7158 <mbedtls_mpi_init_mempool>
TEE_BigIntConvertFromOctetString():
/home/build/bsp/optee_os/lib/libutee/tee_api_arith_mpi.c:148
    3d60:	aa1703e2 	mov	x2, x23
    3d64:	aa1603e1 	mov	x1, x22
    3d68:	aa1403e0 	mov	x0, x20
    3d6c:	94000e8e 	bl	77a4 <mbedtls_mpi_read_binary>
    3d70:	35000240 	cbnz	w0, 3db8 <TEE_BigIntConvertFromOctetString+0x9c>
/home/build/bsp/optee_os/lib/libutee/tee_api_arith_mpi.c:153
    3d74:	36f80073 	tbz	w19, #31, 3d80 <TEE_BigIntConvertFromOctetString+0x64>
/home/build/bsp/optee_os/lib/libutee/tee_api_arith_mpi.c:154
    3d78:	12800000 	mov	w0, #0xffffffff            	// #-1
    3d7c:	b9004be0 	str	w0, [sp, #72]
/home/build/bsp/optee_os/lib/libutee/tee_api_arith_mpi.c:157
    3d80:	aa1503e1 	mov	x1, x21
    3d84:	aa1403e0 	mov	x0, x20
    3d88:	97fffddc 	bl	34f8 <copy_mpi_to_bigint>
    3d8c:	2a0003f3 	mov	w19, w0
/home/build/bsp/optee_os/lib/libutee/tee_api_arith_mpi.c:159
    3d90:	aa1403e0 	mov	x0, x20
    3d94:	94000cfb 	bl	7180 <mbedtls_mpi_free>
/home/build/bsp/optee_os/lib/libutee/tee_api_arith_mpi.c:162
    3d98:	f0000064 	adrp	x4, 12000 <_DYNAMIC>
    3d9c:	f9409884 	ldr	x4, [x4, #304]
    3da0:	f94037e0 	ldr	x0, [sp, #104]
    3da4:	f9400081 	ldr	x1, [x4]
    3da8:	eb010000 	subs	x0, x0, x1
    3dac:	d2800001 	mov	x1, #0x0                   	// #0
    3db0:	540000e0 	b.eq	3dcc <TEE_BigIntConvertFromOctetString+0xb0>  // b.none
    3db4:	97fff23f 	bl	6b0 <__stack_chk_fail>
/home/build/bsp/optee_os/lib/libutee/tee_api_arith_mpi.c:153
    3db8:	36f80073 	tbz	w19, #31, 3dc4 <TEE_BigIntConvertFromOctetString+0xa8>
/home/build/bsp/optee_os/lib/libutee/tee_api_arith_mpi.c:154
    3dbc:	12800000 	mov	w0, #0xffffffff            	// #-1
    3dc0:	b9004be0 	str	w0, [sp, #72]
/home/build/bsp/optee_os/lib/libutee/tee_api_arith_mpi.c:153
    3dc4:	1299fe13 	mov	w19, #0xffff300f            	// #-53233
    3dc8:	17fffff2 	b	3d90 <TEE_BigIntConvertFromOctetString+0x74>
/home/build/bsp/optee_os/lib/libutee/tee_api_arith_mpi.c:162
    3dcc:	2a1303e0 	mov	w0, w19
    3dd0:	a94153f3 	ldp	x19, x20, [sp, #16]
    3dd4:	a9425bf5 	ldp	x21, x22, [sp, #32]
    3dd8:	f9401bf7 	ldr	x23, [sp, #48]
    3ddc:	a8c77bfd 	ldp	x29, x30, [sp], #112
    3de0:	d65f03c0 	ret

0000000000003de4 <__GP11_TEE_BigIntConvertFromOctetString>:
__GP11_TEE_BigIntConvertFromOctetString():
/home/build/bsp/optee_os/lib/libutee/tee_api_arith_mpi.c:169
    3de4:	2a0203e2 	mov	w2, w2
    3de8:	17ffffcd 	b	3d1c <TEE_BigIntConvertFromOctetString>

0000000000003dec <TEE_BigIntConvertToOctetString>:
TEE_BigIntConvertToOctetString():
/home/build/bsp/optee_os/lib/libutee/tee_api_arith_mpi.c:174
    3dec:	a9ba7bfd 	stp	x29, x30, [sp, #-96]!
    3df0:	f0000063 	adrp	x3, 12000 <_DYNAMIC>
    3df4:	910003fd 	mov	x29, sp
    3df8:	f9409863 	ldr	x3, [x3, #304]
    3dfc:	a90153f3 	stp	x19, x20, [sp, #16]
/home/build/bsp/optee_os/lib/libutee/tee_api_arith_mpi.c:179
    3e00:	9100e3f4 	add	x20, sp, #0x38
/home/build/bsp/optee_os/lib/libutee/tee_api_arith_mpi.c:174
    3e04:	a9025bf5 	stp	x21, x22, [sp, #32]
    3e08:	aa0103f5 	mov	x21, x1
    3e0c:	aa0203e1 	mov	x1, x2
    3e10:	aa0003f6 	mov	x22, x0
    3e14:	f9400060 	ldr	x0, [x3]
    3e18:	f9002fe0 	str	x0, [sp, #88]
    3e1c:	d2800000 	mov	x0, #0x0                   	// #0
/home/build/bsp/optee_os/lib/libutee/tee_api_arith_mpi.c:179
    3e20:	aa1403e0 	mov	x0, x20
    3e24:	97fffd8f 	bl	3460 <get_mpi>
/home/build/bsp/optee_os/lib/libutee/tee_api_arith_mpi.c:181
    3e28:	aa1403e0 	mov	x0, x20
    3e2c:	94000e40 	bl	772c <mbedtls_mpi_size>
    3e30:	aa0003f3 	mov	x19, x0
/home/build/bsp/optee_os/lib/libutee/tee_api_arith_mpi.c:182
    3e34:	f94002a0 	ldr	x0, [x21]
    3e38:	eb13001f 	cmp	x0, x19
    3e3c:	540001a3 	b.cc	3e70 <TEE_BigIntConvertToOctetString+0x84>  // b.lo, b.ul, b.last
/home/build/bsp/optee_os/lib/libutee/tee_api_arith_mpi.c:183
    3e40:	aa1303e2 	mov	x2, x19
    3e44:	aa1603e1 	mov	x1, x22
    3e48:	aa1403e0 	mov	x0, x20
/home/build/bsp/optee_os/lib/libutee/tee_api_arith_mpi.c:175
    3e4c:	52800016 	mov	w22, #0x0                   	// #0
/home/build/bsp/optee_os/lib/libutee/tee_api_arith_mpi.c:183
    3e50:	94000e70 	bl	7810 <mbedtls_mpi_write_binary>
    3e54:	2a0003e2 	mov	w2, w0
    3e58:	340000e0 	cbz	w0, 3e74 <TEE_BigIntConvertToOctetString+0x88>
/home/build/bsp/optee_os/lib/libutee/tee_api_arith_mpi.c:183 (discriminator 1)
    3e5c:	b0000060 	adrp	x0, 10000 <__func__.0+0x28>
    3e60:	9121d400 	add	x0, x0, #0x875
    3e64:	91010000 	add	x0, x0, #0x40
    3e68:	528016e1 	mov	w1, #0xb7                  	// #183
    3e6c:	97fffd71 	bl	3430 <mpi_panic>
/home/build/bsp/optee_os/lib/libutee/tee_api_arith_mpi.c:185
    3e70:	129ffdf6 	mov	w22, #0xffff0010            	// #-65520
/home/build/bsp/optee_os/lib/libutee/tee_api_arith_mpi.c:187
    3e74:	f90002b3 	str	x19, [x21]
/home/build/bsp/optee_os/lib/libutee/tee_api_arith_mpi.c:189
    3e78:	aa1403e0 	mov	x0, x20
    3e7c:	94000cc1 	bl	7180 <mbedtls_mpi_free>
/home/build/bsp/optee_os/lib/libutee/tee_api_arith_mpi.c:192
    3e80:	f0000063 	adrp	x3, 12000 <_DYNAMIC>
    3e84:	f9409863 	ldr	x3, [x3, #304]
    3e88:	f9402fe0 	ldr	x0, [sp, #88]
    3e8c:	f9400061 	ldr	x1, [x3]
    3e90:	eb010000 	subs	x0, x0, x1
    3e94:	d2800001 	mov	x1, #0x0                   	// #0
    3e98:	54000040 	b.eq	3ea0 <TEE_BigIntConvertToOctetString+0xb4>  // b.none
    3e9c:	97fff205 	bl	6b0 <__stack_chk_fail>
    3ea0:	2a1603e0 	mov	w0, w22
    3ea4:	a94153f3 	ldp	x19, x20, [sp, #16]
    3ea8:	a9425bf5 	ldp	x21, x22, [sp, #32]
    3eac:	a8c67bfd 	ldp	x29, x30, [sp], #96
    3eb0:	d65f03c0 	ret

0000000000003eb4 <__GP11_TEE_BigIntConvertToOctetString>:
__GP11_TEE_BigIntConvertToOctetString():
/home/build/bsp/optee_os/lib/libutee/tee_api_arith_mpi.c:197
    3eb4:	a9bd7bfd 	stp	x29, x30, [sp, #-48]!
    3eb8:	910003fd 	mov	x29, sp
    3ebc:	a90153f3 	stp	x19, x20, [sp, #16]
    3ec0:	f0000073 	adrp	x19, 12000 <_DYNAMIC>
    3ec4:	aa0103f4 	mov	x20, x1
    3ec8:	f9409a61 	ldr	x1, [x19, #304]
    3ecc:	f9400023 	ldr	x3, [x1]
    3ed0:	f90017e3 	str	x3, [sp, #40]
    3ed4:	d2800003 	mov	x3, #0x0                   	// #0
/home/build/bsp/optee_os/lib/libutee/tee_api_arith_mpi.c:199
    3ed8:	b9400281 	ldr	w1, [x20]
    3edc:	f90013e1 	str	x1, [sp, #32]
/home/build/bsp/optee_os/lib/libutee/tee_api_arith_mpi.c:201
    3ee0:	910083e1 	add	x1, sp, #0x20
    3ee4:	97ffffc2 	bl	3dec <TEE_BigIntConvertToOctetString>
/home/build/bsp/optee_os/lib/libutee/tee_api_arith_mpi.c:204
    3ee8:	f9409a73 	ldr	x19, [x19, #304]
/home/build/bsp/optee_os/lib/libutee/tee_api_arith_mpi.c:202
    3eec:	f94013e1 	ldr	x1, [sp, #32]
    3ef0:	b9000281 	str	w1, [x20]
/home/build/bsp/optee_os/lib/libutee/tee_api_arith_mpi.c:204
    3ef4:	f94017e1 	ldr	x1, [sp, #40]
    3ef8:	f9400262 	ldr	x2, [x19]
    3efc:	eb020021 	subs	x1, x1, x2
    3f00:	d2800002 	mov	x2, #0x0                   	// #0
    3f04:	54000040 	b.eq	3f0c <__GP11_TEE_BigIntConvertToOctetString+0x58>  // b.none
    3f08:	97fff1ea 	bl	6b0 <__stack_chk_fail>
    3f0c:	a94153f3 	ldp	x19, x20, [sp, #16]
    3f10:	a8c37bfd 	ldp	x29, x30, [sp], #48
    3f14:	d65f03c0 	ret

0000000000003f18 <TEE_BigIntConvertFromS32>:
TEE_BigIntConvertFromS32():
/home/build/bsp/optee_os/lib/libutee/tee_api_arith_mpi.c:207
    3f18:	a9ba7bfd 	stp	x29, x30, [sp, #-96]!
    3f1c:	910003fd 	mov	x29, sp
    3f20:	a90153f3 	stp	x19, x20, [sp, #16]
    3f24:	f0000073 	adrp	x19, 12000 <_DYNAMIC>
/home/build/bsp/optee_os/lib/libutee/tee_api_arith_mpi.c:210
    3f28:	9100e3f4 	add	x20, sp, #0x38
/home/build/bsp/optee_os/lib/libutee/tee_api_arith_mpi.c:207
    3f2c:	a9025bf5 	stp	x21, x22, [sp, #32]
    3f30:	aa0003f5 	mov	x21, x0
    3f34:	2a0103f6 	mov	w22, w1
    3f38:	f9409a60 	ldr	x0, [x19, #304]
    3f3c:	f9400001 	ldr	x1, [x0]
    3f40:	f9002fe1 	str	x1, [sp, #88]
    3f44:	d2800001 	mov	x1, #0x0                   	// #0
/home/build/bsp/optee_os/lib/libutee/tee_api_arith_mpi.c:210
    3f48:	aa1403e0 	mov	x0, x20
    3f4c:	aa1503e1 	mov	x1, x21
    3f50:	97fffd44 	bl	3460 <get_mpi>
/home/build/bsp/optee_os/lib/libutee/tee_api_arith_mpi.c:212
    3f54:	2a1603e1 	mov	w1, w22
    3f58:	aa1403e0 	mov	x0, x20
    3f5c:	94000d95 	bl	75b0 <mbedtls_mpi_lset>
    3f60:	340000e0 	cbz	w0, 3f7c <TEE_BigIntConvertFromS32+0x64>
    3f64:	2a0003e2 	mov	w2, w0
/home/build/bsp/optee_os/lib/libutee/tee_api_arith_mpi.c:212 (discriminator 1)
    3f68:	52801a81 	mov	w1, #0xd4                  	// #212
/home/build/bsp/optee_os/lib/libutee/tee_api_arith_mpi.c:214 (discriminator 1)
    3f6c:	b0000060 	adrp	x0, 10000 <__func__.0+0x28>
    3f70:	9121d400 	add	x0, x0, #0x875
    3f74:	91017c00 	add	x0, x0, #0x5f
    3f78:	97fffd2e 	bl	3430 <mpi_panic>
/home/build/bsp/optee_os/lib/libutee/tee_api_arith_mpi.c:214 (discriminator 2)
    3f7c:	aa1503e1 	mov	x1, x21
    3f80:	aa1403e0 	mov	x0, x20
    3f84:	97fffd5d 	bl	34f8 <copy_mpi_to_bigint>
    3f88:	2a0003e2 	mov	w2, w0
    3f8c:	34000060 	cbz	w0, 3f98 <TEE_BigIntConvertFromS32+0x80>
/home/build/bsp/optee_os/lib/libutee/tee_api_arith_mpi.c:214 (discriminator 1)
    3f90:	52801ac1 	mov	w1, #0xd6                  	// #214
    3f94:	17fffff6 	b	3f6c <TEE_BigIntConvertFromS32+0x54>
/home/build/bsp/optee_os/lib/libutee/tee_api_arith_mpi.c:215 (discriminator 2)
    3f98:	aa1403e0 	mov	x0, x20
    3f9c:	94000c79 	bl	7180 <mbedtls_mpi_free>
/home/build/bsp/optee_os/lib/libutee/tee_api_arith_mpi.c:216 (discriminator 2)
    3fa0:	f9409a73 	ldr	x19, [x19, #304]
    3fa4:	f9402fe0 	ldr	x0, [sp, #88]
    3fa8:	f9400261 	ldr	x1, [x19]
    3fac:	eb010000 	subs	x0, x0, x1
    3fb0:	d2800001 	mov	x1, #0x0                   	// #0
    3fb4:	54000040 	b.eq	3fbc <TEE_BigIntConvertFromS32+0xa4>  // b.none
/home/build/bsp/optee_os/lib/libutee/tee_api_arith_mpi.c:216
    3fb8:	97fff1be 	bl	6b0 <__stack_chk_fail>
    3fbc:	a94153f3 	ldp	x19, x20, [sp, #16]
    3fc0:	a9425bf5 	ldp	x21, x22, [sp, #32]
    3fc4:	a8c67bfd 	ldp	x29, x30, [sp], #96
    3fc8:	d65f03c0 	ret

0000000000003fcc <TEE_BigIntConvertToS32>:
TEE_BigIntConvertToS32():
/home/build/bsp/optee_os/lib/libutee/tee_api_arith_mpi.c:219
    3fcc:	a9bb7bfd 	stp	x29, x30, [sp, #-80]!
    3fd0:	f0000062 	adrp	x2, 12000 <_DYNAMIC>
    3fd4:	910003fd 	mov	x29, sp
    3fd8:	f9409842 	ldr	x2, [x2, #304]
    3fdc:	a90153f3 	stp	x19, x20, [sp, #16]
/home/build/bsp/optee_os/lib/libutee/tee_api_arith_mpi.c:224
    3fe0:	9100a3f4 	add	x20, sp, #0x28
/home/build/bsp/optee_os/lib/libutee/tee_api_arith_mpi.c:219
    3fe4:	aa0003f3 	mov	x19, x0
    3fe8:	f9400040 	ldr	x0, [x2]
    3fec:	f90027e0 	str	x0, [sp, #72]
    3ff0:	d2800000 	mov	x0, #0x0                   	// #0
/home/build/bsp/optee_os/lib/libutee/tee_api_arith_mpi.c:224
    3ff4:	aa1403e0 	mov	x0, x20
    3ff8:	97fffd1a 	bl	3460 <get_mpi>
/home/build/bsp/optee_os/lib/libutee/tee_api_arith_mpi.c:226
    3ffc:	910093e1 	add	x1, sp, #0x24
    4000:	aa1403e0 	mov	x0, x20
    4004:	d2800082 	mov	x2, #0x4                   	// #4
    4008:	94000e02 	bl	7810 <mbedtls_mpi_write_binary>
    400c:	34000180 	cbz	w0, 403c <TEE_BigIntConvertToS32+0x70>
/home/build/bsp/optee_os/lib/libutee/tee_api_arith_mpi.c:227
    4010:	1299fe13 	mov	w19, #0xffff300f            	// #-53233
/home/build/bsp/optee_os/lib/libutee/tee_api_arith_mpi.c:240
    4014:	aa1403e0 	mov	x0, x20
    4018:	94000c5a 	bl	7180 <mbedtls_mpi_free>
/home/build/bsp/optee_os/lib/libutee/tee_api_arith_mpi.c:243
    401c:	d0000062 	adrp	x2, 12000 <_DYNAMIC>
    4020:	f9409842 	ldr	x2, [x2, #304]
    4024:	f94027e0 	ldr	x0, [sp, #72]
    4028:	f9400041 	ldr	x1, [x2]
    402c:	eb010000 	subs	x0, x0, x1
    4030:	d2800001 	mov	x1, #0x0                   	// #0
    4034:	54000200 	b.eq	4074 <TEE_BigIntConvertToS32+0xa8>  // b.none
    4038:	97fff19e 	bl	6b0 <__stack_chk_fail>
/home/build/bsp/optee_os/lib/libutee/tee_api_arith_mpi.c:231
    403c:	29448be1 	ldp	w1, w2, [sp, #36]
/home/build/bsp/optee_os/lib/libutee/tee_api_arith_mpi.c:232
    4040:	5ac00820 	rev	w0, w1
/home/build/bsp/optee_os/lib/libutee/tee_api_arith_mpi.c:231
    4044:	7100005f 	cmp	w2, #0x0
    4048:	5ac00821 	rev	w1, w1
    404c:	540000cd 	b.le	4064 <TEE_BigIntConvertToS32+0x98>
/home/build/bsp/optee_os/lib/libutee/tee_api_arith_mpi.c:232
    4050:	eb20c03f 	cmp	x1, w0, sxtw
    4054:	b9000260 	str	w0, [x19]
/home/build/bsp/optee_os/lib/libutee/tee_api_arith_mpi.c:235
    4058:	54fffdc1 	b.ne	4010 <TEE_BigIntConvertToS32+0x44>  // b.any
/home/build/bsp/optee_os/lib/libutee/tee_api_arith_mpi.c:220
    405c:	52800013 	mov	w19, #0x0                   	// #0
    4060:	17ffffed 	b	4014 <TEE_BigIntConvertToS32+0x48>
/home/build/bsp/optee_os/lib/libutee/tee_api_arith_mpi.c:235
    4064:	cb0103e1 	neg	x1, x1
    4068:	b9000261 	str	w1, [x19]
    406c:	eb21c03f 	cmp	x1, w1, sxtw
    4070:	17fffffa 	b	4058 <TEE_BigIntConvertToS32+0x8c>
/home/build/bsp/optee_os/lib/libutee/tee_api_arith_mpi.c:243
    4074:	2a1303e0 	mov	w0, w19
    4078:	a94153f3 	ldp	x19, x20, [sp, #16]
    407c:	a8c57bfd 	ldp	x29, x30, [sp], #80
    4080:	d65f03c0 	ret

0000000000004084 <TEE_BigIntCmp>:
TEE_BigIntCmp():
/home/build/bsp/optee_os/lib/libutee/tee_api_arith_mpi.c:246
    4084:	a9b87bfd 	stp	x29, x30, [sp, #-128]!
    4088:	910003fd 	mov	x29, sp
    408c:	a9025bf5 	stp	x21, x22, [sp, #32]
    4090:	d0000075 	adrp	x21, 12000 <_DYNAMIC>
    4094:	aa0103f6 	mov	x22, x1
    4098:	f9409aa1 	ldr	x1, [x21, #304]
    409c:	a90153f3 	stp	x19, x20, [sp, #16]
/home/build/bsp/optee_os/lib/libutee/tee_api_arith_mpi.c:251
    40a0:	9100e3f4 	add	x20, sp, #0x38
/home/build/bsp/optee_os/lib/libutee/tee_api_arith_mpi.c:246
    40a4:	f9400022 	ldr	x2, [x1]
    40a8:	f9003fe2 	str	x2, [sp, #120]
    40ac:	d2800002 	mov	x2, #0x0                   	// #0
/home/build/bsp/optee_os/lib/libutee/tee_api_arith_mpi.c:252
    40b0:	910163f3 	add	x19, sp, #0x58
/home/build/bsp/optee_os/lib/libutee/tee_api_arith_mpi.c:251
    40b4:	aa0003e1 	mov	x1, x0
    40b8:	aa1403e0 	mov	x0, x20
    40bc:	97fffce9 	bl	3460 <get_mpi>
/home/build/bsp/optee_os/lib/libutee/tee_api_arith_mpi.c:252
    40c0:	aa1603e1 	mov	x1, x22
    40c4:	aa1303e0 	mov	x0, x19
    40c8:	97fffce6 	bl	3460 <get_mpi>
/home/build/bsp/optee_os/lib/libutee/tee_api_arith_mpi.c:254
    40cc:	aa1303e1 	mov	x1, x19
    40d0:	aa1403e0 	mov	x0, x20
    40d4:	94000e4a 	bl	79fc <mbedtls_mpi_cmp_mpi>
    40d8:	2a0003f6 	mov	w22, w0
/home/build/bsp/optee_os/lib/libutee/tee_api_arith_mpi.c:256
    40dc:	aa1403e0 	mov	x0, x20
    40e0:	94000c28 	bl	7180 <mbedtls_mpi_free>
/home/build/bsp/optee_os/lib/libutee/tee_api_arith_mpi.c:257
    40e4:	aa1303e0 	mov	x0, x19
    40e8:	94000c26 	bl	7180 <mbedtls_mpi_free>
/home/build/bsp/optee_os/lib/libutee/tee_api_arith_mpi.c:260
    40ec:	f9409ab5 	ldr	x21, [x21, #304]
    40f0:	f9403fe0 	ldr	x0, [sp, #120]
    40f4:	f94002a1 	ldr	x1, [x21]
    40f8:	eb010000 	subs	x0, x0, x1
    40fc:	d2800001 	mov	x1, #0x0                   	// #0
    4100:	54000040 	b.eq	4108 <TEE_BigIntCmp+0x84>  // b.none
    4104:	97fff16b 	bl	6b0 <__stack_chk_fail>
    4108:	2a1603e0 	mov	w0, w22
    410c:	a94153f3 	ldp	x19, x20, [sp, #16]
    4110:	a9425bf5 	ldp	x21, x22, [sp, #32]
    4114:	a8c87bfd 	ldp	x29, x30, [sp], #128
    4118:	d65f03c0 	ret

000000000000411c <TEE_BigIntCmpS32>:
TEE_BigIntCmpS32():
/home/build/bsp/optee_os/lib/libutee/tee_api_arith_mpi.c:263
    411c:	a9ba7bfd 	stp	x29, x30, [sp, #-96]!
    4120:	910003fd 	mov	x29, sp
    4124:	a90153f3 	stp	x19, x20, [sp, #16]
    4128:	d0000074 	adrp	x20, 12000 <_DYNAMIC>
/home/build/bsp/optee_os/lib/libutee/tee_api_arith_mpi.c:267
    412c:	9100e3f3 	add	x19, sp, #0x38
/home/build/bsp/optee_os/lib/libutee/tee_api_arith_mpi.c:263
    4130:	f90013f5 	str	x21, [sp, #32]
    4134:	2a0103f5 	mov	w21, w1
    4138:	f9409a81 	ldr	x1, [x20, #304]
    413c:	f9400022 	ldr	x2, [x1]
    4140:	f9002fe2 	str	x2, [sp, #88]
    4144:	d2800002 	mov	x2, #0x0                   	// #0
/home/build/bsp/optee_os/lib/libutee/tee_api_arith_mpi.c:267
    4148:	aa0003e1 	mov	x1, x0
    414c:	aa1303e0 	mov	x0, x19
    4150:	97fffcc4 	bl	3460 <get_mpi>
/home/build/bsp/optee_os/lib/libutee/tee_api_arith_mpi.c:269
    4154:	2a1503e1 	mov	w1, w21
    4158:	aa1303e0 	mov	x0, x19
    415c:	94000e5c 	bl	7acc <mbedtls_mpi_cmp_int>
    4160:	2a0003f5 	mov	w21, w0
/home/build/bsp/optee_os/lib/libutee/tee_api_arith_mpi.c:271
    4164:	aa1303e0 	mov	x0, x19
    4168:	94000c06 	bl	7180 <mbedtls_mpi_free>
/home/build/bsp/optee_os/lib/libutee/tee_api_arith_mpi.c:274
    416c:	f9409a94 	ldr	x20, [x20, #304]
    4170:	f9402fe0 	ldr	x0, [sp, #88]
    4174:	f9400281 	ldr	x1, [x20]
    4178:	eb010000 	subs	x0, x0, x1
    417c:	d2800001 	mov	x1, #0x0                   	// #0
    4180:	54000040 	b.eq	4188 <TEE_BigIntCmpS32+0x6c>  // b.none
    4184:	97fff14b 	bl	6b0 <__stack_chk_fail>
    4188:	2a1503e0 	mov	w0, w21
    418c:	a94153f3 	ldp	x19, x20, [sp, #16]
    4190:	f94013f5 	ldr	x21, [sp, #32]
    4194:	a8c67bfd 	ldp	x29, x30, [sp], #96
    4198:	d65f03c0 	ret

000000000000419c <bigint_binary_mod>:
bigint_binary_mod():
/home/build/bsp/optee_os/lib/libutee/tee_api_arith_mpi.c:437
    419c:	a9af7bfd 	stp	x29, x30, [sp, #-272]!
    41a0:	d0000065 	adrp	x5, 12000 <_DYNAMIC>
    41a4:	910003fd 	mov	x29, sp
    41a8:	f94098a5 	ldr	x5, [x5, #304]
    41ac:	a90153f3 	stp	x19, x20, [sp, #16]
    41b0:	aa0003f4 	mov	x20, x0
    41b4:	a9025bf5 	stp	x21, x22, [sp, #32]
    41b8:	aa0203f5 	mov	x21, x2
    41bc:	aa0303f6 	mov	x22, x3
    41c0:	a90363f7 	stp	x23, x24, [sp, #48]
    41c4:	aa0103f7 	mov	x23, x1
/home/build/bsp/optee_os/lib/libutee/tee_api_arith_mpi.c:446
    41c8:	52800041 	mov	w1, #0x2                   	// #2
/home/build/bsp/optee_os/lib/libutee/tee_api_arith_mpi.c:437
    41cc:	a9046bf9 	stp	x25, x26, [sp, #64]
    41d0:	aa0403f9 	mov	x25, x4
    41d4:	f9002bfb 	str	x27, [sp, #80]
    41d8:	f94000a0 	ldr	x0, [x5]
    41dc:	f90087e0 	str	x0, [sp, #264]
    41e0:	d2800000 	mov	x0, #0x0                   	// #0
/home/build/bsp/optee_os/lib/libutee/tee_api_arith_mpi.c:446
    41e4:	aa0303e0 	mov	x0, x3
    41e8:	97ffffcd 	bl	411c <TEE_BigIntCmpS32>
    41ec:	36f80100 	tbz	w0, #31, 420c <bigint_binary_mod+0x70>
/home/build/bsp/optee_os/lib/libutee/tee_api_arith_mpi.c:447
    41f0:	90000060 	adrp	x0, 10000 <__func__.0+0x28>
    41f4:	9121d400 	add	x0, x0, #0x875
    41f8:	90000062 	adrp	x2, 10000 <__func__.0+0x28>
    41fc:	9101e000 	add	x0, x0, #0x78
    4200:	91208c42 	add	x2, x2, #0x823
    4204:	528037e1 	mov	w1, #0x1bf                 	// #447
    4208:	97fffc7e 	bl	3400 <api_panic>
/home/build/bsp/optee_os/lib/libutee/tee_api_arith_mpi.c:449
    420c:	9101a3f3 	add	x19, sp, #0x68
    4210:	aa1403e1 	mov	x1, x20
    4214:	aa1303e0 	mov	x0, x19
/home/build/bsp/optee_os/lib/libutee/tee_api_arith_mpi.c:450
    4218:	910323f8 	add	x24, sp, #0xc8
/home/build/bsp/optee_os/lib/libutee/tee_api_arith_mpi.c:449
    421c:	97fffc91 	bl	3460 <get_mpi>
/home/build/bsp/optee_os/lib/libutee/tee_api_arith_mpi.c:450
    4220:	910223fb 	add	x27, sp, #0x88
    4224:	aa1603e1 	mov	x1, x22
    4228:	aa1803e0 	mov	x0, x24
    422c:	97fffc8d 	bl	3460 <get_mpi>
/home/build/bsp/optee_os/lib/libutee/tee_api_arith_mpi.c:452
    4230:	eb17029f 	cmp	x20, x23
    4234:	54000380 	b.eq	42a4 <bigint_binary_mod+0x108>  // b.none
/home/build/bsp/optee_os/lib/libutee/tee_api_arith_mpi.c:442
    4238:	aa1b03f6 	mov	x22, x27
/home/build/bsp/optee_os/lib/libutee/tee_api_arith_mpi.c:455
    423c:	aa1703e1 	mov	x1, x23
    4240:	aa1b03e0 	mov	x0, x27
    4244:	97fffc87 	bl	3460 <get_mpi>
/home/build/bsp/optee_os/lib/libutee/tee_api_arith_mpi.c:457
    4248:	eb15029f 	cmp	x20, x21
    424c:	9102a3fa 	add	x26, sp, #0xa8
    4250:	540002e0 	b.eq	42ac <bigint_binary_mod+0x110>  // b.none
/home/build/bsp/optee_os/lib/libutee/tee_api_arith_mpi.c:459
    4254:	eb1502ff 	cmp	x23, x21
    4258:	540002e0 	b.eq	42b4 <bigint_binary_mod+0x118>  // b.none
/home/build/bsp/optee_os/lib/libutee/tee_api_arith_mpi.c:462
    425c:	aa1503e1 	mov	x1, x21
/home/build/bsp/optee_os/lib/libutee/tee_api_arith_mpi.c:443
    4260:	aa1a03f5 	mov	x21, x26
/home/build/bsp/optee_os/lib/libutee/tee_api_arith_mpi.c:462
    4264:	aa1a03e0 	mov	x0, x26
    4268:	97fffc7e 	bl	3460 <get_mpi>
get_mpi():
/home/build/bsp/optee_os/lib/libutee/tee_api_arith_mpi.c:101
    426c:	9103a3f7 	add	x23, sp, #0xe8
    4270:	aa1703e0 	mov	x0, x23
    4274:	94000bb9 	bl	7158 <mbedtls_mpi_init_mempool>
bigint_binary_mod():
/home/build/bsp/optee_os/lib/libutee/tee_api_arith_mpi.c:466
    4278:	aa1503e2 	mov	x2, x21
    427c:	aa1603e1 	mov	x1, x22
    4280:	aa1703e0 	mov	x0, x23
    4284:	d63f0320 	blr	x25
    4288:	2a0003e2 	mov	w2, w0
    428c:	34000180 	cbz	w0, 42bc <bigint_binary_mod+0x120>
/home/build/bsp/optee_os/lib/libutee/tee_api_arith_mpi.c:466 (discriminator 1)
    4290:	52803a41 	mov	w1, #0x1d2                 	// #466
/home/build/bsp/optee_os/lib/libutee/tee_api_arith_mpi.c:467 (discriminator 1)
    4294:	90000060 	adrp	x0, 10000 <__func__.0+0x28>
    4298:	9121d400 	add	x0, x0, #0x875
    429c:	9101e000 	add	x0, x0, #0x78
    42a0:	97fffc64 	bl	3430 <mpi_panic>
/home/build/bsp/optee_os/lib/libutee/tee_api_arith_mpi.c:453
    42a4:	aa1303f6 	mov	x22, x19
    42a8:	17ffffe8 	b	4248 <bigint_binary_mod+0xac>
/home/build/bsp/optee_os/lib/libutee/tee_api_arith_mpi.c:458
    42ac:	aa1303f5 	mov	x21, x19
    42b0:	17ffffef 	b	426c <bigint_binary_mod+0xd0>
/home/build/bsp/optee_os/lib/libutee/tee_api_arith_mpi.c:460
    42b4:	aa1603f5 	mov	x21, x22
    42b8:	17ffffed 	b	426c <bigint_binary_mod+0xd0>
/home/build/bsp/optee_os/lib/libutee/tee_api_arith_mpi.c:467 (discriminator 2)
    42bc:	aa1803e2 	mov	x2, x24
    42c0:	aa1703e1 	mov	x1, x23
    42c4:	aa1303e0 	mov	x0, x19
    42c8:	94001190 	bl	8908 <mbedtls_mpi_mod_mpi>
    42cc:	2a0003e2 	mov	w2, w0
    42d0:	34000060 	cbz	w0, 42dc <bigint_binary_mod+0x140>
/home/build/bsp/optee_os/lib/libutee/tee_api_arith_mpi.c:467 (discriminator 1)
    42d4:	52803a61 	mov	w1, #0x1d3                 	// #467
    42d8:	17ffffef 	b	4294 <bigint_binary_mod+0xf8>
/home/build/bsp/optee_os/lib/libutee/tee_api_arith_mpi.c:469 (discriminator 2)
    42dc:	aa1403e1 	mov	x1, x20
    42e0:	aa1303e0 	mov	x0, x19
    42e4:	97fffc85 	bl	34f8 <copy_mpi_to_bigint>
    42e8:	2a0003e2 	mov	w2, w0
    42ec:	34000060 	cbz	w0, 42f8 <bigint_binary_mod+0x15c>
/home/build/bsp/optee_os/lib/libutee/tee_api_arith_mpi.c:469 (discriminator 1)
    42f0:	52803aa1 	mov	w1, #0x1d5                 	// #469
    42f4:	17ffffe8 	b	4294 <bigint_binary_mod+0xf8>
/home/build/bsp/optee_os/lib/libutee/tee_api_arith_mpi.c:470 (discriminator 2)
    42f8:	aa1303e0 	mov	x0, x19
    42fc:	94000ba1 	bl	7180 <mbedtls_mpi_free>
/home/build/bsp/optee_os/lib/libutee/tee_api_arith_mpi.c:471 (discriminator 2)
    4300:	eb1b02df 	cmp	x22, x27
    4304:	54000061 	b.ne	4310 <bigint_binary_mod+0x174>  // b.any
/home/build/bsp/optee_os/lib/libutee/tee_api_arith_mpi.c:472
    4308:	aa1603e0 	mov	x0, x22
    430c:	94000b9d 	bl	7180 <mbedtls_mpi_free>
/home/build/bsp/optee_os/lib/libutee/tee_api_arith_mpi.c:473
    4310:	eb1a02bf 	cmp	x21, x26
    4314:	54000061 	b.ne	4320 <bigint_binary_mod+0x184>  // b.any
/home/build/bsp/optee_os/lib/libutee/tee_api_arith_mpi.c:474
    4318:	aa1503e0 	mov	x0, x21
    431c:	94000b99 	bl	7180 <mbedtls_mpi_free>
/home/build/bsp/optee_os/lib/libutee/tee_api_arith_mpi.c:475
    4320:	aa1703e0 	mov	x0, x23
    4324:	94000b97 	bl	7180 <mbedtls_mpi_free>
/home/build/bsp/optee_os/lib/libutee/tee_api_arith_mpi.c:476
    4328:	aa1803e0 	mov	x0, x24
    432c:	94000b95 	bl	7180 <mbedtls_mpi_free>
/home/build/bsp/optee_os/lib/libutee/tee_api_arith_mpi.c:477
    4330:	d0000065 	adrp	x5, 12000 <_DYNAMIC>
    4334:	f94098a5 	ldr	x5, [x5, #304]
    4338:	f94087e0 	ldr	x0, [sp, #264]
    433c:	f94000a1 	ldr	x1, [x5]
    4340:	eb010000 	subs	x0, x0, x1
    4344:	d2800001 	mov	x1, #0x0                   	// #0
    4348:	54000040 	b.eq	4350 <bigint_binary_mod+0x1b4>  // b.none
    434c:	97fff0d9 	bl	6b0 <__stack_chk_fail>
    4350:	a94153f3 	ldp	x19, x20, [sp, #16]
    4354:	a9425bf5 	ldp	x21, x22, [sp, #32]
    4358:	a94363f7 	ldp	x23, x24, [sp, #48]
    435c:	a9446bf9 	ldp	x25, x26, [sp, #64]
    4360:	f9402bfb 	ldr	x27, [sp, #80]
    4364:	a8d17bfd 	ldp	x29, x30, [sp], #272
    4368:	d65f03c0 	ret

000000000000436c <TEE_BigIntShiftRight>:
TEE_BigIntShiftRight():
/home/build/bsp/optee_os/lib/libutee/tee_api_arith_mpi.c:277
    436c:	a9b57bfd 	stp	x29, x30, [sp, #-176]!
    4370:	d0000063 	adrp	x3, 12000 <_DYNAMIC>
    4374:	910003fd 	mov	x29, sp
    4378:	f9409863 	ldr	x3, [x3, #304]
    437c:	a90153f3 	stp	x19, x20, [sp, #16]
    4380:	aa0003f4 	mov	x20, x0
    4384:	a9025bf5 	stp	x21, x22, [sp, #32]
/home/build/bsp/optee_os/lib/libutee/tee_api_arith_mpi.c:281
    4388:	910123f3 	add	x19, sp, #0x48
/home/build/bsp/optee_os/lib/libutee/tee_api_arith_mpi.c:277
    438c:	aa0103f6 	mov	x22, x1
    4390:	f9001bf7 	str	x23, [sp, #48]
/home/build/bsp/optee_os/lib/libutee/tee_api_arith_mpi.c:281
    4394:	aa0003e1 	mov	x1, x0
/home/build/bsp/optee_os/lib/libutee/tee_api_arith_mpi.c:277
    4398:	aa0203f7 	mov	x23, x2
    439c:	f9400060 	ldr	x0, [x3]
    43a0:	f90057e0 	str	x0, [sp, #168]
    43a4:	d2800000 	mov	x0, #0x0                   	// #0
/home/build/bsp/optee_os/lib/libutee/tee_api_arith_mpi.c:281
    43a8:	aa1303e0 	mov	x0, x19
    43ac:	97fffc2d 	bl	3460 <get_mpi>
/home/build/bsp/optee_os/lib/libutee/tee_api_arith_mpi.c:283
    43b0:	eb16029f 	cmp	x20, x22
    43b4:	54000161 	b.ne	43e0 <TEE_BigIntShiftRight+0x74>  // b.any
/home/build/bsp/optee_os/lib/libutee/tee_api_arith_mpi.c:284
    43b8:	aa1703e1 	mov	x1, x23
    43bc:	aa1303e0 	mov	x0, x19
    43c0:	94000d5c 	bl	7930 <mbedtls_mpi_shift_r>
    43c4:	2a0003e2 	mov	w2, w0
    43c8:	34000760 	cbz	w0, 44b4 <TEE_BigIntShiftRight+0x148>
/home/build/bsp/optee_os/lib/libutee/tee_api_arith_mpi.c:284 (discriminator 1)
    43cc:	52802381 	mov	w1, #0x11c                 	// #284
/home/build/bsp/optee_os/lib/libutee/tee_api_arith_mpi.c:291 (discriminator 1)
    43d0:	90000060 	adrp	x0, 10000 <__func__.0+0x28>
    43d4:	9121d400 	add	x0, x0, #0x875
    43d8:	91022800 	add	x0, x0, #0x8a
    43dc:	97fffc15 	bl	3430 <mpi_panic>
/home/build/bsp/optee_os/lib/libutee/tee_api_arith_mpi.c:288
    43e0:	aa1603e1 	mov	x1, x22
    43e4:	9101a3f5 	add	x21, sp, #0x68
    43e8:	aa1503e0 	mov	x0, x21
    43ec:	97fffc1d 	bl	3460 <get_mpi>
/home/build/bsp/optee_os/lib/libutee/tee_api_arith_mpi.c:290
    43f0:	aa1303e0 	mov	x0, x19
    43f4:	94000cce 	bl	772c <mbedtls_mpi_size>
    43f8:	aa0003f6 	mov	x22, x0
    43fc:	aa1503e0 	mov	x0, x21
    4400:	94000ccb 	bl	772c <mbedtls_mpi_size>
    4404:	eb0002df 	cmp	x22, x0
    4408:	540001e3 	b.cc	4444 <TEE_BigIntShiftRight+0xd8>  // b.lo, b.ul, b.last
/home/build/bsp/optee_os/lib/libutee/tee_api_arith_mpi.c:291
    440c:	aa1503e1 	mov	x1, x21
    4410:	aa1303e0 	mov	x0, x19
    4414:	94000c11 	bl	7458 <mbedtls_mpi_copy>
    4418:	2a0003e2 	mov	w2, w0
    441c:	34000060 	cbz	w0, 4428 <TEE_BigIntShiftRight+0xbc>
/home/build/bsp/optee_os/lib/libutee/tee_api_arith_mpi.c:291 (discriminator 1)
    4420:	52802461 	mov	w1, #0x123                 	// #291
    4424:	17ffffeb 	b	43d0 <TEE_BigIntShiftRight+0x64>
/home/build/bsp/optee_os/lib/libutee/tee_api_arith_mpi.c:292 (discriminator 2)
    4428:	aa1703e1 	mov	x1, x23
    442c:	aa1303e0 	mov	x0, x19
    4430:	94000d40 	bl	7930 <mbedtls_mpi_shift_r>
    4434:	2a0003e2 	mov	w2, w0
    4438:	340003a0 	cbz	w0, 44ac <TEE_BigIntShiftRight+0x140>
/home/build/bsp/optee_os/lib/libutee/tee_api_arith_mpi.c:292 (discriminator 1)
    443c:	52802481 	mov	w1, #0x124                 	// #292
    4440:	17ffffe4 	b	43d0 <TEE_BigIntShiftRight+0x64>
get_mpi():
/home/build/bsp/optee_os/lib/libutee/tee_api_arith_mpi.c:101
    4444:	910223f6 	add	x22, sp, #0x88
    4448:	aa1603e0 	mov	x0, x22
    444c:	94000b43 	bl	7158 <mbedtls_mpi_init_mempool>
TEE_BigIntShiftRight():
/home/build/bsp/optee_os/lib/libutee/tee_api_arith_mpi.c:303
    4450:	aa1503e1 	mov	x1, x21
    4454:	aa1603e0 	mov	x0, x22
    4458:	94000c00 	bl	7458 <mbedtls_mpi_copy>
    445c:	2a0003e2 	mov	w2, w0
    4460:	34000060 	cbz	w0, 446c <TEE_BigIntShiftRight+0x100>
/home/build/bsp/optee_os/lib/libutee/tee_api_arith_mpi.c:303 (discriminator 1)
    4464:	528025e1 	mov	w1, #0x12f                 	// #303
    4468:	17ffffda 	b	43d0 <TEE_BigIntShiftRight+0x64>
/home/build/bsp/optee_os/lib/libutee/tee_api_arith_mpi.c:304 (discriminator 2)
    446c:	aa1703e1 	mov	x1, x23
    4470:	aa1603e0 	mov	x0, x22
    4474:	94000d2f 	bl	7930 <mbedtls_mpi_shift_r>
    4478:	2a0003e2 	mov	w2, w0
    447c:	34000060 	cbz	w0, 4488 <TEE_BigIntShiftRight+0x11c>
/home/build/bsp/optee_os/lib/libutee/tee_api_arith_mpi.c:304 (discriminator 1)
    4480:	52802601 	mov	w1, #0x130                 	// #304
    4484:	17ffffd3 	b	43d0 <TEE_BigIntShiftRight+0x64>
/home/build/bsp/optee_os/lib/libutee/tee_api_arith_mpi.c:305 (discriminator 2)
    4488:	aa1603e1 	mov	x1, x22
    448c:	aa1303e0 	mov	x0, x19
    4490:	94000bf2 	bl	7458 <mbedtls_mpi_copy>
    4494:	2a0003e2 	mov	w2, w0
    4498:	34000060 	cbz	w0, 44a4 <TEE_BigIntShiftRight+0x138>
/home/build/bsp/optee_os/lib/libutee/tee_api_arith_mpi.c:305 (discriminator 1)
    449c:	52802621 	mov	w1, #0x131                 	// #305
    44a0:	17ffffcc 	b	43d0 <TEE_BigIntShiftRight+0x64>
/home/build/bsp/optee_os/lib/libutee/tee_api_arith_mpi.c:307 (discriminator 2)
    44a4:	aa1603e0 	mov	x0, x22
    44a8:	94000b36 	bl	7180 <mbedtls_mpi_free>
/home/build/bsp/optee_os/lib/libutee/tee_api_arith_mpi.c:310
    44ac:	aa1503e0 	mov	x0, x21
    44b0:	94000b34 	bl	7180 <mbedtls_mpi_free>
/home/build/bsp/optee_os/lib/libutee/tee_api_arith_mpi.c:313
    44b4:	aa1403e1 	mov	x1, x20
    44b8:	aa1303e0 	mov	x0, x19
    44bc:	97fffc0f 	bl	34f8 <copy_mpi_to_bigint>
    44c0:	2a0003e2 	mov	w2, w0
    44c4:	34000060 	cbz	w0, 44d0 <TEE_BigIntShiftRight+0x164>
/home/build/bsp/optee_os/lib/libutee/tee_api_arith_mpi.c:313 (discriminator 1)
    44c8:	52802721 	mov	w1, #0x139                 	// #313
    44cc:	17ffffc1 	b	43d0 <TEE_BigIntShiftRight+0x64>
/home/build/bsp/optee_os/lib/libutee/tee_api_arith_mpi.c:314 (discriminator 2)
    44d0:	aa1303e0 	mov	x0, x19
    44d4:	94000b2b 	bl	7180 <mbedtls_mpi_free>
/home/build/bsp/optee_os/lib/libutee/tee_api_arith_mpi.c:315 (discriminator 2)
    44d8:	d0000063 	adrp	x3, 12000 <_DYNAMIC>
    44dc:	f9409863 	ldr	x3, [x3, #304]
    44e0:	f94057e0 	ldr	x0, [sp, #168]
    44e4:	f9400061 	ldr	x1, [x3]
    44e8:	eb010000 	subs	x0, x0, x1
    44ec:	d2800001 	mov	x1, #0x0                   	// #0
    44f0:	54000040 	b.eq	44f8 <TEE_BigIntShiftRight+0x18c>  // b.none
/home/build/bsp/optee_os/lib/libutee/tee_api_arith_mpi.c:315
    44f4:	97fff06f 	bl	6b0 <__stack_chk_fail>
    44f8:	a94153f3 	ldp	x19, x20, [sp, #16]
    44fc:	a9425bf5 	ldp	x21, x22, [sp, #32]
    4500:	f9401bf7 	ldr	x23, [sp, #48]
    4504:	a8cb7bfd 	ldp	x29, x30, [sp], #176
    4508:	d65f03c0 	ret

000000000000450c <__GP11_TEE_BigIntShiftRight>:
__GP11_TEE_BigIntShiftRight():
/home/build/bsp/optee_os/lib/libutee/tee_api_arith_mpi.c:320
    450c:	2a0203e2 	mov	w2, w2
    4510:	17ffff97 	b	436c <TEE_BigIntShiftRight>

0000000000004514 <TEE_BigIntGetBit>:
TEE_BigIntGetBit():
/home/build/bsp/optee_os/lib/libutee/tee_api_arith_mpi.c:324
    4514:	a9ba7bfd 	stp	x29, x30, [sp, #-96]!
    4518:	910003fd 	mov	x29, sp
    451c:	a90153f3 	stp	x19, x20, [sp, #16]
    4520:	d0000074 	adrp	x20, 12000 <_DYNAMIC>
/home/build/bsp/optee_os/lib/libutee/tee_api_arith_mpi.c:328
    4524:	9100e3f3 	add	x19, sp, #0x38
/home/build/bsp/optee_os/lib/libutee/tee_api_arith_mpi.c:324
    4528:	f90013f5 	str	x21, [sp, #32]
    452c:	2a0103f5 	mov	w21, w1
    4530:	f9409a81 	ldr	x1, [x20, #304]
    4534:	f9400022 	ldr	x2, [x1]
    4538:	f9002fe2 	str	x2, [sp, #88]
    453c:	d2800002 	mov	x2, #0x0                   	// #0
/home/build/bsp/optee_os/lib/libutee/tee_api_arith_mpi.c:328
    4540:	aa0003e1 	mov	x1, x0
    4544:	aa1303e0 	mov	x0, x19
    4548:	97fffbc6 	bl	3460 <get_mpi>
/home/build/bsp/optee_os/lib/libutee/tee_api_arith_mpi.c:330
    454c:	2a1503e1 	mov	w1, w21
    4550:	aa1303e0 	mov	x0, x19
    4554:	94000c31 	bl	7618 <mbedtls_mpi_get_bit>
    4558:	2a0003f5 	mov	w21, w0
/home/build/bsp/optee_os/lib/libutee/tee_api_arith_mpi.c:332
    455c:	aa1303e0 	mov	x0, x19
    4560:	94000b08 	bl	7180 <mbedtls_mpi_free>
/home/build/bsp/optee_os/lib/libutee/tee_api_arith_mpi.c:335
    4564:	f9409a94 	ldr	x20, [x20, #304]
/home/build/bsp/optee_os/lib/libutee/tee_api_arith_mpi.c:330
    4568:	710002bf 	cmp	w21, #0x0
    456c:	1a9f07e0 	cset	w0, ne  // ne = any
/home/build/bsp/optee_os/lib/libutee/tee_api_arith_mpi.c:335
    4570:	f9402fe1 	ldr	x1, [sp, #88]
    4574:	f9400282 	ldr	x2, [x20]
    4578:	eb020021 	subs	x1, x1, x2
    457c:	d2800002 	mov	x2, #0x0                   	// #0
    4580:	54000040 	b.eq	4588 <TEE_BigIntGetBit+0x74>  // b.none
    4584:	97fff04b 	bl	6b0 <__stack_chk_fail>
    4588:	a94153f3 	ldp	x19, x20, [sp, #16]
    458c:	f94013f5 	ldr	x21, [sp, #32]
    4590:	a8c67bfd 	ldp	x29, x30, [sp], #96
    4594:	d65f03c0 	ret

0000000000004598 <TEE_BigIntGetBitCount>:
TEE_BigIntGetBitCount():
/home/build/bsp/optee_os/lib/libutee/tee_api_arith_mpi.c:338
    4598:	a9ba7bfd 	stp	x29, x30, [sp, #-96]!
    459c:	910003fd 	mov	x29, sp
    45a0:	a90153f3 	stp	x19, x20, [sp, #16]
    45a4:	d0000074 	adrp	x20, 12000 <_DYNAMIC>
/home/build/bsp/optee_os/lib/libutee/tee_api_arith_mpi.c:342
    45a8:	9100e3f3 	add	x19, sp, #0x38
/home/build/bsp/optee_os/lib/libutee/tee_api_arith_mpi.c:338
    45ac:	f9409a81 	ldr	x1, [x20, #304]
    45b0:	f90013f5 	str	x21, [sp, #32]
    45b4:	f9400022 	ldr	x2, [x1]
    45b8:	f9002fe2 	str	x2, [sp, #88]
    45bc:	d2800002 	mov	x2, #0x0                   	// #0
/home/build/bsp/optee_os/lib/libutee/tee_api_arith_mpi.c:342
    45c0:	aa0003e1 	mov	x1, x0
    45c4:	aa1303e0 	mov	x0, x19
    45c8:	97fffba6 	bl	3460 <get_mpi>
/home/build/bsp/optee_os/lib/libutee/tee_api_arith_mpi.c:344
    45cc:	aa1303e0 	mov	x0, x19
    45d0:	94000c55 	bl	7724 <mbedtls_mpi_bitlen>
    45d4:	aa0003f5 	mov	x21, x0
/home/build/bsp/optee_os/lib/libutee/tee_api_arith_mpi.c:346
    45d8:	aa1303e0 	mov	x0, x19
    45dc:	94000ae9 	bl	7180 <mbedtls_mpi_free>
/home/build/bsp/optee_os/lib/libutee/tee_api_arith_mpi.c:349
    45e0:	f9409a94 	ldr	x20, [x20, #304]
    45e4:	f9402fe0 	ldr	x0, [sp, #88]
    45e8:	f9400281 	ldr	x1, [x20]
    45ec:	eb010000 	subs	x0, x0, x1
    45f0:	d2800001 	mov	x1, #0x0                   	// #0
    45f4:	54000040 	b.eq	45fc <TEE_BigIntGetBitCount+0x64>  // b.none
    45f8:	97fff02e 	bl	6b0 <__stack_chk_fail>
    45fc:	2a1503e0 	mov	w0, w21
    4600:	a94153f3 	ldp	x19, x20, [sp, #16]
    4604:	f94013f5 	ldr	x21, [sp, #32]
    4608:	a8c67bfd 	ldp	x29, x30, [sp], #96
    460c:	d65f03c0 	ret

0000000000004610 <TEE_BigIntSetBit>:
TEE_BigIntSetBit():
/home/build/bsp/optee_os/lib/libutee/tee_api_arith_mpi.c:352
    4610:	a9ba7bfd 	stp	x29, x30, [sp, #-96]!
    4614:	d0000063 	adrp	x3, 12000 <_DYNAMIC>
    4618:	910003fd 	mov	x29, sp
    461c:	f9409863 	ldr	x3, [x3, #304]
    4620:	a90153f3 	stp	x19, x20, [sp, #16]
    4624:	aa0003f3 	mov	x19, x0
    4628:	a9025bf5 	stp	x21, x22, [sp, #32]
/home/build/bsp/optee_os/lib/libutee/tee_api_arith_mpi.c:357
    462c:	9100e3f4 	add	x20, sp, #0x38
/home/build/bsp/optee_os/lib/libutee/tee_api_arith_mpi.c:352
    4630:	2a0103f5 	mov	w21, w1
    4634:	f9400060 	ldr	x0, [x3]
    4638:	f9002fe0 	str	x0, [sp, #88]
    463c:	d2800000 	mov	x0, #0x0                   	// #0
    4640:	12001c56 	and	w22, w2, #0xff
/home/build/bsp/optee_os/lib/libutee/tee_api_arith_mpi.c:357
    4644:	aa1303e1 	mov	x1, x19
    4648:	aa1403e0 	mov	x0, x20
/home/build/bsp/optee_os/lib/libutee/tee_api_arith_mpi.c:354
    464c:	a903ffff 	stp	xzr, xzr, [sp, #56]
    4650:	a904ffff 	stp	xzr, xzr, [sp, #72]
/home/build/bsp/optee_os/lib/libutee/tee_api_arith_mpi.c:357
    4654:	97fffb83 	bl	3460 <get_mpi>
/home/build/bsp/optee_os/lib/libutee/tee_api_arith_mpi.c:359
    4658:	2a1603e2 	mov	w2, w22
    465c:	2a1503e1 	mov	w1, w21
    4660:	aa1403e0 	mov	x0, x20
    4664:	94000bf8 	bl	7644 <mbedtls_mpi_set_bit>
/home/build/bsp/optee_os/lib/libutee/tee_api_arith_mpi.c:360
    4668:	350001e0 	cbnz	w0, 46a4 <TEE_BigIntSetBit+0x94>
/home/build/bsp/optee_os/lib/libutee/tee_api_arith_mpi.c:363
    466c:	aa1303e1 	mov	x1, x19
    4670:	aa1403e0 	mov	x0, x20
    4674:	97fffba1 	bl	34f8 <copy_mpi_to_bigint>
    4678:	2a0003f3 	mov	w19, w0
/home/build/bsp/optee_os/lib/libutee/tee_api_arith_mpi.c:365
    467c:	aa1403e0 	mov	x0, x20
    4680:	94000ac0 	bl	7180 <mbedtls_mpi_free>
/home/build/bsp/optee_os/lib/libutee/tee_api_arith_mpi.c:368
    4684:	d0000063 	adrp	x3, 12000 <_DYNAMIC>
    4688:	f9409863 	ldr	x3, [x3, #304]
    468c:	f9402fe0 	ldr	x0, [sp, #88]
    4690:	f9400061 	ldr	x1, [x3]
    4694:	eb010000 	subs	x0, x0, x1
    4698:	d2800001 	mov	x1, #0x0                   	// #0
    469c:	54000080 	b.eq	46ac <TEE_BigIntSetBit+0x9c>  // b.none
    46a0:	97fff004 	bl	6b0 <__stack_chk_fail>
/home/build/bsp/optee_os/lib/libutee/tee_api_arith_mpi.c:361
    46a4:	1299fe13 	mov	w19, #0xffff300f            	// #-53233
    46a8:	17fffff5 	b	467c <TEE_BigIntSetBit+0x6c>
/home/build/bsp/optee_os/lib/libutee/tee_api_arith_mpi.c:368
    46ac:	2a1303e0 	mov	w0, w19
    46b0:	a94153f3 	ldp	x19, x20, [sp, #16]
    46b4:	a9425bf5 	ldp	x21, x22, [sp, #32]
    46b8:	a8c67bfd 	ldp	x29, x30, [sp], #96
    46bc:	d65f03c0 	ret

00000000000046c0 <TEE_BigIntAssign>:
TEE_BigIntAssign():
/home/build/bsp/optee_os/lib/libutee/tee_api_arith_mpi.c:375
    46c0:	eb00003f 	cmp	x1, x0
    46c4:	540001e0 	b.eq	4700 <TEE_BigIntAssign+0x40>  // b.none
/home/build/bsp/optee_os/lib/libutee/tee_api_arith_mpi.c:378
    46c8:	79400c22 	ldrh	w2, [x1, #6]
    46cc:	79400803 	ldrh	w3, [x0, #4]
    46d0:	6b02007f 	cmp	w3, w2
    46d4:	540001a3 	b.cc	4708 <TEE_BigIntAssign+0x48>  // b.lo, b.ul, b.last
/home/build/bsp/optee_os/lib/libutee/tee_api_arith_mpi.c:371
    46d8:	a9bf7bfd 	stp	x29, x30, [sp, #-16]!
    46dc:	910003fd 	mov	x29, sp
/home/build/bsp/optee_os/lib/libutee/tee_api_arith_mpi.c:382
    46e0:	b8408423 	ldr	w3, [x1], #8
/home/build/bsp/optee_os/lib/libutee/tee_api_arith_mpi.c:381
    46e4:	79000c02 	strh	w2, [x0, #6]
/home/build/bsp/optee_os/lib/libutee/tee_api_arith_mpi.c:383
    46e8:	d37e3c42 	ubfiz	x2, x2, #2, #16
/home/build/bsp/optee_os/lib/libutee/tee_api_arith_mpi.c:382
    46ec:	b8008403 	str	w3, [x0], #8
/home/build/bsp/optee_os/lib/libutee/tee_api_arith_mpi.c:383
    46f0:	97ffee44 	bl	0 <memcpy>
/home/build/bsp/optee_os/lib/libutee/tee_api_arith_mpi.c:385
    46f4:	52800000 	mov	w0, #0x0                   	// #0
/home/build/bsp/optee_os/lib/libutee/tee_api_arith_mpi.c:386
    46f8:	a8c17bfd 	ldp	x29, x30, [sp], #16
    46fc:	d65f03c0 	ret
/home/build/bsp/optee_os/lib/libutee/tee_api_arith_mpi.c:376
    4700:	52800000 	mov	w0, #0x0                   	// #0
    4704:	d65f03c0 	ret
/home/build/bsp/optee_os/lib/libutee/tee_api_arith_mpi.c:379
    4708:	1299fe00 	mov	w0, #0xffff300f            	// #-53233
/home/build/bsp/optee_os/lib/libutee/tee_api_arith_mpi.c:386
    470c:	d65f03c0 	ret

0000000000004710 <TEE_BigIntAbs>:
TEE_BigIntAbs():
/home/build/bsp/optee_os/lib/libutee/tee_api_arith_mpi.c:389
    4710:	a9be7bfd 	stp	x29, x30, [sp, #-32]!
    4714:	910003fd 	mov	x29, sp
    4718:	f9000bf3 	str	x19, [sp, #16]
    471c:	aa0003f3 	mov	x19, x0
/home/build/bsp/optee_os/lib/libutee/tee_api_arith_mpi.c:390
    4720:	97ffffe8 	bl	46c0 <TEE_BigIntAssign>
/home/build/bsp/optee_os/lib/libutee/tee_api_arith_mpi.c:392
    4724:	35000060 	cbnz	w0, 4730 <TEE_BigIntAbs+0x20>
/home/build/bsp/optee_os/lib/libutee/tee_api_arith_mpi.c:393
    4728:	52800021 	mov	w1, #0x1                   	// #1
    472c:	b9000261 	str	w1, [x19]
/home/build/bsp/optee_os/lib/libutee/tee_api_arith_mpi.c:396
    4730:	f9400bf3 	ldr	x19, [sp, #16]
    4734:	a8c27bfd 	ldp	x29, x30, [sp], #32
    4738:	d65f03c0 	ret

000000000000473c <TEE_BigIntAdd>:
TEE_BigIntAdd():
/home/build/bsp/optee_os/lib/libutee/tee_api_arith_mpi.c:482
    473c:	d0000063 	adrp	x3, 12000 <_DYNAMIC>
    4740:	f940b863 	ldr	x3, [x3, #368]
    4744:	17fffb86 	b	355c <bigint_binary>

0000000000004748 <TEE_BigIntSub>:
TEE_BigIntSub():
/home/build/bsp/optee_os/lib/libutee/tee_api_arith_mpi.c:488
    4748:	d0000063 	adrp	x3, 12000 <_DYNAMIC>
    474c:	f940c463 	ldr	x3, [x3, #392]
    4750:	17fffb83 	b	355c <bigint_binary>

0000000000004754 <TEE_BigIntNeg>:
TEE_BigIntNeg():
/home/build/bsp/optee_os/lib/libutee/tee_api_arith_mpi.c:492
    4754:	a9b87bfd 	stp	x29, x30, [sp, #-128]!
    4758:	d0000062 	adrp	x2, 12000 <_DYNAMIC>
    475c:	910003fd 	mov	x29, sp
    4760:	f9409842 	ldr	x2, [x2, #304]
    4764:	a90153f3 	stp	x19, x20, [sp, #16]
    4768:	aa0003f3 	mov	x19, x0
    476c:	a9025bf5 	stp	x21, x22, [sp, #32]
/home/build/bsp/optee_os/lib/libutee/tee_api_arith_mpi.c:495
    4770:	9100e3f4 	add	x20, sp, #0x38
/home/build/bsp/optee_os/lib/libutee/tee_api_arith_mpi.c:492
    4774:	aa0103f5 	mov	x21, x1
    4778:	f9400040 	ldr	x0, [x2]
    477c:	f9003fe0 	str	x0, [sp, #120]
    4780:	d2800000 	mov	x0, #0x0                   	// #0
/home/build/bsp/optee_os/lib/libutee/tee_api_arith_mpi.c:495
    4784:	aa1303e1 	mov	x1, x19
    4788:	aa1403e0 	mov	x0, x20
    478c:	97fffb35 	bl	3460 <get_mpi>
/home/build/bsp/optee_os/lib/libutee/tee_api_arith_mpi.c:497
    4790:	eb15027f 	cmp	x19, x21
    4794:	54000220 	b.eq	47d8 <TEE_BigIntNeg+0x84>  // b.none
/home/build/bsp/optee_os/lib/libutee/tee_api_arith_mpi.c:500
    4798:	910163f6 	add	x22, sp, #0x58
    479c:	aa1503e1 	mov	x1, x21
    47a0:	aa1603e0 	mov	x0, x22
    47a4:	97fffb2f 	bl	3460 <get_mpi>
/home/build/bsp/optee_os/lib/libutee/tee_api_arith_mpi.c:502
    47a8:	aa1603e1 	mov	x1, x22
    47ac:	aa1403e0 	mov	x0, x20
    47b0:	94000b2a 	bl	7458 <mbedtls_mpi_copy>
    47b4:	2a0003e2 	mov	w2, w0
    47b8:	340000c0 	cbz	w0, 47d0 <TEE_BigIntNeg+0x7c>
/home/build/bsp/optee_os/lib/libutee/tee_api_arith_mpi.c:502 (discriminator 1)
    47bc:	52803ec1 	mov	w1, #0x1f6                 	// #502
/home/build/bsp/optee_os/lib/libutee/tee_api_arith_mpi.c:509 (discriminator 1)
    47c0:	90000060 	adrp	x0, 10000 <__func__.0+0x28>
    47c4:	9121d400 	add	x0, x0, #0x875
    47c8:	91027c00 	add	x0, x0, #0x9f
    47cc:	97fffb19 	bl	3430 <mpi_panic>
/home/build/bsp/optee_os/lib/libutee/tee_api_arith_mpi.c:504 (discriminator 2)
    47d0:	aa1603e0 	mov	x0, x22
    47d4:	94000a6b 	bl	7180 <mbedtls_mpi_free>
/home/build/bsp/optee_os/lib/libutee/tee_api_arith_mpi.c:507
    47d8:	b9403be0 	ldr	w0, [sp, #56]
/home/build/bsp/optee_os/lib/libutee/tee_api_arith_mpi.c:509
    47dc:	aa1303e1 	mov	x1, x19
/home/build/bsp/optee_os/lib/libutee/tee_api_arith_mpi.c:507
    47e0:	4b0003e0 	neg	w0, w0
    47e4:	b9003be0 	str	w0, [sp, #56]
/home/build/bsp/optee_os/lib/libutee/tee_api_arith_mpi.c:509
    47e8:	aa1403e0 	mov	x0, x20
    47ec:	97fffb43 	bl	34f8 <copy_mpi_to_bigint>
    47f0:	2a0003e2 	mov	w2, w0
    47f4:	34000060 	cbz	w0, 4800 <TEE_BigIntNeg+0xac>
/home/build/bsp/optee_os/lib/libutee/tee_api_arith_mpi.c:509 (discriminator 1)
    47f8:	52803fa1 	mov	w1, #0x1fd                 	// #509
    47fc:	17fffff1 	b	47c0 <TEE_BigIntNeg+0x6c>
/home/build/bsp/optee_os/lib/libutee/tee_api_arith_mpi.c:510 (discriminator 2)
    4800:	aa1403e0 	mov	x0, x20
    4804:	94000a5f 	bl	7180 <mbedtls_mpi_free>
/home/build/bsp/optee_os/lib/libutee/tee_api_arith_mpi.c:511 (discriminator 2)
    4808:	d0000062 	adrp	x2, 12000 <_DYNAMIC>
    480c:	f9409842 	ldr	x2, [x2, #304]
    4810:	f9403fe0 	ldr	x0, [sp, #120]
    4814:	f9400041 	ldr	x1, [x2]
    4818:	eb010000 	subs	x0, x0, x1
    481c:	d2800001 	mov	x1, #0x0                   	// #0
    4820:	54000040 	b.eq	4828 <TEE_BigIntNeg+0xd4>  // b.none
/home/build/bsp/optee_os/lib/libutee/tee_api_arith_mpi.c:511
    4824:	97ffefa3 	bl	6b0 <__stack_chk_fail>
    4828:	a94153f3 	ldp	x19, x20, [sp, #16]
    482c:	a9425bf5 	ldp	x21, x22, [sp, #32]
    4830:	a8c87bfd 	ldp	x29, x30, [sp], #128
    4834:	d65f03c0 	ret

0000000000004838 <TEE_BigIntMul>:
TEE_BigIntMul():
/home/build/bsp/optee_os/lib/libutee/tee_api_arith_mpi.c:515
    4838:	a9b97bfd 	stp	x29, x30, [sp, #-112]!
    483c:	910003fd 	mov	x29, sp
    4840:	f90023f9 	str	x25, [sp, #64]
    4844:	d0000079 	adrp	x25, 12000 <_DYNAMIC>
    4848:	a90363f7 	stp	x23, x24, [sp, #48]
    484c:	aa0003f7 	mov	x23, x0
    4850:	aa1903f8 	mov	x24, x25
    4854:	f9409b20 	ldr	x0, [x25, #304]
    4858:	a90153f3 	stp	x19, x20, [sp, #16]
    485c:	a9025bf5 	stp	x21, x22, [sp, #32]
    4860:	aa0103f5 	mov	x21, x1
    4864:	aa0203f6 	mov	x22, x2
    4868:	f9400001 	ldr	x1, [x0]
    486c:	f90037e1 	str	x1, [sp, #104]
    4870:	d2800001 	mov	x1, #0x0                   	// #0
/home/build/bsp/optee_os/lib/libutee/tee_api_arith_mpi.c:516
    4874:	aa1503e0 	mov	x0, x21
    4878:	97ffff48 	bl	4598 <TEE_BigIntGetBitCount>
    487c:	2a0003f3 	mov	w19, w0
/home/build/bsp/optee_os/lib/libutee/tee_api_arith_mpi.c:517
    4880:	aa1603e0 	mov	x0, x22
    4884:	97ffff45 	bl	4598 <TEE_BigIntGetBitCount>
    4888:	2a0003e0 	mov	w0, w0
/home/build/bsp/optee_os/lib/libutee/tee_api_arith_mpi.c:518
    488c:	91007e73 	add	x19, x19, #0x1f
    4890:	91007c00 	add	x0, x0, #0x1f
/home/build/bsp/optee_os/lib/libutee/tee_api_arith_mpi.c:519
    4894:	f9002fff 	str	xzr, [sp, #88]
    4898:	b90063ff 	str	wzr, [sp, #96]
/home/build/bsp/optee_os/lib/libutee/tee_api_arith_mpi.c:518
    489c:	d345fc00 	lsr	x0, x0, #5
    48a0:	8b531413 	add	x19, x0, x19, lsr #5
/home/build/bsp/optee_os/lib/libutee/tee_api_arith_mpi.c:522
    48a4:	f940ef20 	ldr	x0, [x25, #472]
/home/build/bsp/optee_os/lib/libutee/tee_api_arith_mpi.c:518
    48a8:	91001273 	add	x19, x19, #0x4
/home/build/bsp/optee_os/lib/libutee/tee_api_arith_mpi.c:522
    48ac:	d37ef661 	lsl	x1, x19, #2
    48b0:	f9400000 	ldr	x0, [x0]
    48b4:	940021dd 	bl	d028 <mempool_alloc>
    48b8:	aa0003f4 	mov	x20, x0
/home/build/bsp/optee_os/lib/libutee/tee_api_arith_mpi.c:523
    48bc:	b5000060 	cbnz	x0, 48c8 <TEE_BigIntMul+0x90>
/home/build/bsp/optee_os/lib/libutee/tee_api_arith_mpi.c:524
    48c0:	129ffe60 	mov	w0, #0xffff000c            	// #-65524
    48c4:	94000330 	bl	5584 <TEE_Panic>
/home/build/bsp/optee_os/lib/libutee/tee_api_arith_mpi.c:526
    48c8:	aa1303e1 	mov	x1, x19
    48cc:	aa1403e0 	mov	x0, x20
/home/build/bsp/optee_os/lib/libutee/tee_api_arith_mpi.c:527
    48d0:	910163f3 	add	x19, sp, #0x58
/home/build/bsp/optee_os/lib/libutee/tee_api_arith_mpi.c:526
    48d4:	97fffcf8 	bl	3cb4 <TEE_BigIntInit>
/home/build/bsp/optee_os/lib/libutee/tee_api_arith_mpi.c:527
    48d8:	aa1303e0 	mov	x0, x19
    48dc:	d2800061 	mov	x1, #0x3                   	// #3
    48e0:	97fffcf5 	bl	3cb4 <TEE_BigIntInit>
/home/build/bsp/optee_os/lib/libutee/tee_api_arith_mpi.c:529
    48e4:	f940b703 	ldr	x3, [x24, #360]
    48e8:	aa1603e2 	mov	x2, x22
    48ec:	aa1503e1 	mov	x1, x21
    48f0:	aa1403e0 	mov	x0, x20
    48f4:	97fffb1a 	bl	355c <bigint_binary>
/home/build/bsp/optee_os/lib/libutee/tee_api_arith_mpi.c:531
    48f8:	aa1303e2 	mov	x2, x19
    48fc:	aa1403e1 	mov	x1, x20
    4900:	aa1703e0 	mov	x0, x23
    4904:	97ffff8e 	bl	473c <TEE_BigIntAdd>
/home/build/bsp/optee_os/lib/libutee/tee_api_arith_mpi.c:533
    4908:	f940ef00 	ldr	x0, [x24, #472]
    490c:	aa1403e1 	mov	x1, x20
    4910:	f9400000 	ldr	x0, [x0]
    4914:	940021f2 	bl	d0dc <mempool_free>
/home/build/bsp/optee_os/lib/libutee/tee_api_arith_mpi.c:534
    4918:	f9409b18 	ldr	x24, [x24, #304]
    491c:	f94037e0 	ldr	x0, [sp, #104]
    4920:	f9400301 	ldr	x1, [x24]
    4924:	eb010000 	subs	x0, x0, x1
    4928:	d2800001 	mov	x1, #0x0                   	// #0
    492c:	54000040 	b.eq	4934 <TEE_BigIntMul+0xfc>  // b.none
    4930:	97ffef60 	bl	6b0 <__stack_chk_fail>
    4934:	a94153f3 	ldp	x19, x20, [sp, #16]
    4938:	a9425bf5 	ldp	x21, x22, [sp, #32]
    493c:	a94363f7 	ldp	x23, x24, [sp, #48]
    4940:	f94023f9 	ldr	x25, [sp, #64]
    4944:	a8c77bfd 	ldp	x29, x30, [sp], #112
    4948:	d65f03c0 	ret

000000000000494c <TEE_BigIntSquare>:
TEE_BigIntSquare():
/home/build/bsp/optee_os/lib/libutee/tee_api_arith_mpi.c:537
    494c:	aa0103e2 	mov	x2, x1
/home/build/bsp/optee_os/lib/libutee/tee_api_arith_mpi.c:538
    4950:	17ffffba 	b	4838 <TEE_BigIntMul>

0000000000004954 <TEE_BigIntDiv>:
TEE_BigIntDiv():
/home/build/bsp/optee_os/lib/libutee/tee_api_arith_mpi.c:543
    4954:	a9b17bfd 	stp	x29, x30, [sp, #-240]!
    4958:	d0000064 	adrp	x4, 12000 <_DYNAMIC>
    495c:	910003fd 	mov	x29, sp
    4960:	f9409884 	ldr	x4, [x4, #304]
    4964:	a90153f3 	stp	x19, x20, [sp, #16]
    4968:	aa0003f4 	mov	x20, x0
    496c:	a9025bf5 	stp	x21, x22, [sp, #32]
    4970:	aa0103f3 	mov	x19, x1
/home/build/bsp/optee_os/lib/libutee/tee_api_arith_mpi.c:551
    4974:	aa0003e1 	mov	x1, x0
/home/build/bsp/optee_os/lib/libutee/tee_api_arith_mpi.c:543
    4978:	a90363f7 	stp	x23, x24, [sp, #48]
/home/build/bsp/optee_os/lib/libutee/tee_api_arith_mpi.c:551
    497c:	9101a3f8 	add	x24, sp, #0x68
/home/build/bsp/optee_os/lib/libutee/tee_api_arith_mpi.c:543
    4980:	aa0303f5 	mov	x21, x3
    4984:	a9046bf9 	stp	x25, x26, [sp, #64]
/home/build/bsp/optee_os/lib/libutee/tee_api_arith_mpi.c:552
    4988:	910223f7 	add	x23, sp, #0x88
/home/build/bsp/optee_os/lib/libutee/tee_api_arith_mpi.c:543
    498c:	aa0203f9 	mov	x25, x2
    4990:	f9002bfb 	str	x27, [sp, #80]
    4994:	9102a3fb 	add	x27, sp, #0xa8
    4998:	f9400080 	ldr	x0, [x4]
    499c:	f90077e0 	str	x0, [sp, #232]
    49a0:	d2800000 	mov	x0, #0x0                   	// #0
/home/build/bsp/optee_os/lib/libutee/tee_api_arith_mpi.c:551
    49a4:	aa1803e0 	mov	x0, x24
    49a8:	97fffaae 	bl	3460 <get_mpi>
/home/build/bsp/optee_os/lib/libutee/tee_api_arith_mpi.c:552
    49ac:	aa1303e1 	mov	x1, x19
    49b0:	aa1703e0 	mov	x0, x23
    49b4:	97fffaab 	bl	3460 <get_mpi>
/home/build/bsp/optee_os/lib/libutee/tee_api_arith_mpi.c:554
    49b8:	eb19029f 	cmp	x20, x25
    49bc:	540003c0 	b.eq	4a34 <TEE_BigIntDiv+0xe0>  // b.none
/home/build/bsp/optee_os/lib/libutee/tee_api_arith_mpi.c:556
    49c0:	eb19027f 	cmp	x19, x25
    49c4:	540003c0 	b.eq	4a3c <TEE_BigIntDiv+0xe8>  // b.none
/home/build/bsp/optee_os/lib/libutee/tee_api_arith_mpi.c:548
    49c8:	aa1b03f6 	mov	x22, x27
/home/build/bsp/optee_os/lib/libutee/tee_api_arith_mpi.c:559
    49cc:	aa1903e1 	mov	x1, x25
    49d0:	aa1b03e0 	mov	x0, x27
    49d4:	97fffaa3 	bl	3460 <get_mpi>
/home/build/bsp/optee_os/lib/libutee/tee_api_arith_mpi.c:561
    49d8:	eb15029f 	cmp	x20, x21
    49dc:	910323fa 	add	x26, sp, #0xc8
    49e0:	54000320 	b.eq	4a44 <TEE_BigIntDiv+0xf0>  // b.none
/home/build/bsp/optee_os/lib/libutee/tee_api_arith_mpi.c:563
    49e4:	eb15027f 	cmp	x19, x21
    49e8:	54000320 	b.eq	4a4c <TEE_BigIntDiv+0xf8>  // b.none
/home/build/bsp/optee_os/lib/libutee/tee_api_arith_mpi.c:565
    49ec:	eb15033f 	cmp	x25, x21
    49f0:	54000320 	b.eq	4a54 <TEE_BigIntDiv+0x100>  // b.none
/home/build/bsp/optee_os/lib/libutee/tee_api_arith_mpi.c:568
    49f4:	aa1503e1 	mov	x1, x21
/home/build/bsp/optee_os/lib/libutee/tee_api_arith_mpi.c:549
    49f8:	aa1a03f5 	mov	x21, x26
/home/build/bsp/optee_os/lib/libutee/tee_api_arith_mpi.c:568
    49fc:	aa1a03e0 	mov	x0, x26
    4a00:	97fffa98 	bl	3460 <get_mpi>
/home/build/bsp/optee_os/lib/libutee/tee_api_arith_mpi.c:570
    4a04:	aa1603e2 	mov	x2, x22
    4a08:	aa1503e3 	mov	x3, x21
    4a0c:	aa1703e1 	mov	x1, x23
    4a10:	aa1803e0 	mov	x0, x24
    4a14:	94000e57 	bl	8370 <mbedtls_mpi_div_mpi>
    4a18:	2a0003e2 	mov	w2, w0
    4a1c:	34000200 	cbz	w0, 4a5c <TEE_BigIntDiv+0x108>
/home/build/bsp/optee_os/lib/libutee/tee_api_arith_mpi.c:570 (discriminator 1)
    4a20:	52804741 	mov	w1, #0x23a                 	// #570
/home/build/bsp/optee_os/lib/libutee/tee_api_arith_mpi.c:573 (discriminator 1)
    4a24:	90000060 	adrp	x0, 10000 <__func__.0+0x28>
    4a28:	9121d400 	add	x0, x0, #0x875
    4a2c:	9102b400 	add	x0, x0, #0xad
    4a30:	97fffa80 	bl	3430 <mpi_panic>
/home/build/bsp/optee_os/lib/libutee/tee_api_arith_mpi.c:555
    4a34:	aa1803f6 	mov	x22, x24
    4a38:	17ffffe8 	b	49d8 <TEE_BigIntDiv+0x84>
/home/build/bsp/optee_os/lib/libutee/tee_api_arith_mpi.c:557
    4a3c:	aa1703f6 	mov	x22, x23
    4a40:	17ffffe6 	b	49d8 <TEE_BigIntDiv+0x84>
/home/build/bsp/optee_os/lib/libutee/tee_api_arith_mpi.c:562
    4a44:	aa1803f5 	mov	x21, x24
    4a48:	17ffffef 	b	4a04 <TEE_BigIntDiv+0xb0>
/home/build/bsp/optee_os/lib/libutee/tee_api_arith_mpi.c:564
    4a4c:	aa1703f5 	mov	x21, x23
    4a50:	17ffffed 	b	4a04 <TEE_BigIntDiv+0xb0>
/home/build/bsp/optee_os/lib/libutee/tee_api_arith_mpi.c:566
    4a54:	aa1603f5 	mov	x21, x22
    4a58:	17ffffeb 	b	4a04 <TEE_BigIntDiv+0xb0>
/home/build/bsp/optee_os/lib/libutee/tee_api_arith_mpi.c:572 (discriminator 2)
    4a5c:	b4000114 	cbz	x20, 4a7c <TEE_BigIntDiv+0x128>
/home/build/bsp/optee_os/lib/libutee/tee_api_arith_mpi.c:573
    4a60:	aa1403e1 	mov	x1, x20
    4a64:	aa1803e0 	mov	x0, x24
    4a68:	97fffaa4 	bl	34f8 <copy_mpi_to_bigint>
    4a6c:	2a0003e2 	mov	w2, w0
    4a70:	34000060 	cbz	w0, 4a7c <TEE_BigIntDiv+0x128>
/home/build/bsp/optee_os/lib/libutee/tee_api_arith_mpi.c:573 (discriminator 1)
    4a74:	528047a1 	mov	w1, #0x23d                 	// #573
    4a78:	17ffffeb 	b	4a24 <TEE_BigIntDiv+0xd0>
/home/build/bsp/optee_os/lib/libutee/tee_api_arith_mpi.c:574
    4a7c:	b4000113 	cbz	x19, 4a9c <TEE_BigIntDiv+0x148>
/home/build/bsp/optee_os/lib/libutee/tee_api_arith_mpi.c:575
    4a80:	aa1303e1 	mov	x1, x19
    4a84:	aa1703e0 	mov	x0, x23
    4a88:	97fffa9c 	bl	34f8 <copy_mpi_to_bigint>
    4a8c:	2a0003e2 	mov	w2, w0
    4a90:	34000060 	cbz	w0, 4a9c <TEE_BigIntDiv+0x148>
/home/build/bsp/optee_os/lib/libutee/tee_api_arith_mpi.c:575 (discriminator 1)
    4a94:	528047e1 	mov	w1, #0x23f                 	// #575
    4a98:	17ffffe3 	b	4a24 <TEE_BigIntDiv+0xd0>
/home/build/bsp/optee_os/lib/libutee/tee_api_arith_mpi.c:576
    4a9c:	aa1803e0 	mov	x0, x24
    4aa0:	940009b8 	bl	7180 <mbedtls_mpi_free>
/home/build/bsp/optee_os/lib/libutee/tee_api_arith_mpi.c:577
    4aa4:	aa1703e0 	mov	x0, x23
    4aa8:	940009b6 	bl	7180 <mbedtls_mpi_free>
/home/build/bsp/optee_os/lib/libutee/tee_api_arith_mpi.c:578
    4aac:	eb1b02df 	cmp	x22, x27
    4ab0:	54000061 	b.ne	4abc <TEE_BigIntDiv+0x168>  // b.any
/home/build/bsp/optee_os/lib/libutee/tee_api_arith_mpi.c:579
    4ab4:	aa1603e0 	mov	x0, x22
    4ab8:	940009b2 	bl	7180 <mbedtls_mpi_free>
/home/build/bsp/optee_os/lib/libutee/tee_api_arith_mpi.c:580
    4abc:	eb1a02bf 	cmp	x21, x26
    4ac0:	54000061 	b.ne	4acc <TEE_BigIntDiv+0x178>  // b.any
/home/build/bsp/optee_os/lib/libutee/tee_api_arith_mpi.c:581
    4ac4:	aa1503e0 	mov	x0, x21
    4ac8:	940009ae 	bl	7180 <mbedtls_mpi_free>
/home/build/bsp/optee_os/lib/libutee/tee_api_arith_mpi.c:582
    4acc:	d0000064 	adrp	x4, 12000 <_DYNAMIC>
    4ad0:	f9409884 	ldr	x4, [x4, #304]
    4ad4:	f94077e0 	ldr	x0, [sp, #232]
    4ad8:	f9400081 	ldr	x1, [x4]
    4adc:	eb010000 	subs	x0, x0, x1
    4ae0:	d2800001 	mov	x1, #0x0                   	// #0
    4ae4:	54000040 	b.eq	4aec <TEE_BigIntDiv+0x198>  // b.none
    4ae8:	97ffeef2 	bl	6b0 <__stack_chk_fail>
    4aec:	a94153f3 	ldp	x19, x20, [sp, #16]
    4af0:	a9425bf5 	ldp	x21, x22, [sp, #32]
    4af4:	a94363f7 	ldp	x23, x24, [sp, #48]
    4af8:	a9446bf9 	ldp	x25, x26, [sp, #64]
    4afc:	f9402bfb 	ldr	x27, [sp, #80]
    4b00:	a8cf7bfd 	ldp	x29, x30, [sp], #240
    4b04:	d65f03c0 	ret

0000000000004b08 <TEE_BigIntMod>:
TEE_BigIntMod():
/home/build/bsp/optee_os/lib/libutee/tee_api_arith_mpi.c:585
    4b08:	a9bd7bfd 	stp	x29, x30, [sp, #-48]!
    4b0c:	910003fd 	mov	x29, sp
    4b10:	a90153f3 	stp	x19, x20, [sp, #16]
    4b14:	aa0003f4 	mov	x20, x0
    4b18:	aa0203f3 	mov	x19, x2
/home/build/bsp/optee_os/lib/libutee/tee_api_arith_mpi.c:586
    4b1c:	aa0203e0 	mov	x0, x2
/home/build/bsp/optee_os/lib/libutee/tee_api_arith_mpi.c:585
    4b20:	f90013f5 	str	x21, [sp, #32]
    4b24:	aa0103f5 	mov	x21, x1
/home/build/bsp/optee_os/lib/libutee/tee_api_arith_mpi.c:586
    4b28:	52800041 	mov	w1, #0x2                   	// #2
    4b2c:	97fffd7c 	bl	411c <TEE_BigIntCmpS32>
    4b30:	36f80100 	tbz	w0, #31, 4b50 <TEE_BigIntMod+0x48>
/home/build/bsp/optee_os/lib/libutee/tee_api_arith_mpi.c:587
    4b34:	90000060 	adrp	x0, 10000 <__func__.0+0x28>
    4b38:	9121d400 	add	x0, x0, #0x875
    4b3c:	90000062 	adrp	x2, 10000 <__func__.0+0x28>
    4b40:	9102ec00 	add	x0, x0, #0xbb
    4b44:	91208c42 	add	x2, x2, #0x823
    4b48:	52804961 	mov	w1, #0x24b                 	// #587
    4b4c:	97fffa2d 	bl	3400 <api_panic>
/home/build/bsp/optee_os/lib/libutee/tee_api_arith_mpi.c:589
    4b50:	aa1303e2 	mov	x2, x19
    4b54:	aa1503e1 	mov	x1, x21
    4b58:	aa1403e0 	mov	x0, x20
    4b5c:	d0000063 	adrp	x3, 12000 <_DYNAMIC>
/home/build/bsp/optee_os/lib/libutee/tee_api_arith_mpi.c:590
    4b60:	a94153f3 	ldp	x19, x20, [sp, #16]
    4b64:	f94013f5 	ldr	x21, [sp, #32]
    4b68:	a8c37bfd 	ldp	x29, x30, [sp], #48
/home/build/bsp/optee_os/lib/libutee/tee_api_arith_mpi.c:589
    4b6c:	f940d463 	ldr	x3, [x3, #424]
    4b70:	17fffa7b 	b	355c <bigint_binary>

0000000000004b74 <TEE_BigIntAddMod>:
TEE_BigIntAddMod():
/home/build/bsp/optee_os/lib/libutee/tee_api_arith_mpi.c:595
    4b74:	d0000064 	adrp	x4, 12000 <_DYNAMIC>
    4b78:	f940b884 	ldr	x4, [x4, #368]
    4b7c:	17fffd88 	b	419c <bigint_binary_mod>

0000000000004b80 <TEE_BigIntSubMod>:
TEE_BigIntSubMod():
/home/build/bsp/optee_os/lib/libutee/tee_api_arith_mpi.c:601
    4b80:	d0000064 	adrp	x4, 12000 <_DYNAMIC>
    4b84:	f940c484 	ldr	x4, [x4, #392]
    4b88:	17fffd85 	b	419c <bigint_binary_mod>

0000000000004b8c <TEE_BigIntMulMod>:
TEE_BigIntMulMod():
/home/build/bsp/optee_os/lib/libutee/tee_api_arith_mpi.c:607
    4b8c:	d0000064 	adrp	x4, 12000 <_DYNAMIC>
    4b90:	f940b484 	ldr	x4, [x4, #360]
    4b94:	17fffd82 	b	419c <bigint_binary_mod>

0000000000004b98 <TEE_BigIntSquareMod>:
TEE_BigIntSquareMod():
/home/build/bsp/optee_os/lib/libutee/tee_api_arith_mpi.c:613
    4b98:	aa0203e3 	mov	x3, x2
    4b9c:	aa0103e2 	mov	x2, x1
    4ba0:	17fffffb 	b	4b8c <TEE_BigIntMulMod>

0000000000004ba4 <TEE_BigIntInvMod>:
TEE_BigIntInvMod():
/home/build/bsp/optee_os/lib/libutee/tee_api_arith_mpi.c:618
    4ba4:	a9b57bfd 	stp	x29, x30, [sp, #-176]!
    4ba8:	d0000063 	adrp	x3, 12000 <_DYNAMIC>
    4bac:	910003fd 	mov	x29, sp
    4bb0:	f9409863 	ldr	x3, [x3, #304]
    4bb4:	a90153f3 	stp	x19, x20, [sp, #16]
    4bb8:	aa0003f4 	mov	x20, x0
    4bbc:	a9025bf5 	stp	x21, x22, [sp, #32]
    4bc0:	aa0103f5 	mov	x21, x1
    4bc4:	aa0203f6 	mov	x22, x2
    4bc8:	f9001bf7 	str	x23, [sp, #48]
/home/build/bsp/optee_os/lib/libutee/tee_api_arith_mpi.c:624
    4bcc:	52800041 	mov	w1, #0x2                   	// #2
/home/build/bsp/optee_os/lib/libutee/tee_api_arith_mpi.c:618
    4bd0:	f9400060 	ldr	x0, [x3]
    4bd4:	f90057e0 	str	x0, [sp, #168]
    4bd8:	d2800000 	mov	x0, #0x0                   	// #0
/home/build/bsp/optee_os/lib/libutee/tee_api_arith_mpi.c:624
    4bdc:	aa0203e0 	mov	x0, x2
    4be0:	97fffd4f 	bl	411c <TEE_BigIntCmpS32>
    4be4:	36f80100 	tbz	w0, #31, 4c04 <TEE_BigIntInvMod+0x60>
/home/build/bsp/optee_os/lib/libutee/tee_api_arith_mpi.c:625
    4be8:	90000060 	adrp	x0, 10000 <__func__.0+0x28>
    4bec:	9121d400 	add	x0, x0, #0x875
    4bf0:	90000062 	adrp	x2, 10000 <__func__.0+0x28>
    4bf4:	91032400 	add	x0, x0, #0xc9
    4bf8:	9120e042 	add	x2, x2, #0x838
    4bfc:	52804e21 	mov	w1, #0x271                 	// #625
    4c00:	97fffa00 	bl	3400 <api_panic>
/home/build/bsp/optee_os/lib/libutee/tee_api_arith_mpi.c:624 (discriminator 1)
    4c04:	aa1503e0 	mov	x0, x21
    4c08:	52800001 	mov	w1, #0x0                   	// #0
    4c0c:	97fffd44 	bl	411c <TEE_BigIntCmpS32>
    4c10:	34fffec0 	cbz	w0, 4be8 <TEE_BigIntInvMod+0x44>
/home/build/bsp/optee_os/lib/libutee/tee_api_arith_mpi.c:627
    4c14:	910123f3 	add	x19, sp, #0x48
    4c18:	aa1403e1 	mov	x1, x20
    4c1c:	aa1303e0 	mov	x0, x19
/home/build/bsp/optee_os/lib/libutee/tee_api_arith_mpi.c:628
    4c20:	910223f7 	add	x23, sp, #0x88
/home/build/bsp/optee_os/lib/libutee/tee_api_arith_mpi.c:627
    4c24:	97fffa0f 	bl	3460 <get_mpi>
/home/build/bsp/optee_os/lib/libutee/tee_api_arith_mpi.c:628
    4c28:	aa1603e1 	mov	x1, x22
    4c2c:	aa1703e0 	mov	x0, x23
    4c30:	97fffa0c 	bl	3460 <get_mpi>
/home/build/bsp/optee_os/lib/libutee/tee_api_arith_mpi.c:630
    4c34:	9101a3f6 	add	x22, sp, #0x68
    4c38:	eb1402bf 	cmp	x21, x20
    4c3c:	54000200 	b.eq	4c7c <TEE_BigIntInvMod+0xd8>  // b.none
/home/build/bsp/optee_os/lib/libutee/tee_api_arith_mpi.c:633
    4c40:	aa1503e1 	mov	x1, x21
/home/build/bsp/optee_os/lib/libutee/tee_api_arith_mpi.c:622
    4c44:	aa1603f5 	mov	x21, x22
/home/build/bsp/optee_os/lib/libutee/tee_api_arith_mpi.c:633
    4c48:	aa1603e0 	mov	x0, x22
    4c4c:	97fffa05 	bl	3460 <get_mpi>
/home/build/bsp/optee_os/lib/libutee/tee_api_arith_mpi.c:635
    4c50:	aa1703e2 	mov	x2, x23
    4c54:	aa1503e1 	mov	x1, x21
    4c58:	aa1303e0 	mov	x0, x19
    4c5c:	9400135f 	bl	99d8 <mbedtls_mpi_inv_mod>
    4c60:	2a0003e2 	mov	w2, w0
    4c64:	34000100 	cbz	w0, 4c84 <TEE_BigIntInvMod+0xe0>
/home/build/bsp/optee_os/lib/libutee/tee_api_arith_mpi.c:635 (discriminator 1)
    4c68:	52804f61 	mov	w1, #0x27b                 	// #635
/home/build/bsp/optee_os/lib/libutee/tee_api_arith_mpi.c:637 (discriminator 1)
    4c6c:	90000060 	adrp	x0, 10000 <__func__.0+0x28>
    4c70:	9121d400 	add	x0, x0, #0x875
    4c74:	91032400 	add	x0, x0, #0xc9
    4c78:	97fff9ee 	bl	3430 <mpi_panic>
/home/build/bsp/optee_os/lib/libutee/tee_api_arith_mpi.c:631
    4c7c:	aa1303f5 	mov	x21, x19
    4c80:	17fffff4 	b	4c50 <TEE_BigIntInvMod+0xac>
/home/build/bsp/optee_os/lib/libutee/tee_api_arith_mpi.c:637 (discriminator 2)
    4c84:	aa1403e1 	mov	x1, x20
    4c88:	aa1303e0 	mov	x0, x19
    4c8c:	97fffa1b 	bl	34f8 <copy_mpi_to_bigint>
    4c90:	2a0003e2 	mov	w2, w0
    4c94:	34000060 	cbz	w0, 4ca0 <TEE_BigIntInvMod+0xfc>
/home/build/bsp/optee_os/lib/libutee/tee_api_arith_mpi.c:637 (discriminator 1)
    4c98:	52804fa1 	mov	w1, #0x27d                 	// #637
    4c9c:	17fffff4 	b	4c6c <TEE_BigIntInvMod+0xc8>
/home/build/bsp/optee_os/lib/libutee/tee_api_arith_mpi.c:638 (discriminator 2)
    4ca0:	aa1303e0 	mov	x0, x19
    4ca4:	94000937 	bl	7180 <mbedtls_mpi_free>
/home/build/bsp/optee_os/lib/libutee/tee_api_arith_mpi.c:639 (discriminator 2)
    4ca8:	aa1703e0 	mov	x0, x23
    4cac:	94000935 	bl	7180 <mbedtls_mpi_free>
/home/build/bsp/optee_os/lib/libutee/tee_api_arith_mpi.c:640 (discriminator 2)
    4cb0:	eb1602bf 	cmp	x21, x22
    4cb4:	54000061 	b.ne	4cc0 <TEE_BigIntInvMod+0x11c>  // b.any
/home/build/bsp/optee_os/lib/libutee/tee_api_arith_mpi.c:641
    4cb8:	aa1503e0 	mov	x0, x21
    4cbc:	94000931 	bl	7180 <mbedtls_mpi_free>
/home/build/bsp/optee_os/lib/libutee/tee_api_arith_mpi.c:642
    4cc0:	d0000063 	adrp	x3, 12000 <_DYNAMIC>
    4cc4:	f9409863 	ldr	x3, [x3, #304]
    4cc8:	f94057e0 	ldr	x0, [sp, #168]
    4ccc:	f9400061 	ldr	x1, [x3]
    4cd0:	eb010000 	subs	x0, x0, x1
    4cd4:	d2800001 	mov	x1, #0x0                   	// #0
    4cd8:	54000040 	b.eq	4ce0 <TEE_BigIntInvMod+0x13c>  // b.none
    4cdc:	97ffee75 	bl	6b0 <__stack_chk_fail>
    4ce0:	a94153f3 	ldp	x19, x20, [sp, #16]
    4ce4:	a9425bf5 	ldp	x21, x22, [sp, #32]
    4ce8:	f9401bf7 	ldr	x23, [sp, #48]
    4cec:	a8cb7bfd 	ldp	x29, x30, [sp], #176
    4cf0:	d65f03c0 	ret

0000000000004cf4 <TEE_BigIntRelativePrime>:
TEE_BigIntRelativePrime():
/home/build/bsp/optee_os/lib/libutee/tee_api_arith_mpi.c:645
    4cf4:	a9b57bfd 	stp	x29, x30, [sp, #-176]!
    4cf8:	d0000062 	adrp	x2, 12000 <_DYNAMIC>
    4cfc:	910003fd 	mov	x29, sp
    4d00:	f9409842 	ldr	x2, [x2, #304]
    4d04:	a90153f3 	stp	x19, x20, [sp, #16]
    4d08:	aa0003f3 	mov	x19, x0
    4d0c:	a9025bf5 	stp	x21, x22, [sp, #32]
/home/build/bsp/optee_os/lib/libutee/tee_api_arith_mpi.c:652
    4d10:	910123f4 	add	x20, sp, #0x48
/home/build/bsp/optee_os/lib/libutee/tee_api_arith_mpi.c:645
    4d14:	aa0103f5 	mov	x21, x1
    4d18:	f9001bf7 	str	x23, [sp, #48]
/home/build/bsp/optee_os/lib/libutee/tee_api_arith_mpi.c:652
    4d1c:	aa0003e1 	mov	x1, x0
/home/build/bsp/optee_os/lib/libutee/tee_api_arith_mpi.c:645
    4d20:	f9400040 	ldr	x0, [x2]
    4d24:	f90057e0 	str	x0, [sp, #168]
    4d28:	d2800000 	mov	x0, #0x0                   	// #0
/home/build/bsp/optee_os/lib/libutee/tee_api_arith_mpi.c:652
    4d2c:	aa1403e0 	mov	x0, x20
    4d30:	97fff9cc 	bl	3460 <get_mpi>
/home/build/bsp/optee_os/lib/libutee/tee_api_arith_mpi.c:654
    4d34:	eb15027f 	cmp	x19, x21
    4d38:	9101a3f3 	add	x19, sp, #0x68
    4d3c:	54000260 	b.eq	4d88 <TEE_BigIntRelativePrime+0x94>  // b.none
/home/build/bsp/optee_os/lib/libutee/tee_api_arith_mpi.c:649
    4d40:	aa1303f6 	mov	x22, x19
/home/build/bsp/optee_os/lib/libutee/tee_api_arith_mpi.c:657
    4d44:	aa1503e1 	mov	x1, x21
    4d48:	aa1303e0 	mov	x0, x19
    4d4c:	97fff9c5 	bl	3460 <get_mpi>
get_mpi():
/home/build/bsp/optee_os/lib/libutee/tee_api_arith_mpi.c:101
    4d50:	910223f5 	add	x21, sp, #0x88
    4d54:	aa1503e0 	mov	x0, x21
    4d58:	94000900 	bl	7158 <mbedtls_mpi_init_mempool>
TEE_BigIntRelativePrime():
/home/build/bsp/optee_os/lib/libutee/tee_api_arith_mpi.c:661
    4d5c:	aa1303e2 	mov	x2, x19
    4d60:	aa1403e1 	mov	x1, x20
    4d64:	aa1503e0 	mov	x0, x21
    4d68:	940011be 	bl	9460 <mbedtls_mpi_gcd>
    4d6c:	2a0003e2 	mov	w2, w0
    4d70:	34000100 	cbz	w0, 4d90 <TEE_BigIntRelativePrime+0x9c>
/home/build/bsp/optee_os/lib/libutee/tee_api_arith_mpi.c:661 (discriminator 1)
    4d74:	90000060 	adrp	x0, 10000 <__func__.0+0x28>
    4d78:	9121d400 	add	x0, x0, #0x875
    4d7c:	91036800 	add	x0, x0, #0xda
    4d80:	528052a1 	mov	w1, #0x295                 	// #661
    4d84:	97fff9ab 	bl	3430 <mpi_panic>
/home/build/bsp/optee_os/lib/libutee/tee_api_arith_mpi.c:655
    4d88:	aa1403f6 	mov	x22, x20
    4d8c:	17fffff1 	b	4d50 <TEE_BigIntRelativePrime+0x5c>
/home/build/bsp/optee_os/lib/libutee/tee_api_arith_mpi.c:663 (discriminator 2)
    4d90:	52800021 	mov	w1, #0x1                   	// #1
    4d94:	aa1503e0 	mov	x0, x21
    4d98:	94000b4d 	bl	7acc <mbedtls_mpi_cmp_int>
    4d9c:	7100001f 	cmp	w0, #0x0
    4da0:	1a9f17f7 	cset	w23, eq  // eq = none
/home/build/bsp/optee_os/lib/libutee/tee_api_arith_mpi.c:665 (discriminator 2)
    4da4:	aa1503e0 	mov	x0, x21
    4da8:	940008f6 	bl	7180 <mbedtls_mpi_free>
/home/build/bsp/optee_os/lib/libutee/tee_api_arith_mpi.c:666 (discriminator 2)
    4dac:	aa1403e0 	mov	x0, x20
    4db0:	940008f4 	bl	7180 <mbedtls_mpi_free>
/home/build/bsp/optee_os/lib/libutee/tee_api_arith_mpi.c:667 (discriminator 2)
    4db4:	eb1302df 	cmp	x22, x19
    4db8:	54000061 	b.ne	4dc4 <TEE_BigIntRelativePrime+0xd0>  // b.any
/home/build/bsp/optee_os/lib/libutee/tee_api_arith_mpi.c:668
    4dbc:	aa1603e0 	mov	x0, x22
    4dc0:	940008f0 	bl	7180 <mbedtls_mpi_free>
/home/build/bsp/optee_os/lib/libutee/tee_api_arith_mpi.c:671
    4dc4:	d0000062 	adrp	x2, 12000 <_DYNAMIC>
    4dc8:	f9409842 	ldr	x2, [x2, #304]
    4dcc:	f94057e0 	ldr	x0, [sp, #168]
    4dd0:	f9400041 	ldr	x1, [x2]
    4dd4:	eb010000 	subs	x0, x0, x1
    4dd8:	d2800001 	mov	x1, #0x0                   	// #0
    4ddc:	54000040 	b.eq	4de4 <TEE_BigIntRelativePrime+0xf0>  // b.none
    4de0:	97ffee34 	bl	6b0 <__stack_chk_fail>
    4de4:	2a1703e0 	mov	w0, w23
    4de8:	a94153f3 	ldp	x19, x20, [sp, #16]
    4dec:	a9425bf5 	ldp	x21, x22, [sp, #32]
    4df0:	f9401bf7 	ldr	x23, [sp, #48]
    4df4:	a8cb7bfd 	ldp	x29, x30, [sp], #176
    4df8:	d65f03c0 	ret

0000000000004dfc <TEE_BigIntExpMod>:
TEE_BigIntExpMod():
/home/build/bsp/optee_os/lib/libutee/tee_api_arith_mpi.c:686
    4dfc:	a9b27bfd 	stp	x29, x30, [sp, #-224]!
    4e00:	d0000064 	adrp	x4, 12000 <_DYNAMIC>
    4e04:	910003fd 	mov	x29, sp
    4e08:	f9409884 	ldr	x4, [x4, #304]
    4e0c:	a90153f3 	stp	x19, x20, [sp, #16]
    4e10:	aa0003f4 	mov	x20, x0
    4e14:	a9025bf5 	stp	x21, x22, [sp, #32]
/home/build/bsp/optee_os/lib/libutee/tee_api_arith_mpi.c:695
    4e18:	910163f3 	add	x19, sp, #0x58
/home/build/bsp/optee_os/lib/libutee/tee_api_arith_mpi.c:686
    4e1c:	aa0303f6 	mov	x22, x3
    4e20:	a90363f7 	stp	x23, x24, [sp, #48]
    4e24:	aa0203f5 	mov	x21, x2
    4e28:	aa0103f8 	mov	x24, x1
    4e2c:	a9046bf9 	stp	x25, x26, [sp, #64]
/home/build/bsp/optee_os/lib/libutee/tee_api_arith_mpi.c:695
    4e30:	aa1403e1 	mov	x1, x20
/home/build/bsp/optee_os/lib/libutee/tee_api_arith_mpi.c:696
    4e34:	9102e3f7 	add	x23, sp, #0xb8
/home/build/bsp/optee_os/lib/libutee/tee_api_arith_mpi.c:686
    4e38:	f9400080 	ldr	x0, [x4]
    4e3c:	f9006fe0 	str	x0, [sp, #216]
    4e40:	d2800000 	mov	x0, #0x0                   	// #0
/home/build/bsp/optee_os/lib/libutee/tee_api_arith_mpi.c:688
    4e44:	a905ffff 	stp	xzr, xzr, [sp, #88]
/home/build/bsp/optee_os/lib/libutee/tee_api_arith_mpi.c:695
    4e48:	aa1303e0 	mov	x0, x19
/home/build/bsp/optee_os/lib/libutee/tee_api_arith_mpi.c:688
    4e4c:	a906ffff 	stp	xzr, xzr, [sp, #104]
/home/build/bsp/optee_os/lib/libutee/tee_api_arith_mpi.c:689
    4e50:	9101e3fa 	add	x26, sp, #0x78
    4e54:	a907ffff 	stp	xzr, xzr, [sp, #120]
    4e58:	a908ffff 	stp	xzr, xzr, [sp, #136]
/home/build/bsp/optee_os/lib/libutee/tee_api_arith_mpi.c:690
    4e5c:	a909ffff 	stp	xzr, xzr, [sp, #152]
    4e60:	a90affff 	stp	xzr, xzr, [sp, #168]
/home/build/bsp/optee_os/lib/libutee/tee_api_arith_mpi.c:691
    4e64:	a90bffff 	stp	xzr, xzr, [sp, #184]
    4e68:	a90cffff 	stp	xzr, xzr, [sp, #200]
/home/build/bsp/optee_os/lib/libutee/tee_api_arith_mpi.c:695
    4e6c:	97fff97d 	bl	3460 <get_mpi>
/home/build/bsp/optee_os/lib/libutee/tee_api_arith_mpi.c:696
    4e70:	aa1603e1 	mov	x1, x22
    4e74:	aa1703e0 	mov	x0, x23
    4e78:	97fff97a 	bl	3460 <get_mpi>
/home/build/bsp/optee_os/lib/libutee/tee_api_arith_mpi.c:697
    4e7c:	eb18029f 	cmp	x20, x24
    4e80:	54000340 	b.eq	4ee8 <TEE_BigIntExpMod+0xec>  // b.none
/home/build/bsp/optee_os/lib/libutee/tee_api_arith_mpi.c:692
    4e84:	aa1a03f6 	mov	x22, x26
/home/build/bsp/optee_os/lib/libutee/tee_api_arith_mpi.c:700
    4e88:	aa1803e1 	mov	x1, x24
    4e8c:	aa1a03e0 	mov	x0, x26
    4e90:	97fff974 	bl	3460 <get_mpi>
/home/build/bsp/optee_os/lib/libutee/tee_api_arith_mpi.c:702
    4e94:	eb15029f 	cmp	x20, x21
    4e98:	910263f9 	add	x25, sp, #0x98
    4e9c:	540002a0 	b.eq	4ef0 <TEE_BigIntExpMod+0xf4>  // b.none
/home/build/bsp/optee_os/lib/libutee/tee_api_arith_mpi.c:704
    4ea0:	eb15031f 	cmp	x24, x21
    4ea4:	540002a0 	b.eq	4ef8 <TEE_BigIntExpMod+0xfc>  // b.none
/home/build/bsp/optee_os/lib/libutee/tee_api_arith_mpi.c:707
    4ea8:	aa1503e1 	mov	x1, x21
/home/build/bsp/optee_os/lib/libutee/tee_api_arith_mpi.c:693
    4eac:	aa1903f5 	mov	x21, x25
/home/build/bsp/optee_os/lib/libutee/tee_api_arith_mpi.c:707
    4eb0:	aa1903e0 	mov	x0, x25
    4eb4:	97fff96b 	bl	3460 <get_mpi>
/home/build/bsp/optee_os/lib/libutee/tee_api_arith_mpi.c:709
    4eb8:	aa1703e0 	mov	x0, x23
    4ebc:	52800041 	mov	w1, #0x2                   	// #2
    4ec0:	94000b03 	bl	7acc <mbedtls_mpi_cmp_int>
    4ec4:	7100001f 	cmp	w0, #0x0
    4ec8:	540001cc 	b.gt	4f00 <TEE_BigIntExpMod+0x104>
/home/build/bsp/optee_os/lib/libutee/tee_api_arith_mpi.c:710
    4ecc:	90000060 	adrp	x0, 10000 <__func__.0+0x28>
    4ed0:	9121d400 	add	x0, x0, #0x875
    4ed4:	90000062 	adrp	x2, 10000 <__func__.0+0x28>
    4ed8:	9103c800 	add	x0, x0, #0xf2
    4edc:	91218c42 	add	x2, x2, #0x863
    4ee0:	528058c1 	mov	w1, #0x2c6                 	// #710
    4ee4:	97fff947 	bl	3400 <api_panic>
/home/build/bsp/optee_os/lib/libutee/tee_api_arith_mpi.c:698
    4ee8:	aa1303f6 	mov	x22, x19
    4eec:	17ffffea 	b	4e94 <TEE_BigIntExpMod+0x98>
/home/build/bsp/optee_os/lib/libutee/tee_api_arith_mpi.c:703
    4ef0:	aa1303f5 	mov	x21, x19
    4ef4:	17fffff1 	b	4eb8 <TEE_BigIntExpMod+0xbc>
/home/build/bsp/optee_os/lib/libutee/tee_api_arith_mpi.c:705
    4ef8:	aa1603f5 	mov	x21, x22
    4efc:	17ffffef 	b	4eb8 <TEE_BigIntExpMod+0xbc>
/home/build/bsp/optee_os/lib/libutee/tee_api_arith_mpi.c:711
    4f00:	aa1703e0 	mov	x0, x23
    4f04:	97fff9e9 	bl	36a8 <mpi_is_odd>
    4f08:	72001c1f 	tst	w0, #0xff
    4f0c:	540002c0 	b.eq	4f64 <TEE_BigIntExpMod+0x168>  // b.none
/home/build/bsp/optee_os/lib/libutee/tee_api_arith_mpi.c:716
    4f10:	aa1503e2 	mov	x2, x21
    4f14:	aa1703e3 	mov	x3, x23
    4f18:	aa1603e1 	mov	x1, x22
    4f1c:	aa1303e0 	mov	x0, x19
    4f20:	d2800004 	mov	x4, #0x0                   	// #0
    4f24:	94000fa9 	bl	8dc8 <mbedtls_mpi_exp_mod>
    4f28:	2a0003e2 	mov	w2, w0
    4f2c:	340000c0 	cbz	w0, 4f44 <TEE_BigIntExpMod+0x148>
/home/build/bsp/optee_os/lib/libutee/tee_api_arith_mpi.c:716 (discriminator 1)
    4f30:	52805981 	mov	w1, #0x2cc                 	// #716
/home/build/bsp/optee_os/lib/libutee/tee_api_arith_mpi.c:717 (discriminator 1)
    4f34:	90000060 	adrp	x0, 10000 <__func__.0+0x28>
    4f38:	9121d400 	add	x0, x0, #0x875
    4f3c:	9103c800 	add	x0, x0, #0xf2
    4f40:	97fff93c 	bl	3430 <mpi_panic>
/home/build/bsp/optee_os/lib/libutee/tee_api_arith_mpi.c:717 (discriminator 2)
    4f44:	aa1403e1 	mov	x1, x20
    4f48:	aa1303e0 	mov	x0, x19
/home/build/bsp/optee_os/lib/libutee/tee_api_arith_mpi.c:687 (discriminator 2)
    4f4c:	52800014 	mov	w20, #0x0                   	// #0
/home/build/bsp/optee_os/lib/libutee/tee_api_arith_mpi.c:717 (discriminator 2)
    4f50:	97fff96a 	bl	34f8 <copy_mpi_to_bigint>
    4f54:	2a0003e2 	mov	w2, w0
    4f58:	34000080 	cbz	w0, 4f68 <TEE_BigIntExpMod+0x16c>
/home/build/bsp/optee_os/lib/libutee/tee_api_arith_mpi.c:717 (discriminator 1)
    4f5c:	528059a1 	mov	w1, #0x2cd                 	// #717
    4f60:	17fffff5 	b	4f34 <TEE_BigIntExpMod+0x138>
/home/build/bsp/optee_os/lib/libutee/tee_api_arith_mpi.c:712
    4f64:	129ffeb4 	mov	w20, #0xffff000a            	// #-65526
/home/build/bsp/optee_os/lib/libutee/tee_api_arith_mpi.c:719 (discriminator 2)
    4f68:	aa1303e0 	mov	x0, x19
    4f6c:	94000885 	bl	7180 <mbedtls_mpi_free>
/home/build/bsp/optee_os/lib/libutee/tee_api_arith_mpi.c:720 (discriminator 2)
    4f70:	aa1703e0 	mov	x0, x23
    4f74:	94000883 	bl	7180 <mbedtls_mpi_free>
/home/build/bsp/optee_os/lib/libutee/tee_api_arith_mpi.c:721 (discriminator 2)
    4f78:	eb1a02df 	cmp	x22, x26
    4f7c:	54000061 	b.ne	4f88 <TEE_BigIntExpMod+0x18c>  // b.any
/home/build/bsp/optee_os/lib/libutee/tee_api_arith_mpi.c:722
    4f80:	aa1603e0 	mov	x0, x22
    4f84:	9400087f 	bl	7180 <mbedtls_mpi_free>
/home/build/bsp/optee_os/lib/libutee/tee_api_arith_mpi.c:723
    4f88:	eb1902bf 	cmp	x21, x25
    4f8c:	54000061 	b.ne	4f98 <TEE_BigIntExpMod+0x19c>  // b.any
/home/build/bsp/optee_os/lib/libutee/tee_api_arith_mpi.c:724
    4f90:	aa1503e0 	mov	x0, x21
    4f94:	9400087b 	bl	7180 <mbedtls_mpi_free>
/home/build/bsp/optee_os/lib/libutee/tee_api_arith_mpi.c:727
    4f98:	d0000064 	adrp	x4, 12000 <_DYNAMIC>
    4f9c:	f9409884 	ldr	x4, [x4, #304]
    4fa0:	f9406fe0 	ldr	x0, [sp, #216]
    4fa4:	f9400081 	ldr	x1, [x4]
    4fa8:	eb010000 	subs	x0, x0, x1
    4fac:	d2800001 	mov	x1, #0x0                   	// #0
    4fb0:	54000040 	b.eq	4fb8 <TEE_BigIntExpMod+0x1bc>  // b.none
    4fb4:	97ffedbf 	bl	6b0 <__stack_chk_fail>
    4fb8:	2a1403e0 	mov	w0, w20
    4fbc:	a94153f3 	ldp	x19, x20, [sp, #16]
    4fc0:	a9425bf5 	ldp	x21, x22, [sp, #32]
    4fc4:	a94363f7 	ldp	x23, x24, [sp, #48]
    4fc8:	a9446bf9 	ldp	x25, x26, [sp, #64]
    4fcc:	a8ce7bfd 	ldp	x29, x30, [sp], #224
    4fd0:	d65f03c0 	ret

0000000000004fd4 <TEE_BigIntComputeExtendedGcd>:
TEE_BigIntComputeExtendedGcd():
/home/build/bsp/optee_os/lib/libutee/tee_api_arith_mpi.c:824
    4fd4:	a9ae7bfd 	stp	x29, x30, [sp, #-288]!
    4fd8:	910003fd 	mov	x29, sp
    4fdc:	a9046bf9 	stp	x25, x26, [sp, #64]
    4fe0:	aa0003fa 	mov	x26, x0
    4fe4:	d0000060 	adrp	x0, 12000 <_DYNAMIC>
    4fe8:	a90153f3 	stp	x19, x20, [sp, #16]
    4fec:	aa0103f9 	mov	x25, x1
    4ff0:	aa0403f3 	mov	x19, x4
    4ff4:	f9409800 	ldr	x0, [x0, #304]
    4ff8:	a9025bf5 	stp	x21, x22, [sp, #32]
/home/build/bsp/optee_os/lib/libutee/tee_api_arith_mpi.c:830
    4ffc:	9101e3f5 	add	x21, sp, #0x78
/home/build/bsp/optee_os/lib/libutee/tee_api_arith_mpi.c:824
    5000:	a90363f7 	stp	x23, x24, [sp, #48]
    5004:	aa0303f6 	mov	x22, x3
    5008:	aa0203f8 	mov	x24, x2
    500c:	a90573fb 	stp	x27, x28, [sp, #80]
/home/build/bsp/optee_os/lib/libutee/tee_api_arith_mpi.c:831
    5010:	910263f4 	add	x20, sp, #0x98
    5014:	9102e3fb 	add	x27, sp, #0xb8
/home/build/bsp/optee_os/lib/libutee/tee_api_arith_mpi.c:824
    5018:	f9400001 	ldr	x1, [x0]
    501c:	f9008fe1 	str	x1, [sp, #280]
    5020:	d2800001 	mov	x1, #0x0                   	// #0
/home/build/bsp/optee_os/lib/libutee/tee_api_arith_mpi.c:830
    5024:	aa1503e0 	mov	x0, x21
    5028:	aa1a03e1 	mov	x1, x26
    502c:	97fff90d 	bl	3460 <get_mpi>
/home/build/bsp/optee_os/lib/libutee/tee_api_arith_mpi.c:831
    5030:	aa1603e1 	mov	x1, x22
    5034:	aa1403e0 	mov	x0, x20
    5038:	97fff90a 	bl	3460 <get_mpi>
/home/build/bsp/optee_os/lib/libutee/tee_api_arith_mpi.c:833
    503c:	eb1302df 	cmp	x22, x19
    5040:	54000240 	b.eq	5088 <TEE_BigIntComputeExtendedGcd+0xb4>  // b.none
/home/build/bsp/optee_os/lib/libutee/tee_api_arith_mpi.c:836
    5044:	aa1303e1 	mov	x1, x19
/home/build/bsp/optee_os/lib/libutee/tee_api_arith_mpi.c:828
    5048:	aa1b03f3 	mov	x19, x27
/home/build/bsp/optee_os/lib/libutee/tee_api_arith_mpi.c:836
    504c:	aa1b03e0 	mov	x0, x27
    5050:	97fff904 	bl	3460 <get_mpi>
/home/build/bsp/optee_os/lib/libutee/tee_api_arith_mpi.c:838
    5054:	aa180320 	orr	x0, x25, x24
    5058:	b50001c0 	cbnz	x0, 5090 <TEE_BigIntComputeExtendedGcd+0xbc>
/home/build/bsp/optee_os/lib/libutee/tee_api_arith_mpi.c:839
    505c:	aa1303e2 	mov	x2, x19
    5060:	aa1403e1 	mov	x1, x20
    5064:	aa1503e0 	mov	x0, x21
    5068:	940010fe 	bl	9460 <mbedtls_mpi_gcd>
    506c:	2a0003e2 	mov	w2, w0
    5070:	34000ae0 	cbz	w0, 51cc <TEE_BigIntComputeExtendedGcd+0x1f8>
/home/build/bsp/optee_os/lib/libutee/tee_api_arith_mpi.c:839 (discriminator 1)
    5074:	528068e1 	mov	w1, #0x347                 	// #839
/home/build/bsp/optee_os/lib/libutee/tee_api_arith_mpi.c:855 (discriminator 1)
    5078:	f0000040 	adrp	x0, 10000 <__func__.0+0x28>
    507c:	9121d400 	add	x0, x0, #0x875
    5080:	91040c00 	add	x0, x0, #0x103
    5084:	97fff8eb 	bl	3430 <mpi_panic>
/home/build/bsp/optee_os/lib/libutee/tee_api_arith_mpi.c:834
    5088:	aa1403f3 	mov	x19, x20
    508c:	17fffff2 	b	5054 <TEE_BigIntComputeExtendedGcd+0x80>
/home/build/bsp/optee_os/lib/libutee/tee_api_arith_mpi.c:843
    5090:	39c263e0 	ldrsb	w0, [sp, #152]
/home/build/bsp/optee_os/lib/libutee/tee_api_arith_mpi.c:847
    5094:	5280003c 	mov	w28, #0x1                   	// #1
/home/build/bsp/optee_os/lib/libutee/tee_api_arith_mpi.c:843
    5098:	b9006be0 	str	w0, [sp, #104]
/home/build/bsp/optee_os/lib/libutee/tee_api_arith_mpi.c:850
    509c:	910363f7 	add	x23, sp, #0xd8
/home/build/bsp/optee_os/lib/libutee/tee_api_arith_mpi.c:844
    50a0:	39c00260 	ldrsb	w0, [x19]
/home/build/bsp/optee_os/lib/libutee/tee_api_arith_mpi.c:850
    50a4:	aa1903e1 	mov	x1, x25
/home/build/bsp/optee_os/lib/libutee/tee_api_arith_mpi.c:847
    50a8:	b9009bfc 	str	w28, [sp, #152]
/home/build/bsp/optee_os/lib/libutee/tee_api_arith_mpi.c:851
    50ac:	9103e3f6 	add	x22, sp, #0xf8
/home/build/bsp/optee_os/lib/libutee/tee_api_arith_mpi.c:848
    50b0:	b900027c 	str	w28, [x19]
/home/build/bsp/optee_os/lib/libutee/tee_api_arith_mpi.c:844
    50b4:	b9006fe0 	str	w0, [sp, #108]
/home/build/bsp/optee_os/lib/libutee/tee_api_arith_mpi.c:850
    50b8:	aa1703e0 	mov	x0, x23
    50bc:	97fff8e9 	bl	3460 <get_mpi>
/home/build/bsp/optee_os/lib/libutee/tee_api_arith_mpi.c:851
    50c0:	aa1803e1 	mov	x1, x24
    50c4:	aa1603e0 	mov	x0, x22
    50c8:	97fff8e6 	bl	3460 <get_mpi>
/home/build/bsp/optee_os/lib/libutee/tee_api_arith_mpi.c:853
    50cc:	aa1303e1 	mov	x1, x19
    50d0:	aa1403e0 	mov	x0, x20
    50d4:	94000a23 	bl	7960 <mbedtls_mpi_cmp_abs>
/home/build/bsp/optee_os/lib/libutee/tee_api_arith_mpi.c:854
    50d8:	7100001f 	cmp	w0, #0x0
    50dc:	350002c0 	cbnz	w0, 5134 <TEE_BigIntComputeExtendedGcd+0x160>
/home/build/bsp/optee_os/lib/libutee/tee_api_arith_mpi.c:855
    50e0:	aa1403e1 	mov	x1, x20
    50e4:	aa1503e0 	mov	x0, x21
    50e8:	940008dc 	bl	7458 <mbedtls_mpi_copy>
    50ec:	2a0003e2 	mov	w2, w0
    50f0:	34000060 	cbz	w0, 50fc <TEE_BigIntComputeExtendedGcd+0x128>
/home/build/bsp/optee_os/lib/libutee/tee_api_arith_mpi.c:855 (discriminator 1)
    50f4:	52806ae1 	mov	w1, #0x357                 	// #855
    50f8:	17ffffe0 	b	5078 <TEE_BigIntComputeExtendedGcd+0xa4>
/home/build/bsp/optee_os/lib/libutee/tee_api_arith_mpi.c:856 (discriminator 2)
    50fc:	2a1c03e1 	mov	w1, w28
    5100:	aa1703e0 	mov	x0, x23
    5104:	9400092b 	bl	75b0 <mbedtls_mpi_lset>
    5108:	2a0003e2 	mov	w2, w0
    510c:	34000060 	cbz	w0, 5118 <TEE_BigIntComputeExtendedGcd+0x144>
/home/build/bsp/optee_os/lib/libutee/tee_api_arith_mpi.c:856 (discriminator 1)
    5110:	52806b01 	mov	w1, #0x358                 	// #856
    5114:	17ffffd9 	b	5078 <TEE_BigIntComputeExtendedGcd+0xa4>
/home/build/bsp/optee_os/lib/libutee/tee_api_arith_mpi.c:857 (discriminator 2)
    5118:	aa1603e0 	mov	x0, x22
    511c:	52800001 	mov	w1, #0x0                   	// #0
    5120:	94000924 	bl	75b0 <mbedtls_mpi_lset>
    5124:	2a0003e2 	mov	w2, w0
    5128:	34000140 	cbz	w0, 5150 <TEE_BigIntComputeExtendedGcd+0x17c>
/home/build/bsp/optee_os/lib/libutee/tee_api_arith_mpi.c:857 (discriminator 1)
    512c:	52806b21 	mov	w1, #0x359                 	// #857
    5130:	17ffffd2 	b	5078 <TEE_BigIntComputeExtendedGcd+0xa4>
/home/build/bsp/optee_os/lib/libutee/tee_api_arith_mpi.c:858
    5134:	540002cd 	b.le	518c <TEE_BigIntComputeExtendedGcd+0x1b8>
/home/build/bsp/optee_os/lib/libutee/tee_api_arith_mpi.c:859
    5138:	aa1303e4 	mov	x4, x19
    513c:	aa1403e3 	mov	x3, x20
    5140:	aa1603e2 	mov	x2, x22
    5144:	aa1703e1 	mov	x1, x23
/home/build/bsp/optee_os/lib/libutee/tee_api_arith_mpi.c:861
    5148:	aa1503e0 	mov	x0, x21
    514c:	97fff969 	bl	36f0 <mpi_egcd>
/home/build/bsp/optee_os/lib/libutee/tee_api_arith_mpi.c:864
    5150:	b9406be1 	ldr	w1, [sp, #104]
    5154:	b940dbe0 	ldr	w0, [sp, #216]
    5158:	1b017c00 	mul	w0, w0, w1
/home/build/bsp/optee_os/lib/libutee/tee_api_arith_mpi.c:865
    515c:	b9406fe1 	ldr	w1, [sp, #108]
/home/build/bsp/optee_os/lib/libutee/tee_api_arith_mpi.c:864
    5160:	b900dbe0 	str	w0, [sp, #216]
/home/build/bsp/optee_os/lib/libutee/tee_api_arith_mpi.c:865
    5164:	b940fbe0 	ldr	w0, [sp, #248]
    5168:	1b017c00 	mul	w0, w0, w1
/home/build/bsp/optee_os/lib/libutee/tee_api_arith_mpi.c:867
    516c:	aa1903e1 	mov	x1, x25
/home/build/bsp/optee_os/lib/libutee/tee_api_arith_mpi.c:865
    5170:	b900fbe0 	str	w0, [sp, #248]
/home/build/bsp/optee_os/lib/libutee/tee_api_arith_mpi.c:867
    5174:	aa1703e0 	mov	x0, x23
    5178:	97fff8e0 	bl	34f8 <copy_mpi_to_bigint>
    517c:	2a0003e2 	mov	w2, w0
    5180:	34000100 	cbz	w0, 51a0 <TEE_BigIntComputeExtendedGcd+0x1cc>
/home/build/bsp/optee_os/lib/libutee/tee_api_arith_mpi.c:867 (discriminator 1)
    5184:	52806c61 	mov	w1, #0x363                 	// #867
    5188:	17ffffbc 	b	5078 <TEE_BigIntComputeExtendedGcd+0xa4>
/home/build/bsp/optee_os/lib/libutee/tee_api_arith_mpi.c:861
    518c:	aa1403e4 	mov	x4, x20
    5190:	aa1303e3 	mov	x3, x19
    5194:	aa1703e2 	mov	x2, x23
    5198:	aa1603e1 	mov	x1, x22
    519c:	17ffffeb 	b	5148 <TEE_BigIntComputeExtendedGcd+0x174>
/home/build/bsp/optee_os/lib/libutee/tee_api_arith_mpi.c:868 (discriminator 2)
    51a0:	aa1803e1 	mov	x1, x24
    51a4:	aa1603e0 	mov	x0, x22
    51a8:	97fff8d4 	bl	34f8 <copy_mpi_to_bigint>
    51ac:	2a0003e2 	mov	w2, w0
    51b0:	34000060 	cbz	w0, 51bc <TEE_BigIntComputeExtendedGcd+0x1e8>
/home/build/bsp/optee_os/lib/libutee/tee_api_arith_mpi.c:868 (discriminator 1)
    51b4:	52806c81 	mov	w1, #0x364                 	// #868
    51b8:	17ffffb0 	b	5078 <TEE_BigIntComputeExtendedGcd+0xa4>
/home/build/bsp/optee_os/lib/libutee/tee_api_arith_mpi.c:869 (discriminator 2)
    51bc:	aa1703e0 	mov	x0, x23
    51c0:	940007f0 	bl	7180 <mbedtls_mpi_free>
/home/build/bsp/optee_os/lib/libutee/tee_api_arith_mpi.c:870 (discriminator 2)
    51c4:	aa1603e0 	mov	x0, x22
    51c8:	940007ee 	bl	7180 <mbedtls_mpi_free>
/home/build/bsp/optee_os/lib/libutee/tee_api_arith_mpi.c:873
    51cc:	aa1a03e1 	mov	x1, x26
    51d0:	aa1503e0 	mov	x0, x21
    51d4:	97fff8c9 	bl	34f8 <copy_mpi_to_bigint>
    51d8:	2a0003e2 	mov	w2, w0
    51dc:	34000060 	cbz	w0, 51e8 <TEE_BigIntComputeExtendedGcd+0x214>
/home/build/bsp/optee_os/lib/libutee/tee_api_arith_mpi.c:873 (discriminator 1)
    51e0:	52806d21 	mov	w1, #0x369                 	// #873
    51e4:	17ffffa5 	b	5078 <TEE_BigIntComputeExtendedGcd+0xa4>
/home/build/bsp/optee_os/lib/libutee/tee_api_arith_mpi.c:874 (discriminator 2)
    51e8:	aa1503e0 	mov	x0, x21
    51ec:	940007e5 	bl	7180 <mbedtls_mpi_free>
/home/build/bsp/optee_os/lib/libutee/tee_api_arith_mpi.c:875 (discriminator 2)
    51f0:	aa1403e0 	mov	x0, x20
    51f4:	940007e3 	bl	7180 <mbedtls_mpi_free>
/home/build/bsp/optee_os/lib/libutee/tee_api_arith_mpi.c:876 (discriminator 2)
    51f8:	eb1b027f 	cmp	x19, x27
    51fc:	54000061 	b.ne	5208 <TEE_BigIntComputeExtendedGcd+0x234>  // b.any
/home/build/bsp/optee_os/lib/libutee/tee_api_arith_mpi.c:877
    5200:	aa1303e0 	mov	x0, x19
    5204:	940007df 	bl	7180 <mbedtls_mpi_free>
/home/build/bsp/optee_os/lib/libutee/tee_api_arith_mpi.c:878
    5208:	b0000060 	adrp	x0, 12000 <_DYNAMIC>
    520c:	f9409800 	ldr	x0, [x0, #304]
    5210:	f9408fe2 	ldr	x2, [sp, #280]
    5214:	f9400001 	ldr	x1, [x0]
    5218:	eb010042 	subs	x2, x2, x1
    521c:	d2800001 	mov	x1, #0x0                   	// #0
    5220:	54000040 	b.eq	5228 <TEE_BigIntComputeExtendedGcd+0x254>  // b.none
    5224:	97ffed23 	bl	6b0 <__stack_chk_fail>
    5228:	a94153f3 	ldp	x19, x20, [sp, #16]
    522c:	a9425bf5 	ldp	x21, x22, [sp, #32]
    5230:	a94363f7 	ldp	x23, x24, [sp, #48]
    5234:	a9446bf9 	ldp	x25, x26, [sp, #64]
    5238:	a94573fb 	ldp	x27, x28, [sp, #80]
    523c:	a8d27bfd 	ldp	x29, x30, [sp], #288
    5240:	d65f03c0 	ret

0000000000005244 <TEE_BigIntIsProbablePrime>:
TEE_BigIntIsProbablePrime():
/home/build/bsp/optee_os/lib/libutee/tee_api_arith_mpi.c:889
    5244:	a9ba7bfd 	stp	x29, x30, [sp, #-96]!
    5248:	910003fd 	mov	x29, sp
    524c:	a90153f3 	stp	x19, x20, [sp, #16]
    5250:	b0000074 	adrp	x20, 12000 <_DYNAMIC>
/home/build/bsp/optee_os/lib/libutee/tee_api_arith_mpi.c:893
    5254:	9100e3f3 	add	x19, sp, #0x38
/home/build/bsp/optee_os/lib/libutee/tee_api_arith_mpi.c:889
    5258:	f90013f5 	str	x21, [sp, #32]
    525c:	2a0103f5 	mov	w21, w1
    5260:	f9409a81 	ldr	x1, [x20, #304]
    5264:	f9400022 	ldr	x2, [x1]
    5268:	f9002fe2 	str	x2, [sp, #88]
    526c:	d2800002 	mov	x2, #0x0                   	// #0
/home/build/bsp/optee_os/lib/libutee/tee_api_arith_mpi.c:893
    5270:	aa0003e1 	mov	x1, x0
    5274:	aa1303e0 	mov	x0, x19
    5278:	97fff87a 	bl	3460 <get_mpi>
/home/build/bsp/optee_os/lib/libutee/tee_api_arith_mpi.c:895
    527c:	710142bf 	cmp	w21, #0x50
    5280:	d0ffffe2 	adrp	x2, 3000 <TEE_MemCompare>
    5284:	52800a01 	mov	w1, #0x50                  	// #80
    5288:	911b2042 	add	x2, x2, #0x6c8
    528c:	1a8122a1 	csel	w1, w21, w1, cs  // cs = hs, nlast
    5290:	d2800003 	mov	x3, #0x0                   	// #0
    5294:	aa1303e0 	mov	x0, x19
    5298:	940012e6 	bl	9e30 <mbedtls_mpi_is_prime_ext>
    529c:	2a0003f5 	mov	w21, w0
/home/build/bsp/optee_os/lib/libutee/tee_api_arith_mpi.c:898
    52a0:	aa1303e0 	mov	x0, x19
    52a4:	940007b7 	bl	7180 <mbedtls_mpi_free>
/home/build/bsp/optee_os/lib/libutee/tee_api_arith_mpi.c:904
    52a8:	f9409a94 	ldr	x20, [x20, #304]
/home/build/bsp/optee_os/lib/libutee/tee_api_arith_mpi.c:900
    52ac:	710002bf 	cmp	w21, #0x0
    52b0:	1a9f17e0 	cset	w0, eq  // eq = none
/home/build/bsp/optee_os/lib/libutee/tee_api_arith_mpi.c:904
    52b4:	f9402fe1 	ldr	x1, [sp, #88]
    52b8:	f9400282 	ldr	x2, [x20]
    52bc:	eb020021 	subs	x1, x1, x2
    52c0:	d2800002 	mov	x2, #0x0                   	// #0
    52c4:	54000040 	b.eq	52cc <TEE_BigIntIsProbablePrime+0x88>  // b.none
    52c8:	97ffecfa 	bl	6b0 <__stack_chk_fail>
    52cc:	a94153f3 	ldp	x19, x20, [sp, #16]
    52d0:	f94013f5 	ldr	x21, [sp, #32]
    52d4:	a8c67bfd 	ldp	x29, x30, [sp], #96
    52d8:	d65f03c0 	ret

00000000000052dc <TEE_BigIntInitFMM>:
TEE_BigIntInitFMM():
/home/build/bsp/optee_os/lib/libutee/tee_api_arith_mpi.c:916
    52dc:	17fffa76 	b	3cb4 <TEE_BigIntInit>

00000000000052e0 <__GP11_TEE_BigIntInitFMM>:
__GP11_TEE_BigIntInitFMM():
/home/build/bsp/optee_os/lib/libutee/tee_api_arith_mpi.c:921
    52e0:	2a0103e1 	mov	w1, w1
    52e4:	17fffffe 	b	52dc <TEE_BigIntInitFMM>

00000000000052e8 <TEE_BigIntInitFMMContext>:
TEE_BigIntInitFMMContext():
/home/build/bsp/optee_os/lib/libutee/tee_api_arith_mpi.c:928
    52e8:	d65f03c0 	ret

00000000000052ec <__GP11_TEE_BigIntInitFMMContext>:
__GP11_TEE_BigIntInitFMMContext():
/home/build/bsp/optee_os/lib/libutee/tee_api_arith_mpi.c:933
    52ec:	2a0103e1 	mov	w1, w1
    52f0:	17fffffe 	b	52e8 <TEE_BigIntInitFMMContext>

00000000000052f4 <TEE_BigIntInitFMMContext1>:
TEE_BigIntInitFMMContext1():
/home/build/bsp/optee_os/lib/libutee/tee_api_arith_mpi.c:941
    52f4:	52800000 	mov	w0, #0x0                   	// #0
    52f8:	d65f03c0 	ret

00000000000052fc <TEE_BigIntFMMSizeInU32>:
TEE_BigIntFMMSizeInU32():
/home/build/bsp/optee_os/lib/libutee/tee_api_arith_mpi.c:945
    52fc:	91007c00 	add	x0, x0, #0x1f
    5300:	d345fc00 	lsr	x0, x0, #5
/home/build/bsp/optee_os/lib/libutee/tee_api_arith_mpi.c:946
    5304:	91000800 	add	x0, x0, #0x2
    5308:	d65f03c0 	ret

000000000000530c <__GP11_TEE_BigIntFMMSizeInU32>:
__GP11_TEE_BigIntFMMSizeInU32():
/home/build/bsp/optee_os/lib/libutee/tee_api_arith_mpi.c:949
    530c:	a9bf7bfd 	stp	x29, x30, [sp, #-16]!
/home/build/bsp/optee_os/lib/libutee/tee_api_arith_mpi.c:950
    5310:	2a0003e0 	mov	w0, w0
/home/build/bsp/optee_os/lib/libutee/tee_api_arith_mpi.c:949
    5314:	910003fd 	mov	x29, sp
/home/build/bsp/optee_os/lib/libutee/tee_api_arith_mpi.c:950
    5318:	97fffff9 	bl	52fc <TEE_BigIntFMMSizeInU32>
/home/build/bsp/optee_os/lib/libutee/tee_api_arith_mpi.c:951
    531c:	a8c17bfd 	ldp	x29, x30, [sp], #16
    5320:	d65f03c0 	ret

0000000000005324 <TEE_BigIntFMMContextSizeInU32>:
TEE_BigIntFMMContextSizeInU32():
/home/build/bsp/optee_os/lib/libutee/tee_api_arith_mpi.c:957
    5324:	d2800020 	mov	x0, #0x1                   	// #1
    5328:	d65f03c0 	ret

000000000000532c <__GP11_TEE_BigIntFMMContextSizeInU32>:
__GP11_TEE_BigIntFMMContextSizeInU32():
/home/build/bsp/optee_os/lib/libutee/tee_api_arith_mpi.c:960
    532c:	a9bf7bfd 	stp	x29, x30, [sp, #-16]!
/home/build/bsp/optee_os/lib/libutee/tee_api_arith_mpi.c:961
    5330:	2a0003e0 	mov	w0, w0
/home/build/bsp/optee_os/lib/libutee/tee_api_arith_mpi.c:960
    5334:	910003fd 	mov	x29, sp
/home/build/bsp/optee_os/lib/libutee/tee_api_arith_mpi.c:961
    5338:	97fffffb 	bl	5324 <TEE_BigIntFMMContextSizeInU32>
/home/build/bsp/optee_os/lib/libutee/tee_api_arith_mpi.c:962
    533c:	a8c17bfd 	ldp	x29, x30, [sp], #16
    5340:	d65f03c0 	ret

0000000000005344 <TEE_BigIntConvertToFMM>:
TEE_BigIntConvertToFMM():
/home/build/bsp/optee_os/lib/libutee/tee_api_arith_mpi.c:968
    5344:	17fffdf1 	b	4b08 <TEE_BigIntMod>

0000000000005348 <TEE_BigIntConvertFromFMM>:
TEE_BigIntConvertFromFMM():
/home/build/bsp/optee_os/lib/libutee/tee_api_arith_mpi.c:974
    5348:	a9b77bfd 	stp	x29, x30, [sp, #-144]!
    534c:	910003fd 	mov	x29, sp
    5350:	a90153f3 	stp	x19, x20, [sp, #16]
    5354:	b0000073 	adrp	x19, 12000 <_DYNAMIC>
/home/build/bsp/optee_os/lib/libutee/tee_api_arith_mpi.c:978
    5358:	910123f4 	add	x20, sp, #0x48
/home/build/bsp/optee_os/lib/libutee/tee_api_arith_mpi.c:974
    535c:	a9025bf5 	stp	x21, x22, [sp, #32]
    5360:	aa0003f5 	mov	x21, x0
/home/build/bsp/optee_os/lib/libutee/tee_api_arith_mpi.c:979
    5364:	9101a3f6 	add	x22, sp, #0x68
/home/build/bsp/optee_os/lib/libutee/tee_api_arith_mpi.c:974
    5368:	f9409a60 	ldr	x0, [x19, #304]
    536c:	f9001bf7 	str	x23, [sp, #48]
    5370:	aa0103f7 	mov	x23, x1
    5374:	f9400001 	ldr	x1, [x0]
    5378:	f90047e1 	str	x1, [sp, #136]
    537c:	d2800001 	mov	x1, #0x0                   	// #0
/home/build/bsp/optee_os/lib/libutee/tee_api_arith_mpi.c:978
    5380:	aa1403e0 	mov	x0, x20
    5384:	aa1503e1 	mov	x1, x21
    5388:	97fff836 	bl	3460 <get_mpi>
/home/build/bsp/optee_os/lib/libutee/tee_api_arith_mpi.c:979
    538c:	aa1703e1 	mov	x1, x23
    5390:	aa1603e0 	mov	x0, x22
    5394:	97fff833 	bl	3460 <get_mpi>
/home/build/bsp/optee_os/lib/libutee/tee_api_arith_mpi.c:981
    5398:	aa1603e1 	mov	x1, x22
    539c:	aa1403e0 	mov	x0, x20
    53a0:	9400082e 	bl	7458 <mbedtls_mpi_copy>
    53a4:	340000e0 	cbz	w0, 53c0 <TEE_BigIntConvertFromFMM+0x78>
    53a8:	2a0003e2 	mov	w2, w0
/home/build/bsp/optee_os/lib/libutee/tee_api_arith_mpi.c:981 (discriminator 1)
    53ac:	52807aa1 	mov	w1, #0x3d5                 	// #981
/home/build/bsp/optee_os/lib/libutee/tee_api_arith_mpi.c:983 (discriminator 1)
    53b0:	f0000040 	adrp	x0, 10000 <__func__.0+0x28>
    53b4:	9121d400 	add	x0, x0, #0x875
    53b8:	91048000 	add	x0, x0, #0x120
    53bc:	97fff81d 	bl	3430 <mpi_panic>
/home/build/bsp/optee_os/lib/libutee/tee_api_arith_mpi.c:983 (discriminator 2)
    53c0:	aa1503e1 	mov	x1, x21
    53c4:	aa1403e0 	mov	x0, x20
    53c8:	97fff84c 	bl	34f8 <copy_mpi_to_bigint>
    53cc:	2a0003e2 	mov	w2, w0
    53d0:	34000060 	cbz	w0, 53dc <TEE_BigIntConvertFromFMM+0x94>
/home/build/bsp/optee_os/lib/libutee/tee_api_arith_mpi.c:983 (discriminator 1)
    53d4:	52807ae1 	mov	w1, #0x3d7                 	// #983
    53d8:	17fffff6 	b	53b0 <TEE_BigIntConvertFromFMM+0x68>
/home/build/bsp/optee_os/lib/libutee/tee_api_arith_mpi.c:984 (discriminator 2)
    53dc:	aa1403e0 	mov	x0, x20
    53e0:	94000768 	bl	7180 <mbedtls_mpi_free>
/home/build/bsp/optee_os/lib/libutee/tee_api_arith_mpi.c:985 (discriminator 2)
    53e4:	aa1603e0 	mov	x0, x22
    53e8:	94000766 	bl	7180 <mbedtls_mpi_free>
/home/build/bsp/optee_os/lib/libutee/tee_api_arith_mpi.c:986 (discriminator 2)
    53ec:	f9409a73 	ldr	x19, [x19, #304]
    53f0:	f94047e0 	ldr	x0, [sp, #136]
    53f4:	f9400261 	ldr	x1, [x19]
    53f8:	eb010000 	subs	x0, x0, x1
    53fc:	d2800001 	mov	x1, #0x0                   	// #0
    5400:	54000040 	b.eq	5408 <TEE_BigIntConvertFromFMM+0xc0>  // b.none
/home/build/bsp/optee_os/lib/libutee/tee_api_arith_mpi.c:986
    5404:	97ffecab 	bl	6b0 <__stack_chk_fail>
    5408:	a94153f3 	ldp	x19, x20, [sp, #16]
    540c:	a9425bf5 	ldp	x21, x22, [sp, #32]
    5410:	f9401bf7 	ldr	x23, [sp, #48]
    5414:	a8c97bfd 	ldp	x29, x30, [sp], #144
    5418:	d65f03c0 	ret

000000000000541c <TEE_BigIntComputeFMM>:
TEE_BigIntComputeFMM():
/home/build/bsp/optee_os/lib/libutee/tee_api_arith_mpi.c:991
    541c:	a9b07bfd 	stp	x29, x30, [sp, #-256]!
    5420:	910003fd 	mov	x29, sp
    5424:	a90153f3 	stp	x19, x20, [sp, #16]
    5428:	b0000073 	adrp	x19, 12000 <_DYNAMIC>
/home/build/bsp/optee_os/lib/libutee/tee_api_arith_mpi.c:998
    542c:	910163f4 	add	x20, sp, #0x58
/home/build/bsp/optee_os/lib/libutee/tee_api_arith_mpi.c:991
    5430:	a9025bf5 	stp	x21, x22, [sp, #32]
    5434:	aa0003f5 	mov	x21, x0
    5438:	aa0303f6 	mov	x22, x3
    543c:	f9409a60 	ldr	x0, [x19, #304]
    5440:	a90363f7 	stp	x23, x24, [sp, #48]
    5444:	aa0103f8 	mov	x24, x1
    5448:	f90023f9 	str	x25, [sp, #64]
/home/build/bsp/optee_os/lib/libutee/tee_api_arith_mpi.c:999
    544c:	9101e3f7 	add	x23, sp, #0x78
/home/build/bsp/optee_os/lib/libutee/tee_api_arith_mpi.c:991
    5450:	aa0203f9 	mov	x25, x2
    5454:	f9400001 	ldr	x1, [x0]
    5458:	f9007fe1 	str	x1, [sp, #248]
    545c:	d2800001 	mov	x1, #0x0                   	// #0
/home/build/bsp/optee_os/lib/libutee/tee_api_arith_mpi.c:998
    5460:	aa1403e0 	mov	x0, x20
    5464:	aa1503e1 	mov	x1, x21
    5468:	97fff7fe 	bl	3460 <get_mpi>
/home/build/bsp/optee_os/lib/libutee/tee_api_arith_mpi.c:999
    546c:	aa1803e1 	mov	x1, x24
    5470:	aa1703e0 	mov	x0, x23
/home/build/bsp/optee_os/lib/libutee/tee_api_arith_mpi.c:1000
    5474:	910263f8 	add	x24, sp, #0x98
/home/build/bsp/optee_os/lib/libutee/tee_api_arith_mpi.c:999
    5478:	97fff7fa 	bl	3460 <get_mpi>
/home/build/bsp/optee_os/lib/libutee/tee_api_arith_mpi.c:1000
    547c:	aa1903e1 	mov	x1, x25
    5480:	aa1803e0 	mov	x0, x24
    5484:	97fff7f7 	bl	3460 <get_mpi>
/home/build/bsp/optee_os/lib/libutee/tee_api_arith_mpi.c:1001
    5488:	9102e3f9 	add	x25, sp, #0xb8
    548c:	aa1603e1 	mov	x1, x22
    5490:	aa1903e0 	mov	x0, x25
get_mpi():
/home/build/bsp/optee_os/lib/libutee/tee_api_arith_mpi.c:101
    5494:	910363f6 	add	x22, sp, #0xd8
TEE_BigIntComputeFMM():
/home/build/bsp/optee_os/lib/libutee/tee_api_arith_mpi.c:1001
    5498:	97fff7f2 	bl	3460 <get_mpi>
get_mpi():
/home/build/bsp/optee_os/lib/libutee/tee_api_arith_mpi.c:101
    549c:	aa1603e0 	mov	x0, x22
    54a0:	9400072e 	bl	7158 <mbedtls_mpi_init_mempool>
TEE_BigIntComputeFMM():
/home/build/bsp/optee_os/lib/libutee/tee_api_arith_mpi.c:1004
    54a4:	aa1803e2 	mov	x2, x24
    54a8:	aa1703e1 	mov	x1, x23
    54ac:	aa1603e0 	mov	x0, x22
    54b0:	94000a91 	bl	7ef4 <mbedtls_mpi_mul_mpi>
    54b4:	340000e0 	cbz	w0, 54d0 <TEE_BigIntComputeFMM+0xb4>
    54b8:	2a0003e2 	mov	w2, w0
/home/build/bsp/optee_os/lib/libutee/tee_api_arith_mpi.c:1004 (discriminator 1)
    54bc:	52807d81 	mov	w1, #0x3ec                 	// #1004
/home/build/bsp/optee_os/lib/libutee/tee_api_arith_mpi.c:1005 (discriminator 1)
    54c0:	f0000040 	adrp	x0, 10000 <__func__.0+0x28>
    54c4:	9121d400 	add	x0, x0, #0x875
    54c8:	9104e400 	add	x0, x0, #0x139
    54cc:	97fff7d9 	bl	3430 <mpi_panic>
/home/build/bsp/optee_os/lib/libutee/tee_api_arith_mpi.c:1005 (discriminator 2)
    54d0:	aa1903e2 	mov	x2, x25
    54d4:	aa1603e1 	mov	x1, x22
    54d8:	aa1403e0 	mov	x0, x20
    54dc:	94000d0b 	bl	8908 <mbedtls_mpi_mod_mpi>
    54e0:	2a0003e2 	mov	w2, w0
    54e4:	34000060 	cbz	w0, 54f0 <TEE_BigIntComputeFMM+0xd4>
/home/build/bsp/optee_os/lib/libutee/tee_api_arith_mpi.c:1005 (discriminator 1)
    54e8:	52807da1 	mov	w1, #0x3ed                 	// #1005
    54ec:	17fffff5 	b	54c0 <TEE_BigIntComputeFMM+0xa4>
/home/build/bsp/optee_os/lib/libutee/tee_api_arith_mpi.c:1007 (discriminator 2)
    54f0:	aa1603e0 	mov	x0, x22
    54f4:	94000723 	bl	7180 <mbedtls_mpi_free>
/home/build/bsp/optee_os/lib/libutee/tee_api_arith_mpi.c:1008 (discriminator 2)
    54f8:	aa1903e0 	mov	x0, x25
    54fc:	94000721 	bl	7180 <mbedtls_mpi_free>
/home/build/bsp/optee_os/lib/libutee/tee_api_arith_mpi.c:1009 (discriminator 2)
    5500:	aa1803e0 	mov	x0, x24
    5504:	9400071f 	bl	7180 <mbedtls_mpi_free>
/home/build/bsp/optee_os/lib/libutee/tee_api_arith_mpi.c:1010 (discriminator 2)
    5508:	aa1703e0 	mov	x0, x23
    550c:	9400071d 	bl	7180 <mbedtls_mpi_free>
/home/build/bsp/optee_os/lib/libutee/tee_api_arith_mpi.c:1011 (discriminator 2)
    5510:	aa1503e1 	mov	x1, x21
    5514:	aa1403e0 	mov	x0, x20
    5518:	97fff7f8 	bl	34f8 <copy_mpi_to_bigint>
    551c:	2a0003e2 	mov	w2, w0
    5520:	34000060 	cbz	w0, 552c <TEE_BigIntComputeFMM+0x110>
/home/build/bsp/optee_os/lib/libutee/tee_api_arith_mpi.c:1011 (discriminator 1)
    5524:	52807e61 	mov	w1, #0x3f3                 	// #1011
    5528:	17ffffe6 	b	54c0 <TEE_BigIntComputeFMM+0xa4>
/home/build/bsp/optee_os/lib/libutee/tee_api_arith_mpi.c:1012 (discriminator 2)
    552c:	aa1403e0 	mov	x0, x20
    5530:	94000714 	bl	7180 <mbedtls_mpi_free>
/home/build/bsp/optee_os/lib/libutee/tee_api_arith_mpi.c:1013 (discriminator 2)
    5534:	f9409a73 	ldr	x19, [x19, #304]
    5538:	f9407fe0 	ldr	x0, [sp, #248]
    553c:	f9400261 	ldr	x1, [x19]
    5540:	eb010000 	subs	x0, x0, x1
    5544:	d2800001 	mov	x1, #0x0                   	// #0
    5548:	54000040 	b.eq	5550 <TEE_BigIntComputeFMM+0x134>  // b.none
/home/build/bsp/optee_os/lib/libutee/tee_api_arith_mpi.c:1013
    554c:	97ffec59 	bl	6b0 <__stack_chk_fail>
    5550:	a94153f3 	ldp	x19, x20, [sp, #16]
    5554:	a9425bf5 	ldp	x21, x22, [sp, #32]
    5558:	a94363f7 	ldp	x23, x24, [sp, #48]
    555c:	f94023f9 	ldr	x25, [sp, #64]
    5560:	a8d07bfd 	ldp	x29, x30, [sp], #256
    5564:	d65f03c0 	ret

0000000000005568 <check_access>:
check_access():
/home/build/bsp/optee_os/lib/libutee/tee_api_panic.c:40
    5568:	b4000062 	cbz	x2, 5574 <check_access+0xc>
/home/build/bsp/optee_os/lib/libutee/tee_api_panic.c:43
    556c:	b4000081 	cbz	x1, 557c <check_access+0x14>
/home/build/bsp/optee_os/lib/libutee/tee_api_panic.c:47
    5570:	17fff4aa 	b	2818 <TEE_CheckMemoryAccessRights>
/home/build/bsp/optee_os/lib/libutee/tee_api_panic.c:41
    5574:	52800000 	mov	w0, #0x0                   	// #0
/home/build/bsp/optee_os/lib/libutee/tee_api_panic.c:50
    5578:	d65f03c0 	ret
/home/build/bsp/optee_os/lib/libutee/tee_api_panic.c:44
    557c:	129ffe00 	mov	w0, #0xffff000f            	// #-65521
    5580:	17fffffe 	b	5578 <check_access+0x10>

0000000000005584 <TEE_Panic>:
TEE_Panic():
/home/build/bsp/optee_os/lib/libutee/tee_api_panic.c:24
    5584:	2a0003e0 	mov	w0, w0
    5588:	17fff2b4 	b	2058 <_utee_panic>

000000000000558c <check_res.constprop.0>:
check_res():
/home/build/bsp/optee_os/lib/libutee/tee_api_panic.c:32
    558c:	34000060 	cbz	w0, 5598 <check_res.constprop.0+0xc>
/home/build/bsp/optee_os/lib/libutee/tee_api_panic.c:34
    5590:	52800000 	mov	w0, #0x0                   	// #0
    5594:	17fffffc 	b	5584 <TEE_Panic>
/home/build/bsp/optee_os/lib/libutee/tee_api_panic.c:36
    5598:	d65f03c0 	ret

000000000000559c <__utee_check_outbuf_annotation>:
__utee_check_outbuf_annotation():
/home/build/bsp/optee_os/lib/libutee/tee_api_panic.c:53
    559c:	a9be7bfd 	stp	x29, x30, [sp, #-32]!
    55a0:	910003fd 	mov	x29, sp
    55a4:	a90153f3 	stp	x19, x20, [sp, #16]
    55a8:	aa0003f4 	mov	x20, x0
    55ac:	aa0103f3 	mov	x19, x1
check_access():
/home/build/bsp/optee_os/lib/libutee/tee_api_panic.c:43
    55b0:	b4000181 	cbz	x1, 55e0 <__utee_check_outbuf_annotation+0x44>
/home/build/bsp/optee_os/lib/libutee/tee_api_panic.c:47
    55b4:	d2800102 	mov	x2, #0x8                   	// #8
    55b8:	52800060 	mov	w0, #0x3                   	// #3
    55bc:	97fff497 	bl	2818 <TEE_CheckMemoryAccessRights>
__utee_check_outbuf_annotation():
/home/build/bsp/optee_os/lib/libutee/tee_api_panic.c:54
    55c0:	97fffff3 	bl	558c <check_res.constprop.0>
/home/build/bsp/optee_os/lib/libutee/tee_api_panic.c:56
    55c4:	f9400262 	ldr	x2, [x19]
    55c8:	aa1403e1 	mov	x1, x20
    55cc:	528000c0 	mov	w0, #0x6                   	// #6
    55d0:	97ffffe6 	bl	5568 <check_access>
/home/build/bsp/optee_os/lib/libutee/tee_api_panic.c:58
    55d4:	a94153f3 	ldp	x19, x20, [sp, #16]
    55d8:	a8c27bfd 	ldp	x29, x30, [sp], #32
/home/build/bsp/optee_os/lib/libutee/tee_api_panic.c:56
    55dc:	17ffffec 	b	558c <check_res.constprop.0>
check_access():
/home/build/bsp/optee_os/lib/libutee/tee_api_panic.c:44
    55e0:	129ffe00 	mov	w0, #0xffff000f            	// #-65521
    55e4:	17fffff7 	b	55c0 <__utee_check_outbuf_annotation+0x24>

00000000000055e8 <__utee_check_gp11_outbuf_annotation>:
__utee_check_gp11_outbuf_annotation():
/home/build/bsp/optee_os/lib/libutee/tee_api_panic.c:61
    55e8:	a9be7bfd 	stp	x29, x30, [sp, #-32]!
    55ec:	910003fd 	mov	x29, sp
    55f0:	a90153f3 	stp	x19, x20, [sp, #16]
    55f4:	aa0003f4 	mov	x20, x0
    55f8:	aa0103f3 	mov	x19, x1
check_access():
/home/build/bsp/optee_os/lib/libutee/tee_api_panic.c:43
    55fc:	b4000181 	cbz	x1, 562c <__utee_check_gp11_outbuf_annotation+0x44>
/home/build/bsp/optee_os/lib/libutee/tee_api_panic.c:47
    5600:	d2800082 	mov	x2, #0x4                   	// #4
    5604:	52800060 	mov	w0, #0x3                   	// #3
    5608:	97fff484 	bl	2818 <TEE_CheckMemoryAccessRights>
__utee_check_gp11_outbuf_annotation():
/home/build/bsp/optee_os/lib/libutee/tee_api_panic.c:62
    560c:	97ffffe0 	bl	558c <check_res.constprop.0>
/home/build/bsp/optee_os/lib/libutee/tee_api_panic.c:64
    5610:	b9400262 	ldr	w2, [x19]
    5614:	aa1403e1 	mov	x1, x20
    5618:	528000c0 	mov	w0, #0x6                   	// #6
    561c:	97ffffd3 	bl	5568 <check_access>
/home/build/bsp/optee_os/lib/libutee/tee_api_panic.c:66
    5620:	a94153f3 	ldp	x19, x20, [sp, #16]
    5624:	a8c27bfd 	ldp	x29, x30, [sp], #32
/home/build/bsp/optee_os/lib/libutee/tee_api_panic.c:64
    5628:	17ffffd9 	b	558c <check_res.constprop.0>
check_access():
/home/build/bsp/optee_os/lib/libutee/tee_api_panic.c:44
    562c:	129ffe00 	mov	w0, #0xffff000f            	// #-65521
    5630:	17fffff7 	b	560c <__utee_check_gp11_outbuf_annotation+0x24>

0000000000005634 <__utee_check_instring_annotation>:
__utee_check_instring_annotation():
/home/build/bsp/optee_os/lib/libutee/tee_api_panic.c:69
    5634:	a9be7bfd 	stp	x29, x30, [sp, #-32]!
    5638:	910003fd 	mov	x29, sp
    563c:	f9000bf3 	str	x19, [sp, #16]
    5640:	aa0003f3 	mov	x19, x0
/home/build/bsp/optee_os/lib/libutee/tee_api_panic.c:71
    5644:	97ffefb1 	bl	1508 <strlen>
/home/build/bsp/optee_os/lib/libutee/tee_api_panic.c:70
    5648:	91000402 	add	x2, x0, #0x1
    564c:	aa1303e1 	mov	x1, x19
    5650:	52800020 	mov	w0, #0x1                   	// #1
    5654:	97ffffc5 	bl	5568 <check_access>
/home/build/bsp/optee_os/lib/libutee/tee_api_panic.c:72
    5658:	f9400bf3 	ldr	x19, [sp, #16]
    565c:	a8c27bfd 	ldp	x29, x30, [sp], #32
/home/build/bsp/optee_os/lib/libutee/tee_api_panic.c:70
    5660:	17ffffcb 	b	558c <check_res.constprop.0>

0000000000005664 <__utee_check_outstring_annotation>:
__utee_check_outstring_annotation():
/home/build/bsp/optee_os/lib/libutee/tee_api_panic.c:75
    5664:	a9be7bfd 	stp	x29, x30, [sp, #-32]!
    5668:	910003fd 	mov	x29, sp
    566c:	a90153f3 	stp	x19, x20, [sp, #16]
    5670:	aa0003f4 	mov	x20, x0
    5674:	aa0103f3 	mov	x19, x1
check_access():
/home/build/bsp/optee_os/lib/libutee/tee_api_panic.c:43
    5678:	b4000181 	cbz	x1, 56a8 <__utee_check_outstring_annotation+0x44>
/home/build/bsp/optee_os/lib/libutee/tee_api_panic.c:47
    567c:	d2800102 	mov	x2, #0x8                   	// #8
    5680:	52800060 	mov	w0, #0x3                   	// #3
    5684:	97fff465 	bl	2818 <TEE_CheckMemoryAccessRights>
__utee_check_outstring_annotation():
/home/build/bsp/optee_os/lib/libutee/tee_api_panic.c:76
    5688:	97ffffc1 	bl	558c <check_res.constprop.0>
/home/build/bsp/optee_os/lib/libutee/tee_api_panic.c:78
    568c:	f9400262 	ldr	x2, [x19]
    5690:	aa1403e1 	mov	x1, x20
    5694:	528000c0 	mov	w0, #0x6                   	// #6
    5698:	97ffffb4 	bl	5568 <check_access>
/home/build/bsp/optee_os/lib/libutee/tee_api_panic.c:80
    569c:	a94153f3 	ldp	x19, x20, [sp, #16]
    56a0:	a8c27bfd 	ldp	x29, x30, [sp], #32
/home/build/bsp/optee_os/lib/libutee/tee_api_panic.c:78
    56a4:	17ffffba 	b	558c <check_res.constprop.0>
check_access():
/home/build/bsp/optee_os/lib/libutee/tee_api_panic.c:44
    56a8:	129ffe00 	mov	w0, #0xffff000f            	// #-65521
    56ac:	17fffff7 	b	5688 <__utee_check_outstring_annotation+0x24>

00000000000056b0 <__utee_check_gp11_outstring_annotation>:
__utee_check_gp11_outstring_annotation():
/home/build/bsp/optee_os/lib/libutee/tee_api_panic.c:83
    56b0:	a9be7bfd 	stp	x29, x30, [sp, #-32]!
    56b4:	910003fd 	mov	x29, sp
    56b8:	a90153f3 	stp	x19, x20, [sp, #16]
    56bc:	aa0003f4 	mov	x20, x0
    56c0:	aa0103f3 	mov	x19, x1
check_access():
/home/build/bsp/optee_os/lib/libutee/tee_api_panic.c:43
    56c4:	b4000181 	cbz	x1, 56f4 <__utee_check_gp11_outstring_annotation+0x44>
/home/build/bsp/optee_os/lib/libutee/tee_api_panic.c:47
    56c8:	d2800082 	mov	x2, #0x4                   	// #4
    56cc:	52800060 	mov	w0, #0x3                   	// #3
    56d0:	97fff452 	bl	2818 <TEE_CheckMemoryAccessRights>
__utee_check_gp11_outstring_annotation():
/home/build/bsp/optee_os/lib/libutee/tee_api_panic.c:84
    56d4:	97ffffae 	bl	558c <check_res.constprop.0>
/home/build/bsp/optee_os/lib/libutee/tee_api_panic.c:86
    56d8:	b9400262 	ldr	w2, [x19]
    56dc:	aa1403e1 	mov	x1, x20
    56e0:	528000c0 	mov	w0, #0x6                   	// #6
    56e4:	97ffffa1 	bl	5568 <check_access>
/home/build/bsp/optee_os/lib/libutee/tee_api_panic.c:88
    56e8:	a94153f3 	ldp	x19, x20, [sp, #16]
    56ec:	a8c27bfd 	ldp	x29, x30, [sp], #32
/home/build/bsp/optee_os/lib/libutee/tee_api_panic.c:86
    56f0:	17ffffa7 	b	558c <check_res.constprop.0>
check_access():
/home/build/bsp/optee_os/lib/libutee/tee_api_panic.c:44
    56f4:	129ffe00 	mov	w0, #0xffff000f            	// #-65521
    56f8:	17fffff7 	b	56d4 <__utee_check_gp11_outstring_annotation+0x24>

00000000000056fc <__utee_check_out_annotation>:
__utee_check_out_annotation():
/home/build/bsp/optee_os/lib/libutee/tee_api_panic.c:91
    56fc:	a9bf7bfd 	stp	x29, x30, [sp, #-16]!
/home/build/bsp/optee_os/lib/libutee/tee_api_panic.c:92
    5700:	aa0103e2 	mov	x2, x1
    5704:	aa0003e1 	mov	x1, x0
/home/build/bsp/optee_os/lib/libutee/tee_api_panic.c:91
    5708:	910003fd 	mov	x29, sp
/home/build/bsp/optee_os/lib/libutee/tee_api_panic.c:92
    570c:	52800040 	mov	w0, #0x2                   	// #2
    5710:	97ffff96 	bl	5568 <check_access>
/home/build/bsp/optee_os/lib/libutee/tee_api_panic.c:94
    5714:	a8c17bfd 	ldp	x29, x30, [sp], #16
/home/build/bsp/optee_os/lib/libutee/tee_api_panic.c:92
    5718:	17ffff9d 	b	558c <check_res.constprop.0>

000000000000571c <__utee_check_attr_in_annotation>:
__utee_check_attr_in_annotation():
/home/build/bsp/optee_os/lib/libutee/tee_api_panic.c:98
    571c:	d2800302 	mov	x2, #0x18                  	// #24
/home/build/bsp/optee_os/lib/libutee/tee_api_panic.c:97
    5720:	a9bf7bfd 	stp	x29, x30, [sp, #-16]!
/home/build/bsp/optee_os/lib/libutee/tee_api_panic.c:98
    5724:	9b027c22 	mul	x2, x1, x2
/home/build/bsp/optee_os/lib/libutee/tee_api_panic.c:97
    5728:	910003fd 	mov	x29, sp
/home/build/bsp/optee_os/lib/libutee/tee_api_panic.c:98
    572c:	aa0003e1 	mov	x1, x0
    5730:	52800020 	mov	w0, #0x1                   	// #1
    5734:	97ffff8d 	bl	5568 <check_access>
/home/build/bsp/optee_os/lib/libutee/tee_api_panic.c:100
    5738:	a8c17bfd 	ldp	x29, x30, [sp], #16
/home/build/bsp/optee_os/lib/libutee/tee_api_panic.c:98
    573c:	17ffff94 	b	558c <check_res.constprop.0>

0000000000005740 <__utee_check_gp11_attr_in_annotation>:
__utee_check_gp11_attr_in_annotation():
/home/build/bsp/optee_os/lib/libutee/tee_api_panic.c:98
    5740:	17fffff7 	b	571c <__utee_check_attr_in_annotation>

0000000000005744 <__utee_check_inout_annotation>:
__utee_check_inout_annotation():
/home/build/bsp/optee_os/lib/libutee/tee_api_panic.c:111
    5744:	a9bf7bfd 	stp	x29, x30, [sp, #-16]!
/home/build/bsp/optee_os/lib/libutee/tee_api_panic.c:112
    5748:	aa0103e2 	mov	x2, x1
    574c:	aa0003e1 	mov	x1, x0
/home/build/bsp/optee_os/lib/libutee/tee_api_panic.c:111
    5750:	910003fd 	mov	x29, sp
/home/build/bsp/optee_os/lib/libutee/tee_api_panic.c:112
    5754:	52800060 	mov	w0, #0x3                   	// #3
    5758:	97ffff84 	bl	5568 <check_access>
/home/build/bsp/optee_os/lib/libutee/tee_api_panic.c:114
    575c:	a8c17bfd 	ldp	x29, x30, [sp], #16
/home/build/bsp/optee_os/lib/libutee/tee_api_panic.c:112
    5760:	17ffff8b 	b	558c <check_res.constprop.0>

0000000000005764 <propset_get>:
propset_get():
/home/build/bsp/optee_os/lib/libutee/tee_api_property.c:60
    5764:	b2407fe3 	mov	x3, #0xffffffff            	// #4294967295
    5768:	eb03001f 	cmp	x0, x3
    576c:	54000101 	b.ne	578c <propset_get+0x28>  // b.any
/home/build/bsp/optee_os/lib/libutee/tee_api_property.c:61
    5770:	b0000060 	adrp	x0, 12000 <_DYNAMIC>
    5774:	f940a403 	ldr	x3, [x0, #328]
    5778:	f9000023 	str	x3, [x1]
/home/build/bsp/optee_os/lib/libutee/tee_api_property.c:62
    577c:	f940ac00 	ldr	x0, [x0, #344]
    5780:	f9400000 	ldr	x0, [x0]
/home/build/bsp/optee_os/lib/libutee/tee_api_property.c:68
    5784:	f9000040 	str	x0, [x2]
    5788:	14000006 	b	57a0 <propset_get+0x3c>
/home/build/bsp/optee_os/lib/libutee/tee_api_property.c:63
    578c:	b27f7be3 	mov	x3, #0xfffffffe            	// #4294967294
    5790:	eb03001f 	cmp	x0, x3
    5794:	540000a1 	b.ne	57a8 <propset_get+0x44>  // b.any
/home/build/bsp/optee_os/lib/libutee/tee_api_property.c:64
    5798:	f900003f 	str	xzr, [x1]
/home/build/bsp/optee_os/lib/libutee/tee_api_property.c:65
    579c:	f900005f 	str	xzr, [x2]
/home/build/bsp/optee_os/lib/libutee/tee_api_property.c:73
    57a0:	52800000 	mov	w0, #0x0                   	// #0
/home/build/bsp/optee_os/lib/libutee/tee_api_property.c:74
    57a4:	d65f03c0 	ret
/home/build/bsp/optee_os/lib/libutee/tee_api_property.c:66
    57a8:	12800043 	mov	w3, #0xfffffffd            	// #-3
    57ac:	eb03001f 	cmp	x0, x3
    57b0:	540000c1 	b.ne	57c8 <propset_get+0x64>  // b.any
/home/build/bsp/optee_os/lib/libutee/tee_api_property.c:67
    57b4:	b0000060 	adrp	x0, 12000 <_DYNAMIC>
    57b8:	f940c800 	ldr	x0, [x0, #400]
    57bc:	f9000020 	str	x0, [x1]
/home/build/bsp/optee_os/lib/libutee/tee_api_property.c:68
    57c0:	d2800080 	mov	x0, #0x4                   	// #4
    57c4:	17fffff0 	b	5784 <propset_get+0x20>
/home/build/bsp/optee_os/lib/libutee/tee_api_property.c:70
    57c8:	129ffee0 	mov	w0, #0xffff0008            	// #-65528
    57cc:	17fffff6 	b	57a4 <propset_get+0x40>

00000000000057d0 <is_propset_pseudo_handle>:
is_propset_pseudo_handle():
/home/build/bsp/optee_os/lib/libutee/tee_api_property.c:137
    57d0:	929fffa1 	mov	x1, #0xffffffffffff0002    	// #-65534
    57d4:	f2a00001 	movk	x1, #0x0, lsl #16
    57d8:	8b010001 	add	x1, x0, x1
/home/build/bsp/optee_os/lib/libutee/tee_api_property.c:138
    57dc:	f100043f 	cmp	x1, #0x1
    57e0:	540000a9 	b.ls	57f4 <is_propset_pseudo_handle+0x24>  // b.plast
/home/build/bsp/optee_os/lib/libutee/tee_api_property.c:138 (discriminator 2)
    57e4:	12800041 	mov	w1, #0xfffffffd            	// #-3
    57e8:	eb01001f 	cmp	x0, x1
    57ec:	1a9f17e0 	cset	w0, eq  // eq = none
/home/build/bsp/optee_os/lib/libutee/tee_api_property.c:140 (discriminator 6)
    57f0:	d65f03c0 	ret
/home/build/bsp/optee_os/lib/libutee/tee_api_property.c:138
    57f4:	52800020 	mov	w0, #0x1                   	// #1
    57f8:	17fffffe 	b	57f0 <is_propset_pseudo_handle+0x20>

00000000000057fc <propget_get_ext_prop>:
propget_get_ext_prop():
/home/build/bsp/optee_os/lib/libutee/tee_api_property.c:79
    57fc:	a9bc7bfd 	stp	x29, x30, [sp, #-64]!
    5800:	910003fd 	mov	x29, sp
    5804:	a90153f3 	stp	x19, x20, [sp, #16]
    5808:	aa0303f3 	mov	x19, x3
    580c:	b0000063 	adrp	x3, 12000 <_DYNAMIC>
    5810:	aa0003f4 	mov	x20, x0
    5814:	a9025bf5 	stp	x21, x22, [sp, #32]
    5818:	aa0203f5 	mov	x21, x2
    581c:	f9409863 	ldr	x3, [x3, #304]
/home/build/bsp/optee_os/lib/libutee/tee_api_property.c:82
    5820:	b9400a82 	ldr	w2, [x20, #8]
/home/build/bsp/optee_os/lib/libutee/tee_api_property.c:79
    5824:	f9400060 	ldr	x0, [x3]
    5828:	f9001fe0 	str	x0, [sp, #56]
    582c:	d2800000 	mov	x0, #0x0                   	// #0
/home/build/bsp/optee_os/lib/libutee/tee_api_property.c:82
    5830:	b9000022 	str	w2, [x1]
/home/build/bsp/optee_os/lib/libutee/tee_api_property.c:83
    5834:	7100185f 	cmp	w2, #0x6
    5838:	54000508 	b.hi	58d8 <propget_get_ext_prop+0xdc>  // b.pmore
    583c:	f0000040 	adrp	x0, 10000 <__func__.0+0x28>
    5840:	b9400276 	ldr	w22, [x19]
    5844:	91027000 	add	x0, x0, #0x9c
    5848:	38624800 	ldrb	w0, [x0, w2, uxtw]
    584c:	10000062 	adr	x2, 5858 <propget_get_ext_prop+0x5c>
    5850:	8b208840 	add	x0, x2, w0, sxtb #2
    5854:	d61f0000 	br	x0
/home/build/bsp/optee_os/lib/libutee/tee_api_property.c:92
    5858:	d2800102 	mov	x2, #0x8                   	// #8
/home/build/bsp/optee_os/lib/libutee/tee_api_property.c:126
    585c:	b9000262 	str	w2, [x19]
/home/build/bsp/optee_os/lib/libutee/tee_api_property.c:85
    5860:	f9001be2 	str	x2, [sp, #48]
/home/build/bsp/optee_os/lib/libutee/tee_api_property.c:125
    5864:	eb16005f 	cmp	x2, x22
    5868:	54000428 	b.hi	58ec <propget_get_ext_prop+0xf0>  // b.pmore
/home/build/bsp/optee_os/lib/libutee/tee_api_property.c:131
    586c:	f9400a81 	ldr	x1, [x20, #16]
    5870:	aa1503e0 	mov	x0, x21
    5874:	97ffe9e3 	bl	0 <memcpy>
    5878:	14000027 	b	5914 <propget_get_ext_prop+0x118>
/home/build/bsp/optee_os/lib/libutee/tee_api_property.c:95
    587c:	d2800202 	mov	x2, #0x10                  	// #16
    5880:	17fffff7 	b	585c <propget_get_ext_prop+0x60>
/home/build/bsp/optee_os/lib/libutee/tee_api_property.c:98
    5884:	d2800282 	mov	x2, #0x14                  	// #20
    5888:	17fffff5 	b	585c <propget_get_ext_prop+0x60>
/home/build/bsp/optee_os/lib/libutee/tee_api_property.c:101
    588c:	f9400a80 	ldr	x0, [x20, #16]
    5890:	97ffef1e 	bl	1508 <strlen>
    5894:	91000402 	add	x2, x0, #0x1
/home/build/bsp/optee_os/lib/libutee/tee_api_property.c:102
    5898:	17fffff1 	b	585c <propget_get_ext_prop+0x60>
/home/build/bsp/optee_os/lib/libutee/tee_api_property.c:111
    589c:	f9400a94 	ldr	x20, [x20, #16]
/home/build/bsp/optee_os/lib/libutee/tee_api_property.c:110
    58a0:	f9001bf6 	str	x22, [sp, #48]
/home/build/bsp/optee_os/lib/libutee/tee_api_property.c:111
    58a4:	aa1403e0 	mov	x0, x20
    58a8:	97ffef18 	bl	1508 <strlen>
    58ac:	9100c3e3 	add	x3, sp, #0x30
    58b0:	aa0003e1 	mov	x1, x0
    58b4:	aa1503e2 	mov	x2, x21
    58b8:	aa1403e0 	mov	x0, x20
    58bc:	94000581 	bl	6ec0 <_base64_dec>
    58c0:	72001c1f 	tst	w0, #0xff
    58c4:	b9400261 	ldr	w1, [x19]
    58c8:	f9401be0 	ldr	x0, [sp, #48]
    58cc:	540000a1 	b.ne	58e0 <propget_get_ext_prop+0xe4>  // b.any
/home/build/bsp/optee_os/lib/libutee/tee_api_property.c:111 (discriminator 1)
    58d0:	eb00003f 	cmp	x1, x0
    58d4:	540000a3 	b.cc	58e8 <propget_get_ext_prop+0xec>  // b.lo, b.ul, b.last
/home/build/bsp/optee_os/lib/libutee/tee_api_property.c:113
    58d8:	52bfffe0 	mov	w0, #0xffff0000            	// #-65536
    58dc:	14000005 	b	58f0 <propget_get_ext_prop+0xf4>
/home/build/bsp/optee_os/lib/libutee/tee_api_property.c:114
    58e0:	eb00003f 	cmp	x1, x0
    58e4:	54000162 	b.cs	5910 <propget_get_ext_prop+0x114>  // b.hs, b.nlast
/home/build/bsp/optee_os/lib/libutee/tee_api_property.c:115
    58e8:	b9000260 	str	w0, [x19]
/home/build/bsp/optee_os/lib/libutee/tee_api_property.c:127
    58ec:	129ffde0 	mov	w0, #0xffff0010            	// #-65520
/home/build/bsp/optee_os/lib/libutee/tee_api_property.c:133
    58f0:	b0000063 	adrp	x3, 12000 <_DYNAMIC>
    58f4:	f9409863 	ldr	x3, [x3, #304]
    58f8:	f9401fe1 	ldr	x1, [sp, #56]
    58fc:	f9400062 	ldr	x2, [x3]
    5900:	eb020021 	subs	x1, x1, x2
    5904:	d2800002 	mov	x2, #0x0                   	// #0
    5908:	54000120 	b.eq	592c <propget_get_ext_prop+0x130>  // b.none
    590c:	97ffeb69 	bl	6b0 <__stack_chk_fail>
/home/build/bsp/optee_os/lib/libutee/tee_api_property.c:119
    5910:	b9000260 	str	w0, [x19]
/home/build/bsp/optee_os/lib/libutee/tee_api_property.c:132
    5914:	52800000 	mov	w0, #0x0                   	// #0
    5918:	17fffff6 	b	58f0 <propget_get_ext_prop+0xf4>
/home/build/bsp/optee_os/lib/libutee/tee_api_property.c:83
    591c:	d2800022 	mov	x2, #0x1                   	// #1
    5920:	17ffffcf 	b	585c <propget_get_ext_prop+0x60>
    5924:	d2800082 	mov	x2, #0x4                   	// #4
    5928:	17ffffcd 	b	585c <propget_get_ext_prop+0x60>
/home/build/bsp/optee_os/lib/libutee/tee_api_property.c:133
    592c:	a94153f3 	ldp	x19, x20, [sp, #16]
    5930:	a9425bf5 	ldp	x21, x22, [sp, #32]
    5934:	a8c47bfd 	ldp	x29, x30, [sp], #64
    5938:	d65f03c0 	ret

000000000000593c <propget_get_property>:
propget_get_property():
/home/build/bsp/optee_os/lib/libutee/tee_api_property.c:145
    593c:	a9b87bfd 	stp	x29, x30, [sp, #-128]!
    5940:	b0000066 	adrp	x6, 12000 <_DYNAMIC>
    5944:	910003fd 	mov	x29, sp
    5948:	a90363f7 	stp	x23, x24, [sp, #48]
    594c:	aa0103f8 	mov	x24, x1
    5950:	aa0003f7 	mov	x23, x0
    5954:	f94098c1 	ldr	x1, [x6, #304]
    5958:	a90153f3 	stp	x19, x20, [sp, #16]
    595c:	aa0203f4 	mov	x20, x2
    5960:	a9025bf5 	stp	x21, x22, [sp, #32]
    5964:	aa0603f3 	mov	x19, x6
    5968:	aa0303f5 	mov	x21, x3
    596c:	a9046bf9 	stp	x25, x26, [sp, #64]
    5970:	aa0403f6 	mov	x22, x4
    5974:	a90573fb 	stp	x27, x28, [sp, #80]
    5978:	f9400022 	ldr	x2, [x1]
    597c:	f9003fe2 	str	x2, [sp, #120]
    5980:	d2800002 	mov	x2, #0x0                   	// #0
/home/build/bsp/optee_os/lib/libutee/tee_api_property.c:152
    5984:	97ffff93 	bl	57d0 <is_propset_pseudo_handle>
    5988:	72001c1f 	tst	w0, #0xff
    598c:	54000840 	b.eq	5a94 <propget_get_property+0x158>  // b.none
/home/build/bsp/optee_os/lib/libutee/tee_api_property.c:155
    5990:	9101c3e2 	add	x2, sp, #0x70
    5994:	9101a3e1 	add	x1, sp, #0x68
    5998:	aa1703e0 	mov	x0, x23
    599c:	97ffff72 	bl	5764 <propset_get>
/home/build/bsp/optee_os/lib/libutee/tee_api_property.c:156
    59a0:	350002e0 	cbnz	w0, 59fc <propget_get_property+0xc0>
/home/build/bsp/optee_os/lib/libutee/tee_api_property.c:159
    59a4:	a946effa 	ldp	x26, x27, [sp, #104]
    59a8:	d2800019 	mov	x25, #0x0                   	// #0
/home/build/bsp/optee_os/lib/libutee/tee_api_property.c:159 (discriminator 1)
    59ac:	eb19037f 	cmp	x27, x25
    59b0:	54000401 	b.ne	5a30 <propget_get_property+0xf4>  // b.any
/home/build/bsp/optee_os/lib/libutee/tee_api_property.c:167
    59b4:	aa1803e0 	mov	x0, x24
    59b8:	97ffeed4 	bl	1508 <strlen>
/home/build/bsp/optee_os/lib/libutee/tee_api_property.c:166
    59bc:	910193e3 	add	x3, sp, #0x64
    59c0:	91000402 	add	x2, x0, #0x1
    59c4:	aa1803e1 	mov	x1, x24
    59c8:	aa1703e0 	mov	x0, x23
    59cc:	97fff1b2 	bl	2094 <_utee_get_property_name_to_index>
/home/build/bsp/optee_os/lib/libutee/tee_api_property.c:169
    59d0:	35000160 	cbnz	w0, 59fc <propget_get_property+0xc0>
/home/build/bsp/optee_os/lib/libutee/tee_api_property.c:171
    59d4:	b94067e1 	ldr	w1, [sp, #100]
    59d8:	910183e6 	add	x6, sp, #0x60
    59dc:	aa1603e5 	mov	x5, x22
    59e0:	aa1503e4 	mov	x4, x21
    59e4:	aa1703e0 	mov	x0, x23
    59e8:	d2800003 	mov	x3, #0x0                   	// #0
    59ec:	d2800002 	mov	x2, #0x0                   	// #0
    59f0:	97fff1a6 	bl	2088 <_utee_get_property>
/home/build/bsp/optee_os/lib/libutee/tee_api_property.c:194
    59f4:	b94063e1 	ldr	w1, [sp, #96]
    59f8:	b9000281 	str	w1, [x20]
/home/build/bsp/optee_os/lib/libutee/tee_api_property.c:196
    59fc:	f9409a73 	ldr	x19, [x19, #304]
    5a00:	f9403fe1 	ldr	x1, [sp, #120]
    5a04:	f9400262 	ldr	x2, [x19]
    5a08:	eb020021 	subs	x1, x1, x2
    5a0c:	d2800002 	mov	x2, #0x0                   	// #0
    5a10:	54000261 	b.ne	5a5c <propget_get_property+0x120>  // b.any
    5a14:	a94153f3 	ldp	x19, x20, [sp, #16]
    5a18:	a9425bf5 	ldp	x21, x22, [sp, #32]
    5a1c:	a94363f7 	ldp	x23, x24, [sp, #48]
    5a20:	a9446bf9 	ldp	x25, x26, [sp, #64]
    5a24:	a94573fb 	ldp	x27, x28, [sp, #80]
    5a28:	a8c87bfd 	ldp	x29, x30, [sp], #128
    5a2c:	d65f03c0 	ret
/home/build/bsp/optee_os/lib/libutee/tee_api_property.c:160
    5a30:	aa1a03fc 	mov	x28, x26
    5a34:	aa1803e0 	mov	x0, x24
    5a38:	f8418741 	ldr	x1, [x26], #24
    5a3c:	94001d32 	bl	cf04 <strcmp>
    5a40:	35000260 	cbnz	w0, 5a8c <propget_get_property+0x150>
/home/build/bsp/optee_os/lib/libutee/tee_api_property.c:161
    5a44:	f9409a73 	ldr	x19, [x19, #304]
    5a48:	f9403fe0 	ldr	x0, [sp, #120]
    5a4c:	f9400261 	ldr	x1, [x19]
    5a50:	eb010000 	subs	x0, x0, x1
    5a54:	d2800001 	mov	x1, #0x0                   	// #0
    5a58:	54000040 	b.eq	5a60 <propget_get_property+0x124>  // b.none
/home/build/bsp/optee_os/lib/libutee/tee_api_property.c:196
    5a5c:	97ffeb15 	bl	6b0 <__stack_chk_fail>
/home/build/bsp/optee_os/lib/libutee/tee_api_property.c:161
    5a60:	aa1603e3 	mov	x3, x22
    5a64:	aa1503e2 	mov	x2, x21
    5a68:	aa1403e1 	mov	x1, x20
    5a6c:	aa1c03e0 	mov	x0, x28
/home/build/bsp/optee_os/lib/libutee/tee_api_property.c:196
    5a70:	a94153f3 	ldp	x19, x20, [sp, #16]
    5a74:	a9425bf5 	ldp	x21, x22, [sp, #32]
    5a78:	a94363f7 	ldp	x23, x24, [sp, #48]
    5a7c:	a9446bf9 	ldp	x25, x26, [sp, #64]
    5a80:	a94573fb 	ldp	x27, x28, [sp, #80]
    5a84:	a8c87bfd 	ldp	x29, x30, [sp], #128
/home/build/bsp/optee_os/lib/libutee/tee_api_property.c:185
    5a88:	17ffff5d 	b	57fc <propget_get_ext_prop>
/home/build/bsp/optee_os/lib/libutee/tee_api_property.c:159 (discriminator 2)
    5a8c:	91000739 	add	x25, x25, #0x1
    5a90:	17ffffc7 	b	59ac <propget_get_property+0x70>
/home/build/bsp/optee_os/lib/libutee/tee_api_property.c:175
    5a94:	b94002e7 	ldr	w7, [x23]
/home/build/bsp/optee_os/lib/libutee/tee_api_property.c:177
    5a98:	310004ff 	cmn	w7, #0x1
    5a9c:	54000480 	b.eq	5b2c <propget_get_property+0x1f0>  // b.none
/home/build/bsp/optee_os/lib/libutee/tee_api_property.c:180
    5aa0:	f94006e8 	ldr	x8, [x23, #8]
    5aa4:	9101c3e2 	add	x2, sp, #0x70
    5aa8:	9101a3e1 	add	x1, sp, #0x68
    5aac:	aa0803e0 	mov	x0, x8
    5ab0:	97ffff2d 	bl	5764 <propset_get>
/home/build/bsp/optee_os/lib/libutee/tee_api_property.c:181
    5ab4:	35fffa40 	cbnz	w0, 59fc <propget_get_property+0xc0>
/home/build/bsp/optee_os/lib/libutee/tee_api_property.c:184
    5ab8:	f9403be1 	ldr	x1, [sp, #112]
    5abc:	eb27403f 	cmp	x1, w7, uxtw
    5ac0:	540001c9 	b.ls	5af8 <propget_get_property+0x1bc>  // b.plast
/home/build/bsp/optee_os/lib/libutee/tee_api_property.c:185
    5ac4:	f94098c6 	ldr	x6, [x6, #304]
    5ac8:	f9403fe0 	ldr	x0, [sp, #120]
    5acc:	f94000c1 	ldr	x1, [x6]
    5ad0:	eb010000 	subs	x0, x0, x1
    5ad4:	d2800001 	mov	x1, #0x0                   	// #0
    5ad8:	54fffc21 	b.ne	5a5c <propget_get_property+0x120>  // b.any
    5adc:	f94037e0 	ldr	x0, [sp, #104]
    5ae0:	aa0403e3 	mov	x3, x4
    5ae4:	52800304 	mov	w4, #0x18                  	// #24
    5ae8:	aa1503e2 	mov	x2, x21
    5aec:	aa1403e1 	mov	x1, x20
    5af0:	9ba400e0 	umaddl	x0, w7, w4, x0
    5af4:	17ffffdf 	b	5a70 <propget_get_property+0x134>
/home/build/bsp/optee_os/lib/libutee/tee_api_property.c:188
    5af8:	aa0403e5 	mov	x5, x4
    5afc:	4b0100e1 	sub	w1, w7, w1
    5b00:	910183e6 	add	x6, sp, #0x60
    5b04:	aa1503e4 	mov	x4, x21
    5b08:	aa0803e0 	mov	x0, x8
    5b0c:	d2800003 	mov	x3, #0x0                   	// #0
    5b10:	d2800002 	mov	x2, #0x0                   	// #0
    5b14:	97fff15d 	bl	2088 <_utee_get_property>
/home/build/bsp/optee_os/lib/libutee/tee_api_property.c:191
    5b18:	129ffee1 	mov	w1, #0xffff0008            	// #-65528
    5b1c:	6b01001f 	cmp	w0, w1
    5b20:	129fff21 	mov	w1, #0xffff0006            	// #-65530
    5b24:	1a811000 	csel	w0, w0, w1, ne  // ne = any
    5b28:	17ffffb3 	b	59f4 <propget_get_property+0xb8>
/home/build/bsp/optee_os/lib/libutee/tee_api_property.c:178
    5b2c:	129ffee0 	mov	w0, #0xffff0008            	// #-65528
    5b30:	17ffffb3 	b	59fc <propget_get_property+0xc0>

0000000000005b34 <TEE_GetPropertyAsString>:
TEE_GetPropertyAsString():
/home/build/bsp/optee_os/lib/libutee/tee_api_property.c:201
    5b34:	a9ba7bfd 	stp	x29, x30, [sp, #-96]!
    5b38:	910003fd 	mov	x29, sp
    5b3c:	a9025bf5 	stp	x21, x22, [sp, #32]
    5b40:	aa0203f6 	mov	x22, x2
    5b44:	b0000062 	adrp	x2, 12000 <_DYNAMIC>
    5b48:	a90153f3 	stp	x19, x20, [sp, #16]
    5b4c:	aa0103f5 	mov	x21, x1
    5b50:	aa0303f3 	mov	x19, x3
    5b54:	f9409842 	ldr	x2, [x2, #304]
    5b58:	f9001bf7 	str	x23, [sp, #48]
    5b5c:	aa0003f7 	mov	x23, x0
    5b60:	f9400041 	ldr	x1, [x2]
    5b64:	f9002fe1 	str	x1, [sp, #88]
    5b68:	d2800001 	mov	x1, #0x0                   	// #0
/home/build/bsp/optee_os/lib/libutee/tee_api_property.c:203
    5b6c:	f9002bff 	str	xzr, [sp, #80]
/home/build/bsp/optee_os/lib/libutee/tee_api_property.c:204
    5b70:	528000e1 	mov	w1, #0x7                   	// #7
/home/build/bsp/optee_os/lib/libutee/tee_api_property.c:206
    5b74:	29097fe1 	stp	w1, wzr, [sp, #72]
/home/build/bsp/optee_os/lib/libutee/tee_api_property.c:211
    5b78:	97ffff16 	bl	57d0 <is_propset_pseudo_handle>
    5b7c:	72001c1f 	tst	w0, #0xff
    5b80:	54000060 	b.eq	5b8c <TEE_GetPropertyAsString+0x58>  // b.none
/home/build/bsp/optee_os/lib/libutee/tee_api_property.c:212
    5b84:	aa1503e0 	mov	x0, x21
    5b88:	97fffeab 	bl	5634 <__utee_check_instring_annotation>
/home/build/bsp/optee_os/lib/libutee/tee_api_property.c:213
    5b8c:	aa1303e1 	mov	x1, x19
    5b90:	aa1603e0 	mov	x0, x22
    5b94:	97fffeb4 	bl	5664 <__utee_check_outstring_annotation>
/home/build/bsp/optee_os/lib/libutee/tee_api_property.c:215
    5b98:	f9400262 	ldr	x2, [x19]
    5b9c:	52800280 	mov	w0, #0x14                  	// #20
/home/build/bsp/optee_os/lib/libutee/tee_api_property.c:218
    5ba0:	52b00001 	mov	w1, #0x80000000            	// #-2147483648
/home/build/bsp/optee_os/lib/libutee/tee_api_property.c:215
    5ba4:	71004c5f 	cmp	w2, #0x13
    5ba8:	1a808040 	csel	w0, w2, w0, hi  // hi = pmore
    5bac:	b9004fe0 	str	w0, [sp, #76]
/home/build/bsp/optee_os/lib/libutee/tee_api_property.c:218
    5bb0:	2a0003e0 	mov	w0, w0
    5bb4:	97fff56b 	bl	3160 <TEE_Malloc>
    5bb8:	aa0003f4 	mov	x20, x0
/home/build/bsp/optee_os/lib/libutee/tee_api_property.c:219
    5bbc:	b4000de0 	cbz	x0, 5d78 <TEE_GetPropertyAsString+0x244>
/home/build/bsp/optee_os/lib/libutee/tee_api_property.c:224
    5bc0:	aa0003e3 	mov	x3, x0
    5bc4:	aa1503e1 	mov	x1, x21
    5bc8:	910133e4 	add	x4, sp, #0x4c
    5bcc:	910123e2 	add	x2, sp, #0x48
    5bd0:	aa1703e0 	mov	x0, x23
    5bd4:	97ffff5a 	bl	593c <propget_get_property>
    5bd8:	2a0003f5 	mov	w21, w0
/home/build/bsp/optee_os/lib/libutee/tee_api_property.c:226
    5bdc:	340003e0 	cbz	w0, 5c58 <TEE_GetPropertyAsString+0x124>
/home/build/bsp/optee_os/lib/libutee/tee_api_property.c:227
    5be0:	129ffde0 	mov	w0, #0xffff0010            	// #-65520
    5be4:	6b0002bf 	cmp	w21, w0
    5be8:	54000121 	b.ne	5c0c <TEE_GetPropertyAsString+0xd8>  // b.any
/home/build/bsp/optee_os/lib/libutee/tee_api_property.c:228
    5bec:	b9404be0 	ldr	w0, [sp, #72]
    5bf0:	7100141f 	cmp	w0, #0x5
    5bf4:	54000081 	b.ne	5c04 <TEE_GetPropertyAsString+0xd0>  // b.any
/home/build/bsp/optee_os/lib/libutee/tee_api_property.c:234
    5bf8:	b9404fe0 	ldr	w0, [sp, #76]
    5bfc:	94000466 	bl	6d94 <_base64_enc_len>
    5c00:	b9004fe0 	str	w0, [sp, #76]
/home/build/bsp/optee_os/lib/libutee/tee_api_property.c:236
    5c04:	b9404fe0 	ldr	w0, [sp, #76]
    5c08:	f9000260 	str	x0, [x19]
/home/build/bsp/optee_os/lib/libutee/tee_api_property.c:290
    5c0c:	aa1403e0 	mov	x0, x20
    5c10:	97fff59f 	bl	328c <TEE_Free>
/home/build/bsp/optee_os/lib/libutee/tee_api_property.c:291
    5c14:	710002bf 	cmp	w21, #0x0
    5c18:	129ffee0 	mov	w0, #0xffff0008            	// #-65528
    5c1c:	7a4012a4 	ccmp	w21, w0, #0x4, ne  // ne = any
    5c20:	540000c0 	b.eq	5c38 <TEE_GetPropertyAsString+0x104>  // b.none
/home/build/bsp/optee_os/lib/libutee/tee_api_property.c:292
    5c24:	129ffde0 	mov	w0, #0xffff0010            	// #-65520
    5c28:	6b0002bf 	cmp	w21, w0
    5c2c:	54000060 	b.eq	5c38 <TEE_GetPropertyAsString+0x104>  // b.none
/home/build/bsp/optee_os/lib/libutee/tee_api_property.c:294
    5c30:	52800000 	mov	w0, #0x0                   	// #0
    5c34:	97fffe54 	bl	5584 <TEE_Panic>
/home/build/bsp/optee_os/lib/libutee/tee_api_property.c:297
    5c38:	b0000062 	adrp	x2, 12000 <_DYNAMIC>
    5c3c:	f9409842 	ldr	x2, [x2, #304]
    5c40:	f9402fe0 	ldr	x0, [sp, #88]
    5c44:	f9400041 	ldr	x1, [x2]
    5c48:	eb010000 	subs	x0, x0, x1
    5c4c:	d2800001 	mov	x1, #0x0                   	// #0
    5c50:	54000980 	b.eq	5d80 <TEE_GetPropertyAsString+0x24c>  // b.none
    5c54:	97ffea97 	bl	6b0 <__stack_chk_fail>
/home/build/bsp/optee_os/lib/libutee/tee_api_property.c:241
    5c58:	b9404be1 	ldr	w1, [sp, #72]
    5c5c:	7100143f 	cmp	w1, #0x5
    5c60:	54000848 	b.hi	5d68 <TEE_GetPropertyAsString+0x234>  // b.pmore
    5c64:	f0000040 	adrp	x0, 10000 <__func__.0+0x28>
    5c68:	91029000 	add	x0, x0, #0xa4
    5c6c:	38614800 	ldrb	w0, [x0, w1, uxtw]
    5c70:	10000061 	adr	x1, 5c7c <TEE_GetPropertyAsString+0x148>
    5c74:	8b208820 	add	x0, x1, w0, sxtb #2
    5c78:	d61f0000 	br	x0
/home/build/bsp/optee_os/lib/libutee/tee_api_property.c:244
    5c7c:	39400282 	ldrb	w2, [x20]
    5c80:	f0000040 	adrp	x0, 10000 <__func__.0+0x28>
    5c84:	f0000041 	adrp	x1, 10000 <__func__.0+0x28>
    5c88:	91272000 	add	x0, x0, #0x9c8
    5c8c:	7100005f 	cmp	w2, #0x0
    5c90:	91270c21 	add	x1, x1, #0x9c3
    5c94:	f9400262 	ldr	x2, [x19]
    5c98:	9a801021 	csel	x1, x1, x0, ne  // ne = any
/home/build/bsp/optee_os/lib/libutee/tee_api_property.c:264
    5c9c:	aa1603e0 	mov	x0, x22
    5ca0:	94001ca2 	bl	cf28 <strlcpy>
/home/build/bsp/optee_os/lib/libutee/tee_api_property.c:265
    5ca4:	14000008 	b	5cc4 <TEE_GetPropertyAsString+0x190>
/home/build/bsp/optee_os/lib/libutee/tee_api_property.c:249
    5ca8:	b9400283 	ldr	w3, [x20]
    5cac:	f0000042 	adrp	x2, 10000 <__func__.0+0x28>
    5cb0:	f9400261 	ldr	x1, [x19]
    5cb4:	91131442 	add	x2, x2, #0x4c5
    5cb8:	aa1603e0 	mov	x0, x22
    5cbc:	94001c29 	bl	cd60 <snprintf>
/home/build/bsp/optee_os/lib/libutee/tee_api_property.c:253
    5cc0:	93407c00 	sxtw	x0, w0
/home/build/bsp/optee_os/lib/libutee/tee_api_property.c:282
    5cc4:	91000402 	add	x2, x0, #0x1
/home/build/bsp/optee_os/lib/libutee/tee_api_property.c:285
    5cc8:	129ffdf5 	mov	w21, #0xffff0010            	// #-65520
/home/build/bsp/optee_os/lib/libutee/tee_api_property.c:284
    5ccc:	f9400260 	ldr	x0, [x19]
/home/build/bsp/optee_os/lib/libutee/tee_api_property.c:286
    5cd0:	f9000262 	str	x2, [x19]
/home/build/bsp/optee_os/lib/libutee/tee_api_property.c:282
    5cd4:	f9002be2 	str	x2, [sp, #80]
/home/build/bsp/optee_os/lib/libutee/tee_api_property.c:285
    5cd8:	eb00005f 	cmp	x2, x0
    5cdc:	1a9593f5 	csel	w21, wzr, w21, ls  // ls = plast
/home/build/bsp/optee_os/lib/libutee/tee_api_property.c:286
    5ce0:	17ffffcb 	b	5c0c <TEE_GetPropertyAsString+0xd8>
/home/build/bsp/optee_os/lib/libutee/tee_api_property.c:253
    5ce4:	f9400261 	ldr	x1, [x19]
    5ce8:	aa1403e3 	mov	x3, x20
    5cec:	aa1603e0 	mov	x0, x22
    5cf0:	f0000042 	adrp	x2, 10000 <__func__.0+0x28>
    5cf4:	91274442 	add	x2, x2, #0x9d1
    5cf8:	97ffeac1 	bl	7fc <snprintk>
    5cfc:	17fffff1 	b	5cc0 <TEE_GetPropertyAsString+0x18c>
/home/build/bsp/optee_os/lib/libutee/tee_api_property.c:258
    5d00:	b9400283 	ldr	w3, [x20]
    5d04:	91001284 	add	x4, x20, #0x4
    5d08:	f9400261 	ldr	x1, [x19]
    5d0c:	aa1603e0 	mov	x0, x22
    5d10:	f0000042 	adrp	x2, 10000 <__func__.0+0x28>
    5d14:	91273842 	add	x2, x2, #0x9ce
    5d18:	97ffeab9 	bl	7fc <snprintk>
    5d1c:	17ffffe9 	b	5cc0 <TEE_GetPropertyAsString+0x18c>
/home/build/bsp/optee_os/lib/libutee/tee_api_property.c:264
    5d20:	aa1403e1 	mov	x1, x20
    5d24:	f9400262 	ldr	x2, [x19]
    5d28:	17ffffdd 	b	5c9c <TEE_GetPropertyAsString+0x168>
/home/build/bsp/optee_os/lib/libutee/tee_api_property.c:269
    5d2c:	b9404fe1 	ldr	w1, [sp, #76]
    5d30:	910143e3 	add	x3, sp, #0x50
/home/build/bsp/optee_os/lib/libutee/tee_api_property.c:268
    5d34:	f9400260 	ldr	x0, [x19]
/home/build/bsp/optee_os/lib/libutee/tee_api_property.c:269
    5d38:	aa1603e2 	mov	x2, x22
/home/build/bsp/optee_os/lib/libutee/tee_api_property.c:268
    5d3c:	f9002be0 	str	x0, [sp, #80]
/home/build/bsp/optee_os/lib/libutee/tee_api_property.c:269
    5d40:	aa1403e0 	mov	x0, x20
    5d44:	9400041a 	bl	6dac <_base64_enc>
    5d48:	72001c1f 	tst	w0, #0xff
    5d4c:	f9402be0 	ldr	x0, [sp, #80]
    5d50:	54000081 	b.ne	5d60 <TEE_GetPropertyAsString+0x22c>  // b.any
/home/build/bsp/optee_os/lib/libutee/tee_api_property.c:269 (discriminator 1)
    5d54:	f9400261 	ldr	x1, [x19]
    5d58:	eb00003f 	cmp	x1, x0
    5d5c:	540000a2 	b.cs	5d70 <TEE_GetPropertyAsString+0x23c>  // b.hs, b.nlast
/home/build/bsp/optee_os/lib/libutee/tee_api_property.c:274
    5d60:	d1000400 	sub	x0, x0, #0x1
/home/build/bsp/optee_os/lib/libutee/tee_api_property.c:275
    5d64:	17ffffd8 	b	5cc4 <TEE_GetPropertyAsString+0x190>
/home/build/bsp/optee_os/lib/libutee/tee_api_property.c:241
    5d68:	129fff55 	mov	w21, #0xffff0005            	// #-65531
    5d6c:	17ffffa8 	b	5c0c <TEE_GetPropertyAsString+0xd8>
/home/build/bsp/optee_os/lib/libutee/tee_api_property.c:271
    5d70:	52bffff5 	mov	w21, #0xffff0000            	// #-65536
    5d74:	17ffffa6 	b	5c0c <TEE_GetPropertyAsString+0xd8>
/home/build/bsp/optee_os/lib/libutee/tee_api_property.c:220
    5d78:	129ffe75 	mov	w21, #0xffff000c            	// #-65524
    5d7c:	17ffffad 	b	5c30 <TEE_GetPropertyAsString+0xfc>
/home/build/bsp/optee_os/lib/libutee/tee_api_property.c:297
    5d80:	2a1503e0 	mov	w0, w21
    5d84:	a94153f3 	ldp	x19, x20, [sp, #16]
    5d88:	a9425bf5 	ldp	x21, x22, [sp, #32]
    5d8c:	f9401bf7 	ldr	x23, [sp, #48]
    5d90:	a8c67bfd 	ldp	x29, x30, [sp], #96
    5d94:	d65f03c0 	ret

0000000000005d98 <__GP11_TEE_GetPropertyAsString>:
__GP11_TEE_GetPropertyAsString():
/home/build/bsp/optee_os/lib/libutee/tee_api_property.c:302
    5d98:	a9bb7bfd 	stp	x29, x30, [sp, #-80]!
    5d9c:	910003fd 	mov	x29, sp
    5da0:	a90153f3 	stp	x19, x20, [sp, #16]
    5da4:	b0000074 	adrp	x20, 12000 <_DYNAMIC>
    5da8:	aa0303f3 	mov	x19, x3
    5dac:	a9025bf5 	stp	x21, x22, [sp, #32]
    5db0:	aa0003f6 	mov	x22, x0
    5db4:	aa0203f5 	mov	x21, x2
    5db8:	f9409a80 	ldr	x0, [x20, #304]
    5dbc:	f9001bf7 	str	x23, [sp, #48]
    5dc0:	aa0103f7 	mov	x23, x1
    5dc4:	f9400001 	ldr	x1, [x0]
    5dc8:	f90027e1 	str	x1, [sp, #72]
    5dcc:	d2800001 	mov	x1, #0x0                   	// #0
/home/build/bsp/optee_os/lib/libutee/tee_api_property.c:306
    5dd0:	aa0203e0 	mov	x0, x2
    5dd4:	aa0303e1 	mov	x1, x3
/home/build/bsp/optee_os/lib/libutee/tee_api_property.c:304
    5dd8:	f90023ff 	str	xzr, [sp, #64]
/home/build/bsp/optee_os/lib/libutee/tee_api_property.c:306
    5ddc:	97fffe35 	bl	56b0 <__utee_check_gp11_outstring_annotation>
/home/build/bsp/optee_os/lib/libutee/tee_api_property.c:307
    5de0:	b9400260 	ldr	w0, [x19]
/home/build/bsp/optee_os/lib/libutee/tee_api_property.c:308
    5de4:	aa1503e2 	mov	x2, x21
    5de8:	aa1703e1 	mov	x1, x23
    5dec:	910103e3 	add	x3, sp, #0x40
/home/build/bsp/optee_os/lib/libutee/tee_api_property.c:307
    5df0:	f90023e0 	str	x0, [sp, #64]
/home/build/bsp/optee_os/lib/libutee/tee_api_property.c:308
    5df4:	aa1603e0 	mov	x0, x22
    5df8:	97ffff4f 	bl	5b34 <TEE_GetPropertyAsString>
/home/build/bsp/optee_os/lib/libutee/tee_api_property.c:312
    5dfc:	f9409a94 	ldr	x20, [x20, #304]
/home/build/bsp/optee_os/lib/libutee/tee_api_property.c:310
    5e00:	f94023e1 	ldr	x1, [sp, #64]
    5e04:	b9000261 	str	w1, [x19]
/home/build/bsp/optee_os/lib/libutee/tee_api_property.c:312
    5e08:	f94027e1 	ldr	x1, [sp, #72]
    5e0c:	f9400282 	ldr	x2, [x20]
    5e10:	eb020021 	subs	x1, x1, x2
    5e14:	d2800002 	mov	x2, #0x0                   	// #0
    5e18:	54000040 	b.eq	5e20 <__GP11_TEE_GetPropertyAsString+0x88>  // b.none
    5e1c:	97ffea25 	bl	6b0 <__stack_chk_fail>
    5e20:	a94153f3 	ldp	x19, x20, [sp, #16]
    5e24:	a9425bf5 	ldp	x21, x22, [sp, #32]
    5e28:	f9401bf7 	ldr	x23, [sp, #48]
    5e2c:	a8c57bfd 	ldp	x29, x30, [sp], #80
    5e30:	d65f03c0 	ret

0000000000005e34 <TEE_GetPropertyAsBool>:
TEE_GetPropertyAsBool():
/home/build/bsp/optee_os/lib/libutee/tee_api_property.c:316
    5e34:	a9bc7bfd 	stp	x29, x30, [sp, #-64]!
    5e38:	b0000064 	adrp	x4, 12000 <_DYNAMIC>
    5e3c:	910003fd 	mov	x29, sp
    5e40:	f9409884 	ldr	x4, [x4, #304]
    5e44:	a90153f3 	stp	x19, x20, [sp, #16]
    5e48:	aa0103f3 	mov	x19, x1
    5e4c:	f90013f5 	str	x21, [sp, #32]
    5e50:	aa0203f4 	mov	x20, x2
    5e54:	aa0003f5 	mov	x21, x0
    5e58:	f9400081 	ldr	x1, [x4]
    5e5c:	f9001fe1 	str	x1, [sp, #56]
    5e60:	d2800001 	mov	x1, #0x0                   	// #0
/home/build/bsp/optee_os/lib/libutee/tee_api_property.c:319
    5e64:	52800021 	mov	w1, #0x1                   	// #1
    5e68:	b90037e1 	str	w1, [sp, #52]
/home/build/bsp/optee_os/lib/libutee/tee_api_property.c:321
    5e6c:	97fffe59 	bl	57d0 <is_propset_pseudo_handle>
    5e70:	72001c1f 	tst	w0, #0xff
    5e74:	54000060 	b.eq	5e80 <TEE_GetPropertyAsBool+0x4c>  // b.none
/home/build/bsp/optee_os/lib/libutee/tee_api_property.c:322
    5e78:	aa1303e0 	mov	x0, x19
    5e7c:	97fffdee 	bl	5634 <__utee_check_instring_annotation>
/home/build/bsp/optee_os/lib/libutee/tee_api_property.c:323
    5e80:	aa1403e0 	mov	x0, x20
    5e84:	d2800021 	mov	x1, #0x1                   	// #1
    5e88:	97fffe1d 	bl	56fc <__utee_check_out_annotation>
/home/build/bsp/optee_os/lib/libutee/tee_api_property.c:325
    5e8c:	b90033ff 	str	wzr, [sp, #48]
/home/build/bsp/optee_os/lib/libutee/tee_api_property.c:326
    5e90:	aa1303e1 	mov	x1, x19
    5e94:	9100c3e2 	add	x2, sp, #0x30
    5e98:	9100d3e4 	add	x4, sp, #0x34
    5e9c:	aa1403e3 	mov	x3, x20
    5ea0:	aa1503e0 	mov	x0, x21
    5ea4:	97fffea6 	bl	593c <propget_get_property>
/home/build/bsp/optee_os/lib/libutee/tee_api_property.c:329
    5ea8:	b94033e2 	ldr	w2, [sp, #48]
    5eac:	129fff41 	mov	w1, #0xffff0005            	// #-65531
    5eb0:	7100005f 	cmp	w2, #0x0
    5eb4:	1a810013 	csel	w19, w0, w1, eq  // eq = none
/home/build/bsp/optee_os/lib/libutee/tee_api_property.c:334
    5eb8:	129ffee0 	mov	w0, #0xffff0008            	// #-65528
    5ebc:	7100027f 	cmp	w19, #0x0
    5ec0:	7a401264 	ccmp	w19, w0, #0x4, ne  // ne = any
    5ec4:	540000a0 	b.eq	5ed8 <TEE_GetPropertyAsBool+0xa4>  // b.none
/home/build/bsp/optee_os/lib/libutee/tee_api_property.c:335
    5ec8:	6b01027f 	cmp	w19, w1
    5ecc:	54000060 	b.eq	5ed8 <TEE_GetPropertyAsBool+0xa4>  // b.none
/home/build/bsp/optee_os/lib/libutee/tee_api_property.c:337
    5ed0:	52800000 	mov	w0, #0x0                   	// #0
    5ed4:	97fffdac 	bl	5584 <TEE_Panic>
/home/build/bsp/optee_os/lib/libutee/tee_api_property.c:340
    5ed8:	b0000064 	adrp	x4, 12000 <_DYNAMIC>
    5edc:	f9409884 	ldr	x4, [x4, #304]
    5ee0:	f9401fe0 	ldr	x0, [sp, #56]
    5ee4:	f9400081 	ldr	x1, [x4]
    5ee8:	eb010000 	subs	x0, x0, x1
    5eec:	d2800001 	mov	x1, #0x0                   	// #0
    5ef0:	54000040 	b.eq	5ef8 <TEE_GetPropertyAsBool+0xc4>  // b.none
    5ef4:	97ffe9ef 	bl	6b0 <__stack_chk_fail>
    5ef8:	2a1303e0 	mov	w0, w19
    5efc:	a94153f3 	ldp	x19, x20, [sp, #16]
    5f00:	f94013f5 	ldr	x21, [sp, #32]
    5f04:	a8c47bfd 	ldp	x29, x30, [sp], #64
    5f08:	d65f03c0 	ret

0000000000005f0c <TEE_GetPropertyAsU32>:
TEE_GetPropertyAsU32():
/home/build/bsp/optee_os/lib/libutee/tee_api_property.c:344
    5f0c:	a9bc7bfd 	stp	x29, x30, [sp, #-64]!
    5f10:	b0000064 	adrp	x4, 12000 <_DYNAMIC>
    5f14:	910003fd 	mov	x29, sp
    5f18:	f9409884 	ldr	x4, [x4, #304]
    5f1c:	a90153f3 	stp	x19, x20, [sp, #16]
    5f20:	aa0103f3 	mov	x19, x1
    5f24:	f90013f5 	str	x21, [sp, #32]
    5f28:	aa0203f4 	mov	x20, x2
    5f2c:	aa0003f5 	mov	x21, x0
    5f30:	f9400081 	ldr	x1, [x4]
    5f34:	f9001fe1 	str	x1, [sp, #56]
    5f38:	d2800001 	mov	x1, #0x0                   	// #0
/home/build/bsp/optee_os/lib/libutee/tee_api_property.c:347
    5f3c:	52800081 	mov	w1, #0x4                   	// #4
    5f40:	b90037e1 	str	w1, [sp, #52]
/home/build/bsp/optee_os/lib/libutee/tee_api_property.c:349
    5f44:	97fffe23 	bl	57d0 <is_propset_pseudo_handle>
    5f48:	72001c1f 	tst	w0, #0xff
    5f4c:	54000060 	b.eq	5f58 <TEE_GetPropertyAsU32+0x4c>  // b.none
/home/build/bsp/optee_os/lib/libutee/tee_api_property.c:350
    5f50:	aa1303e0 	mov	x0, x19
    5f54:	97fffdb8 	bl	5634 <__utee_check_instring_annotation>
/home/build/bsp/optee_os/lib/libutee/tee_api_property.c:351
    5f58:	aa1403e0 	mov	x0, x20
    5f5c:	d2800081 	mov	x1, #0x4                   	// #4
    5f60:	97fffde7 	bl	56fc <__utee_check_out_annotation>
/home/build/bsp/optee_os/lib/libutee/tee_api_property.c:353
    5f64:	52800020 	mov	w0, #0x1                   	// #1
/home/build/bsp/optee_os/lib/libutee/tee_api_property.c:354
    5f68:	aa1303e1 	mov	x1, x19
    5f6c:	9100d3e4 	add	x4, sp, #0x34
    5f70:	aa1403e3 	mov	x3, x20
    5f74:	9100c3e2 	add	x2, sp, #0x30
/home/build/bsp/optee_os/lib/libutee/tee_api_property.c:353
    5f78:	b90033e0 	str	w0, [sp, #48]
/home/build/bsp/optee_os/lib/libutee/tee_api_property.c:354
    5f7c:	aa1503e0 	mov	x0, x21
    5f80:	97fffe6f 	bl	593c <propget_get_property>
    5f84:	2a0003f3 	mov	w19, w0
/home/build/bsp/optee_os/lib/libutee/tee_api_property.c:356
    5f88:	b94033e0 	ldr	w0, [sp, #48]
    5f8c:	7100041f 	cmp	w0, #0x1
    5f90:	54000241 	b.ne	5fd8 <TEE_GetPropertyAsU32+0xcc>  // b.any
/home/build/bsp/optee_os/lib/libutee/tee_api_property.c:359
    5f94:	7100027f 	cmp	w19, #0x0
    5f98:	129ffee0 	mov	w0, #0xffff0008            	// #-65528
    5f9c:	7a401264 	ccmp	w19, w0, #0x4, ne  // ne = any
    5fa0:	540000c0 	b.eq	5fb8 <TEE_GetPropertyAsU32+0xac>  // b.none
/home/build/bsp/optee_os/lib/libutee/tee_api_property.c:360
    5fa4:	129fff40 	mov	w0, #0xffff0005            	// #-65531
    5fa8:	6b00027f 	cmp	w19, w0
    5fac:	54000060 	b.eq	5fb8 <TEE_GetPropertyAsU32+0xac>  // b.none
/home/build/bsp/optee_os/lib/libutee/tee_api_property.c:362
    5fb0:	52800000 	mov	w0, #0x0                   	// #0
    5fb4:	97fffd74 	bl	5584 <TEE_Panic>
/home/build/bsp/optee_os/lib/libutee/tee_api_property.c:365
    5fb8:	b0000064 	adrp	x4, 12000 <_DYNAMIC>
    5fbc:	f9409884 	ldr	x4, [x4, #304]
    5fc0:	f9401fe0 	ldr	x0, [sp, #56]
    5fc4:	f9400081 	ldr	x1, [x4]
    5fc8:	eb010000 	subs	x0, x0, x1
    5fcc:	d2800001 	mov	x1, #0x0                   	// #0
    5fd0:	54000080 	b.eq	5fe0 <TEE_GetPropertyAsU32+0xd4>  // b.none
    5fd4:	97ffe9b7 	bl	6b0 <__stack_chk_fail>
/home/build/bsp/optee_os/lib/libutee/tee_api_property.c:357
    5fd8:	129fff53 	mov	w19, #0xffff0005            	// #-65531
/home/build/bsp/optee_os/lib/libutee/tee_api_property.c:364
    5fdc:	17fffff7 	b	5fb8 <TEE_GetPropertyAsU32+0xac>
/home/build/bsp/optee_os/lib/libutee/tee_api_property.c:365
    5fe0:	2a1303e0 	mov	w0, w19
    5fe4:	a94153f3 	ldp	x19, x20, [sp, #16]
    5fe8:	f94013f5 	ldr	x21, [sp, #32]
    5fec:	a8c47bfd 	ldp	x29, x30, [sp], #64
    5ff0:	d65f03c0 	ret

0000000000005ff4 <TEE_GetPropertyAsU64>:
TEE_GetPropertyAsU64():
/home/build/bsp/optee_os/lib/libutee/tee_api_property.c:369
    5ff4:	a9bc7bfd 	stp	x29, x30, [sp, #-64]!
    5ff8:	b0000064 	adrp	x4, 12000 <_DYNAMIC>
    5ffc:	910003fd 	mov	x29, sp
    6000:	f9409884 	ldr	x4, [x4, #304]
    6004:	a90153f3 	stp	x19, x20, [sp, #16]
    6008:	aa0103f3 	mov	x19, x1
    600c:	f90013f5 	str	x21, [sp, #32]
    6010:	aa0203f4 	mov	x20, x2
    6014:	aa0003f5 	mov	x21, x0
    6018:	f9400081 	ldr	x1, [x4]
    601c:	f9001fe1 	str	x1, [sp, #56]
    6020:	d2800001 	mov	x1, #0x0                   	// #0
/home/build/bsp/optee_os/lib/libutee/tee_api_property.c:372
    6024:	52800101 	mov	w1, #0x8                   	// #8
    6028:	b90037e1 	str	w1, [sp, #52]
/home/build/bsp/optee_os/lib/libutee/tee_api_property.c:374
    602c:	97fffde9 	bl	57d0 <is_propset_pseudo_handle>
    6030:	72001c1f 	tst	w0, #0xff
    6034:	54000060 	b.eq	6040 <TEE_GetPropertyAsU64+0x4c>  // b.none
/home/build/bsp/optee_os/lib/libutee/tee_api_property.c:375
    6038:	aa1303e0 	mov	x0, x19
    603c:	97fffd7e 	bl	5634 <__utee_check_instring_annotation>
/home/build/bsp/optee_os/lib/libutee/tee_api_property.c:376
    6040:	aa1403e0 	mov	x0, x20
    6044:	d2800101 	mov	x1, #0x8                   	// #8
    6048:	97fffdad 	bl	56fc <__utee_check_out_annotation>
/home/build/bsp/optee_os/lib/libutee/tee_api_property.c:378
    604c:	528000c0 	mov	w0, #0x6                   	// #6
/home/build/bsp/optee_os/lib/libutee/tee_api_property.c:379
    6050:	aa1303e1 	mov	x1, x19
    6054:	9100d3e4 	add	x4, sp, #0x34
    6058:	aa1403e3 	mov	x3, x20
    605c:	9100c3e2 	add	x2, sp, #0x30
/home/build/bsp/optee_os/lib/libutee/tee_api_property.c:378
    6060:	b90033e0 	str	w0, [sp, #48]
/home/build/bsp/optee_os/lib/libutee/tee_api_property.c:379
    6064:	aa1503e0 	mov	x0, x21
    6068:	97fffe35 	bl	593c <propget_get_property>
    606c:	2a0003f3 	mov	w19, w0
/home/build/bsp/optee_os/lib/libutee/tee_api_property.c:381
    6070:	b94033e0 	ldr	w0, [sp, #48]
    6074:	7100181f 	cmp	w0, #0x6
    6078:	54000241 	b.ne	60c0 <TEE_GetPropertyAsU64+0xcc>  // b.any
/home/build/bsp/optee_os/lib/libutee/tee_api_property.c:384
    607c:	7100027f 	cmp	w19, #0x0
    6080:	129ffee0 	mov	w0, #0xffff0008            	// #-65528
    6084:	7a401264 	ccmp	w19, w0, #0x4, ne  // ne = any
    6088:	540000c0 	b.eq	60a0 <TEE_GetPropertyAsU64+0xac>  // b.none
/home/build/bsp/optee_os/lib/libutee/tee_api_property.c:385
    608c:	129fff40 	mov	w0, #0xffff0005            	// #-65531
    6090:	6b00027f 	cmp	w19, w0
    6094:	54000060 	b.eq	60a0 <TEE_GetPropertyAsU64+0xac>  // b.none
/home/build/bsp/optee_os/lib/libutee/tee_api_property.c:387
    6098:	52800000 	mov	w0, #0x0                   	// #0
    609c:	97fffd3a 	bl	5584 <TEE_Panic>
/home/build/bsp/optee_os/lib/libutee/tee_api_property.c:390
    60a0:	90000064 	adrp	x4, 12000 <_DYNAMIC>
    60a4:	f9409884 	ldr	x4, [x4, #304]
    60a8:	f9401fe0 	ldr	x0, [sp, #56]
    60ac:	f9400081 	ldr	x1, [x4]
    60b0:	eb010000 	subs	x0, x0, x1
    60b4:	d2800001 	mov	x1, #0x0                   	// #0
    60b8:	54000080 	b.eq	60c8 <TEE_GetPropertyAsU64+0xd4>  // b.none
    60bc:	97ffe97d 	bl	6b0 <__stack_chk_fail>
/home/build/bsp/optee_os/lib/libutee/tee_api_property.c:382
    60c0:	129fff53 	mov	w19, #0xffff0005            	// #-65531
/home/build/bsp/optee_os/lib/libutee/tee_api_property.c:389
    60c4:	17fffff7 	b	60a0 <TEE_GetPropertyAsU64+0xac>
/home/build/bsp/optee_os/lib/libutee/tee_api_property.c:390
    60c8:	2a1303e0 	mov	w0, w19
    60cc:	a94153f3 	ldp	x19, x20, [sp, #16]
    60d0:	f94013f5 	ldr	x21, [sp, #32]
    60d4:	a8c47bfd 	ldp	x29, x30, [sp], #64
    60d8:	d65f03c0 	ret

00000000000060dc <__GP11_TEE_GetPropertyAsBinaryBlock>:
__GP11_TEE_GetPropertyAsBinaryBlock():
/home/build/bsp/optee_os/lib/libutee/tee_api_property.c:396
    60dc:	a9bc7bfd 	stp	x29, x30, [sp, #-64]!
    60e0:	90000065 	adrp	x5, 12000 <_DYNAMIC>
    60e4:	910003fd 	mov	x29, sp
    60e8:	f94098a5 	ldr	x5, [x5, #304]
    60ec:	a90153f3 	stp	x19, x20, [sp, #16]
    60f0:	aa0103f3 	mov	x19, x1
    60f4:	a9025bf5 	stp	x21, x22, [sp, #32]
    60f8:	aa0203f4 	mov	x20, x2
    60fc:	aa0003f6 	mov	x22, x0
    6100:	f94000a1 	ldr	x1, [x5]
    6104:	f9001fe1 	str	x1, [sp, #56]
    6108:	d2800001 	mov	x1, #0x0                   	// #0
    610c:	aa0303f5 	mov	x21, x3
/home/build/bsp/optee_os/lib/libutee/tee_api_property.c:400
    6110:	97fffdb0 	bl	57d0 <is_propset_pseudo_handle>
    6114:	72001c1f 	tst	w0, #0xff
    6118:	54000060 	b.eq	6124 <__GP11_TEE_GetPropertyAsBinaryBlock+0x48>  // b.none
/home/build/bsp/optee_os/lib/libutee/tee_api_property.c:401
    611c:	aa1303e0 	mov	x0, x19
    6120:	97fffd45 	bl	5634 <__utee_check_instring_annotation>
/home/build/bsp/optee_os/lib/libutee/tee_api_property.c:402
    6124:	aa1503e1 	mov	x1, x21
    6128:	aa1403e0 	mov	x0, x20
    612c:	97fffd2f 	bl	55e8 <__utee_check_gp11_outbuf_annotation>
/home/build/bsp/optee_os/lib/libutee/tee_api_property.c:404
    6130:	528000a0 	mov	w0, #0x5                   	// #5
/home/build/bsp/optee_os/lib/libutee/tee_api_property.c:405
    6134:	aa1303e1 	mov	x1, x19
    6138:	aa1503e4 	mov	x4, x21
    613c:	aa1403e3 	mov	x3, x20
    6140:	9100d3e2 	add	x2, sp, #0x34
/home/build/bsp/optee_os/lib/libutee/tee_api_property.c:404
    6144:	b90037e0 	str	w0, [sp, #52]
/home/build/bsp/optee_os/lib/libutee/tee_api_property.c:405
    6148:	aa1603e0 	mov	x0, x22
    614c:	97fffdfc 	bl	593c <propget_get_property>
    6150:	2a0003f3 	mov	w19, w0
/home/build/bsp/optee_os/lib/libutee/tee_api_property.c:407
    6154:	b94037e0 	ldr	w0, [sp, #52]
    6158:	7100141f 	cmp	w0, #0x5
    615c:	54000261 	b.ne	61a8 <__GP11_TEE_GetPropertyAsBinaryBlock+0xcc>  // b.any
/home/build/bsp/optee_os/lib/libutee/tee_api_property.c:410
    6160:	34000153 	cbz	w19, 6188 <__GP11_TEE_GetPropertyAsBinaryBlock+0xac>
/home/build/bsp/optee_os/lib/libutee/tee_api_property.c:412
    6164:	529fff60 	mov	w0, #0xfffb                	// #65531
    6168:	0b000261 	add	w1, w19, w0
    616c:	71002c3f 	cmp	w1, #0xb
    6170:	54000088 	b.hi	6180 <__GP11_TEE_GetPropertyAsBinaryBlock+0xa4>  // b.pmore
    6174:	92810120 	mov	x0, #0xfffffffffffff7f6    	// #-2058
    6178:	9ac12800 	asr	x0, x0, x1
    617c:	36000060 	tbz	w0, #0, 6188 <__GP11_TEE_GetPropertyAsBinaryBlock+0xac>
/home/build/bsp/optee_os/lib/libutee/tee_api_property.c:414
    6180:	52800000 	mov	w0, #0x0                   	// #0
    6184:	97fffd00 	bl	5584 <TEE_Panic>
/home/build/bsp/optee_os/lib/libutee/tee_api_property.c:417
    6188:	90000065 	adrp	x5, 12000 <_DYNAMIC>
    618c:	f94098a5 	ldr	x5, [x5, #304]
    6190:	f9401fe0 	ldr	x0, [sp, #56]
    6194:	f94000a1 	ldr	x1, [x5]
    6198:	eb010000 	subs	x0, x0, x1
    619c:	d2800001 	mov	x1, #0x0                   	// #0
    61a0:	54000080 	b.eq	61b0 <__GP11_TEE_GetPropertyAsBinaryBlock+0xd4>  // b.none
    61a4:	97ffe943 	bl	6b0 <__stack_chk_fail>
/home/build/bsp/optee_os/lib/libutee/tee_api_property.c:408
    61a8:	129fff53 	mov	w19, #0xffff0005            	// #-65531
/home/build/bsp/optee_os/lib/libutee/tee_api_property.c:416
    61ac:	17fffff7 	b	6188 <__GP11_TEE_GetPropertyAsBinaryBlock+0xac>
/home/build/bsp/optee_os/lib/libutee/tee_api_property.c:417
    61b0:	2a1303e0 	mov	w0, w19
    61b4:	a94153f3 	ldp	x19, x20, [sp, #16]
    61b8:	a9425bf5 	ldp	x21, x22, [sp, #32]
    61bc:	a8c47bfd 	ldp	x29, x30, [sp], #64
    61c0:	d65f03c0 	ret

00000000000061c4 <TEE_GetPropertyAsBinaryBlock>:
TEE_GetPropertyAsBinaryBlock():
/home/build/bsp/optee_os/lib/libutee/tee_api_property.c:422
    61c4:	a9bb7bfd 	stp	x29, x30, [sp, #-80]!
    61c8:	910003fd 	mov	x29, sp
    61cc:	a90153f3 	stp	x19, x20, [sp, #16]
    61d0:	90000074 	adrp	x20, 12000 <_DYNAMIC>
    61d4:	aa0303f3 	mov	x19, x3
    61d8:	a9025bf5 	stp	x21, x22, [sp, #32]
    61dc:	aa0003f6 	mov	x22, x0
    61e0:	aa0203f5 	mov	x21, x2
    61e4:	f9409a80 	ldr	x0, [x20, #304]
    61e8:	f9001bf7 	str	x23, [sp, #48]
    61ec:	aa0103f7 	mov	x23, x1
    61f0:	f9400001 	ldr	x1, [x0]
    61f4:	f90027e1 	str	x1, [sp, #72]
    61f8:	d2800001 	mov	x1, #0x0                   	// #0
/home/build/bsp/optee_os/lib/libutee/tee_api_property.c:426
    61fc:	aa0203e0 	mov	x0, x2
    6200:	aa0303e1 	mov	x1, x3
/home/build/bsp/optee_os/lib/libutee/tee_api_property.c:424
    6204:	b90047ff 	str	wzr, [sp, #68]
/home/build/bsp/optee_os/lib/libutee/tee_api_property.c:426
    6208:	97fffce5 	bl	559c <__utee_check_outbuf_annotation>
/home/build/bsp/optee_os/lib/libutee/tee_api_property.c:427
    620c:	f9400260 	ldr	x0, [x19]
/home/build/bsp/optee_os/lib/libutee/tee_api_property.c:428
    6210:	aa1503e2 	mov	x2, x21
    6214:	aa1703e1 	mov	x1, x23
    6218:	910113e3 	add	x3, sp, #0x44
/home/build/bsp/optee_os/lib/libutee/tee_api_property.c:427
    621c:	b90047e0 	str	w0, [sp, #68]
/home/build/bsp/optee_os/lib/libutee/tee_api_property.c:428
    6220:	aa1603e0 	mov	x0, x22
    6224:	97ffffae 	bl	60dc <__GP11_TEE_GetPropertyAsBinaryBlock>
/home/build/bsp/optee_os/lib/libutee/tee_api_property.c:430
    6228:	b94047e1 	ldr	w1, [sp, #68]
/home/build/bsp/optee_os/lib/libutee/tee_api_property.c:432
    622c:	f9409a94 	ldr	x20, [x20, #304]
/home/build/bsp/optee_os/lib/libutee/tee_api_property.c:430
    6230:	f9000261 	str	x1, [x19]
/home/build/bsp/optee_os/lib/libutee/tee_api_property.c:432
    6234:	f94027e1 	ldr	x1, [sp, #72]
    6238:	f9400282 	ldr	x2, [x20]
    623c:	eb020021 	subs	x1, x1, x2
    6240:	d2800002 	mov	x2, #0x0                   	// #0
    6244:	54000040 	b.eq	624c <TEE_GetPropertyAsBinaryBlock+0x88>  // b.none
    6248:	97ffe91a 	bl	6b0 <__stack_chk_fail>
    624c:	a94153f3 	ldp	x19, x20, [sp, #16]
    6250:	a9425bf5 	ldp	x21, x22, [sp, #32]
    6254:	f9401bf7 	ldr	x23, [sp, #48]
    6258:	a8c57bfd 	ldp	x29, x30, [sp], #80
    625c:	d65f03c0 	ret

0000000000006260 <TEE_GetPropertyAsUUID>:
TEE_GetPropertyAsUUID():
/home/build/bsp/optee_os/lib/libutee/tee_api_property.c:436
    6260:	a9bc7bfd 	stp	x29, x30, [sp, #-64]!
    6264:	90000064 	adrp	x4, 12000 <_DYNAMIC>
    6268:	910003fd 	mov	x29, sp
    626c:	f9409884 	ldr	x4, [x4, #304]
    6270:	a90153f3 	stp	x19, x20, [sp, #16]
    6274:	aa0103f3 	mov	x19, x1
    6278:	f90013f5 	str	x21, [sp, #32]
    627c:	aa0203f4 	mov	x20, x2
    6280:	aa0003f5 	mov	x21, x0
    6284:	f9400081 	ldr	x1, [x4]
    6288:	f9001fe1 	str	x1, [sp, #56]
    628c:	d2800001 	mov	x1, #0x0                   	// #0
/home/build/bsp/optee_os/lib/libutee/tee_api_property.c:439
    6290:	52800201 	mov	w1, #0x10                  	// #16
    6294:	b90037e1 	str	w1, [sp, #52]
/home/build/bsp/optee_os/lib/libutee/tee_api_property.c:441
    6298:	97fffd4e 	bl	57d0 <is_propset_pseudo_handle>
    629c:	72001c1f 	tst	w0, #0xff
    62a0:	54000060 	b.eq	62ac <TEE_GetPropertyAsUUID+0x4c>  // b.none
/home/build/bsp/optee_os/lib/libutee/tee_api_property.c:442
    62a4:	aa1303e0 	mov	x0, x19
    62a8:	97fffce3 	bl	5634 <__utee_check_instring_annotation>
/home/build/bsp/optee_os/lib/libutee/tee_api_property.c:443
    62ac:	aa1403e0 	mov	x0, x20
    62b0:	d2800201 	mov	x1, #0x10                  	// #16
    62b4:	97fffd12 	bl	56fc <__utee_check_out_annotation>
/home/build/bsp/optee_os/lib/libutee/tee_api_property.c:445
    62b8:	52800040 	mov	w0, #0x2                   	// #2
/home/build/bsp/optee_os/lib/libutee/tee_api_property.c:446
    62bc:	aa1303e1 	mov	x1, x19
    62c0:	9100d3e4 	add	x4, sp, #0x34
    62c4:	aa1403e3 	mov	x3, x20
    62c8:	9100c3e2 	add	x2, sp, #0x30
/home/build/bsp/optee_os/lib/libutee/tee_api_property.c:445
    62cc:	b90033e0 	str	w0, [sp, #48]
/home/build/bsp/optee_os/lib/libutee/tee_api_property.c:446
    62d0:	aa1503e0 	mov	x0, x21
    62d4:	97fffd9a 	bl	593c <propget_get_property>
    62d8:	2a0003f3 	mov	w19, w0
/home/build/bsp/optee_os/lib/libutee/tee_api_property.c:448
    62dc:	b94033e0 	ldr	w0, [sp, #48]
    62e0:	7100081f 	cmp	w0, #0x2
    62e4:	54000241 	b.ne	632c <TEE_GetPropertyAsUUID+0xcc>  // b.any
/home/build/bsp/optee_os/lib/libutee/tee_api_property.c:451
    62e8:	7100027f 	cmp	w19, #0x0
    62ec:	129ffee0 	mov	w0, #0xffff0008            	// #-65528
    62f0:	7a401264 	ccmp	w19, w0, #0x4, ne  // ne = any
    62f4:	540000c0 	b.eq	630c <TEE_GetPropertyAsUUID+0xac>  // b.none
/home/build/bsp/optee_os/lib/libutee/tee_api_property.c:452
    62f8:	129fff40 	mov	w0, #0xffff0005            	// #-65531
    62fc:	6b00027f 	cmp	w19, w0
    6300:	54000060 	b.eq	630c <TEE_GetPropertyAsUUID+0xac>  // b.none
/home/build/bsp/optee_os/lib/libutee/tee_api_property.c:454
    6304:	52800000 	mov	w0, #0x0                   	// #0
    6308:	97fffc9f 	bl	5584 <TEE_Panic>
/home/build/bsp/optee_os/lib/libutee/tee_api_property.c:457
    630c:	90000064 	adrp	x4, 12000 <_DYNAMIC>
    6310:	f9409884 	ldr	x4, [x4, #304]
    6314:	f9401fe0 	ldr	x0, [sp, #56]
    6318:	f9400081 	ldr	x1, [x4]
    631c:	eb010000 	subs	x0, x0, x1
    6320:	d2800001 	mov	x1, #0x0                   	// #0
    6324:	54000080 	b.eq	6334 <TEE_GetPropertyAsUUID+0xd4>  // b.none
    6328:	97ffe8e2 	bl	6b0 <__stack_chk_fail>
/home/build/bsp/optee_os/lib/libutee/tee_api_property.c:449
    632c:	129fff53 	mov	w19, #0xffff0005            	// #-65531
/home/build/bsp/optee_os/lib/libutee/tee_api_property.c:456
    6330:	17fffff7 	b	630c <TEE_GetPropertyAsUUID+0xac>
/home/build/bsp/optee_os/lib/libutee/tee_api_property.c:457
    6334:	2a1303e0 	mov	w0, w19
    6338:	a94153f3 	ldp	x19, x20, [sp, #16]
    633c:	f94013f5 	ldr	x21, [sp, #32]
    6340:	a8c47bfd 	ldp	x29, x30, [sp], #64
    6344:	d65f03c0 	ret

0000000000006348 <TEE_GetPropertyAsIdentity>:
TEE_GetPropertyAsIdentity():
/home/build/bsp/optee_os/lib/libutee/tee_api_property.c:461
    6348:	a9bc7bfd 	stp	x29, x30, [sp, #-64]!
    634c:	90000064 	adrp	x4, 12000 <_DYNAMIC>
    6350:	910003fd 	mov	x29, sp
    6354:	f9409884 	ldr	x4, [x4, #304]
    6358:	a90153f3 	stp	x19, x20, [sp, #16]
    635c:	aa0103f3 	mov	x19, x1
    6360:	f90013f5 	str	x21, [sp, #32]
    6364:	aa0203f4 	mov	x20, x2
    6368:	aa0003f5 	mov	x21, x0
    636c:	f9400081 	ldr	x1, [x4]
    6370:	f9001fe1 	str	x1, [sp, #56]
    6374:	d2800001 	mov	x1, #0x0                   	// #0
/home/build/bsp/optee_os/lib/libutee/tee_api_property.c:464
    6378:	52800281 	mov	w1, #0x14                  	// #20
    637c:	b90037e1 	str	w1, [sp, #52]
/home/build/bsp/optee_os/lib/libutee/tee_api_property.c:466
    6380:	97fffd14 	bl	57d0 <is_propset_pseudo_handle>
    6384:	72001c1f 	tst	w0, #0xff
    6388:	54000060 	b.eq	6394 <TEE_GetPropertyAsIdentity+0x4c>  // b.none
/home/build/bsp/optee_os/lib/libutee/tee_api_property.c:467
    638c:	aa1303e0 	mov	x0, x19
    6390:	97fffca9 	bl	5634 <__utee_check_instring_annotation>
/home/build/bsp/optee_os/lib/libutee/tee_api_property.c:468
    6394:	aa1403e0 	mov	x0, x20
    6398:	d2800281 	mov	x1, #0x14                  	// #20
    639c:	97fffcd8 	bl	56fc <__utee_check_out_annotation>
/home/build/bsp/optee_os/lib/libutee/tee_api_property.c:470
    63a0:	52800060 	mov	w0, #0x3                   	// #3
/home/build/bsp/optee_os/lib/libutee/tee_api_property.c:471
    63a4:	aa1303e1 	mov	x1, x19
    63a8:	9100d3e4 	add	x4, sp, #0x34
    63ac:	aa1403e3 	mov	x3, x20
    63b0:	9100c3e2 	add	x2, sp, #0x30
/home/build/bsp/optee_os/lib/libutee/tee_api_property.c:470
    63b4:	b90033e0 	str	w0, [sp, #48]
/home/build/bsp/optee_os/lib/libutee/tee_api_property.c:471
    63b8:	aa1503e0 	mov	x0, x21
    63bc:	97fffd60 	bl	593c <propget_get_property>
    63c0:	2a0003f3 	mov	w19, w0
/home/build/bsp/optee_os/lib/libutee/tee_api_property.c:473
    63c4:	b94033e0 	ldr	w0, [sp, #48]
    63c8:	71000c1f 	cmp	w0, #0x3
    63cc:	54000241 	b.ne	6414 <TEE_GetPropertyAsIdentity+0xcc>  // b.any
/home/build/bsp/optee_os/lib/libutee/tee_api_property.c:476
    63d0:	7100027f 	cmp	w19, #0x0
    63d4:	129ffee0 	mov	w0, #0xffff0008            	// #-65528
    63d8:	7a401264 	ccmp	w19, w0, #0x4, ne  // ne = any
    63dc:	540000c0 	b.eq	63f4 <TEE_GetPropertyAsIdentity+0xac>  // b.none
/home/build/bsp/optee_os/lib/libutee/tee_api_property.c:477
    63e0:	129fff40 	mov	w0, #0xffff0005            	// #-65531
    63e4:	6b00027f 	cmp	w19, w0
    63e8:	54000060 	b.eq	63f4 <TEE_GetPropertyAsIdentity+0xac>  // b.none
/home/build/bsp/optee_os/lib/libutee/tee_api_property.c:479
    63ec:	52800000 	mov	w0, #0x0                   	// #0
    63f0:	97fffc65 	bl	5584 <TEE_Panic>
/home/build/bsp/optee_os/lib/libutee/tee_api_property.c:482
    63f4:	90000064 	adrp	x4, 12000 <_DYNAMIC>
    63f8:	f9409884 	ldr	x4, [x4, #304]
    63fc:	f9401fe0 	ldr	x0, [sp, #56]
    6400:	f9400081 	ldr	x1, [x4]
    6404:	eb010000 	subs	x0, x0, x1
    6408:	d2800001 	mov	x1, #0x0                   	// #0
    640c:	54000080 	b.eq	641c <TEE_GetPropertyAsIdentity+0xd4>  // b.none
    6410:	97ffe8a8 	bl	6b0 <__stack_chk_fail>
/home/build/bsp/optee_os/lib/libutee/tee_api_property.c:474
    6414:	129fff53 	mov	w19, #0xffff0005            	// #-65531
/home/build/bsp/optee_os/lib/libutee/tee_api_property.c:481
    6418:	17fffff7 	b	63f4 <TEE_GetPropertyAsIdentity+0xac>
/home/build/bsp/optee_os/lib/libutee/tee_api_property.c:482
    641c:	2a1303e0 	mov	w0, w19
    6420:	a94153f3 	ldp	x19, x20, [sp, #16]
    6424:	f94013f5 	ldr	x21, [sp, #32]
    6428:	a8c47bfd 	ldp	x29, x30, [sp], #64
    642c:	d65f03c0 	ret

0000000000006430 <TEE_ResetPropertyEnumerator>:
TEE_ResetPropertyEnumerator():
/home/build/bsp/optee_os/lib/libutee/tee_api_property.c:515
    6430:	12800001 	mov	w1, #0xffffffff            	// #-1
    6434:	b9000001 	str	w1, [x0]
/home/build/bsp/optee_os/lib/libutee/tee_api_property.c:516
    6438:	d65f03c0 	ret

000000000000643c <TEE_AllocatePropertyEnumerator>:
TEE_AllocatePropertyEnumerator():
/home/build/bsp/optee_os/lib/libutee/tee_api_property.c:485
    643c:	a9be7bfd 	stp	x29, x30, [sp, #-32]!
/home/build/bsp/optee_os/lib/libutee/tee_api_property.c:489
    6440:	d2800101 	mov	x1, #0x8                   	// #8
/home/build/bsp/optee_os/lib/libutee/tee_api_property.c:485
    6444:	910003fd 	mov	x29, sp
    6448:	f9000bf3 	str	x19, [sp, #16]
    644c:	aa0003f3 	mov	x19, x0
/home/build/bsp/optee_os/lib/libutee/tee_api_property.c:489
    6450:	97fffcab 	bl	56fc <__utee_check_out_annotation>
/home/build/bsp/optee_os/lib/libutee/tee_api_property.c:491
    6454:	52b00001 	mov	w1, #0x80000000            	// #-2147483648
    6458:	d2800200 	mov	x0, #0x10                  	// #16
    645c:	97fff341 	bl	3160 <TEE_Malloc>
/home/build/bsp/optee_os/lib/libutee/tee_api_property.c:493
    6460:	b40000e0 	cbz	x0, 647c <TEE_AllocatePropertyEnumerator+0x40>
/home/build/bsp/optee_os/lib/libutee/tee_api_property.c:498
    6464:	f9000260 	str	x0, [x19]
/home/build/bsp/optee_os/lib/libutee/tee_api_property.c:499
    6468:	97fffff2 	bl	6430 <TEE_ResetPropertyEnumerator>
/home/build/bsp/optee_os/lib/libutee/tee_api_property.c:508
    646c:	52800000 	mov	w0, #0x0                   	// #0
/home/build/bsp/optee_os/lib/libutee/tee_api_property.c:509
    6470:	f9400bf3 	ldr	x19, [sp, #16]
    6474:	a8c27bfd 	ldp	x29, x30, [sp], #32
    6478:	d65f03c0 	ret
/home/build/bsp/optee_os/lib/libutee/tee_api_property.c:505
    647c:	129ffe60 	mov	w0, #0xffff000c            	// #-65524
    6480:	17fffffc 	b	6470 <TEE_AllocatePropertyEnumerator+0x34>

0000000000006484 <TEE_FreePropertyEnumerator>:
TEE_FreePropertyEnumerator():
/home/build/bsp/optee_os/lib/libutee/tee_api_property.c:522
    6484:	17fff382 	b	328c <TEE_Free>

0000000000006488 <TEE_StartPropertyEnumerator>:
TEE_StartPropertyEnumerator():
/home/build/bsp/optee_os/lib/libutee/tee_api_property.c:530
    6488:	b4000060 	cbz	x0, 6494 <TEE_StartPropertyEnumerator+0xc>
/home/build/bsp/optee_os/lib/libutee/tee_api_property.c:533
    648c:	b900001f 	str	wzr, [x0]
/home/build/bsp/optee_os/lib/libutee/tee_api_property.c:534
    6490:	f9000401 	str	x1, [x0, #8]
/home/build/bsp/optee_os/lib/libutee/tee_api_property.c:535
    6494:	d65f03c0 	ret

0000000000006498 <__GP11_TEE_GetPropertyName>:
__GP11_TEE_GetPropertyName():
/home/build/bsp/optee_os/lib/libutee/tee_api_property.c:539
    6498:	a9bb7bfd 	stp	x29, x30, [sp, #-80]!
    649c:	90000064 	adrp	x4, 12000 <_DYNAMIC>
    64a0:	910003fd 	mov	x29, sp
    64a4:	f9409884 	ldr	x4, [x4, #304]
    64a8:	a90153f3 	stp	x19, x20, [sp, #16]
    64ac:	a9025bf5 	stp	x21, x22, [sp, #32]
    64b0:	aa0003f6 	mov	x22, x0
    64b4:	f9400080 	ldr	x0, [x4]
    64b8:	f90027e0 	str	x0, [sp, #72]
    64bc:	d2800000 	mov	x0, #0x0                   	// #0
/home/build/bsp/optee_os/lib/libutee/tee_api_property.c:547
    64c0:	b4000776 	cbz	x22, 65ac <__GP11_TEE_GetPropertyName+0x114>
    64c4:	aa0103f5 	mov	x21, x1
    64c8:	aa0203f4 	mov	x20, x2
/home/build/bsp/optee_os/lib/libutee/tee_api_property.c:551
    64cc:	aa0203e1 	mov	x1, x2
    64d0:	aa1503e0 	mov	x0, x21
    64d4:	97fffc77 	bl	56b0 <__utee_check_gp11_outstring_annotation>
/home/build/bsp/optee_os/lib/libutee/tee_api_property.c:554
    64d8:	f94006c7 	ldr	x7, [x22, #8]
    64dc:	910103e2 	add	x2, sp, #0x40
/home/build/bsp/optee_os/lib/libutee/tee_api_property.c:553
    64e0:	b9400284 	ldr	w4, [x20]
/home/build/bsp/optee_os/lib/libutee/tee_api_property.c:554
    64e4:	9100e3e1 	add	x1, sp, #0x38
    64e8:	aa0703e0 	mov	x0, x7
    64ec:	97fffc9e 	bl	5764 <propset_get>
    64f0:	2a0003f3 	mov	w19, w0
/home/build/bsp/optee_os/lib/libutee/tee_api_property.c:555
    64f4:	35000260 	cbnz	w0, 6540 <__GP11_TEE_GetPropertyName+0xa8>
/home/build/bsp/optee_os/lib/libutee/tee_api_property.c:558
    64f8:	f94023e1 	ldr	x1, [sp, #64]
    64fc:	b94002c0 	ldr	w0, [x22]
    6500:	2a0003e8 	mov	w8, w0
    6504:	eb20403f 	cmp	x1, w0, uxtw
    6508:	540003e9 	b.ls	6584 <__GP11_TEE_GetPropertyName+0xec>  // b.plast
/home/build/bsp/optee_os/lib/libutee/tee_api_property.c:559
    650c:	52800301 	mov	w1, #0x18                  	// #24
/home/build/bsp/optee_os/lib/libutee/tee_api_property.c:560
    6510:	2a0403e2 	mov	w2, w4
/home/build/bsp/optee_os/lib/libutee/tee_api_property.c:562
    6514:	129ffdf3 	mov	w19, #0xffff0010            	// #-65520
/home/build/bsp/optee_os/lib/libutee/tee_api_property.c:559
    6518:	9ba17c00 	umull	x0, w0, w1
/home/build/bsp/optee_os/lib/libutee/tee_api_property.c:560
    651c:	f9401fe1 	ldr	x1, [sp, #56]
    6520:	f8606821 	ldr	x1, [x1, x0]
    6524:	aa1503e0 	mov	x0, x21
    6528:	94001a80 	bl	cf28 <strlcpy>
    652c:	91000400 	add	x0, x0, #0x1
/home/build/bsp/optee_os/lib/libutee/tee_api_property.c:561
    6530:	b9400281 	ldr	w1, [x20]
/home/build/bsp/optee_os/lib/libutee/tee_api_property.c:563
    6534:	b9000280 	str	w0, [x20]
/home/build/bsp/optee_os/lib/libutee/tee_api_property.c:562
    6538:	eb00003f 	cmp	x1, x0
    653c:	1a9323f3 	csel	w19, wzr, w19, cs  // cs = hs, nlast
/home/build/bsp/optee_os/lib/libutee/tee_api_property.c:573
    6540:	7100027f 	cmp	w19, #0x0
    6544:	129ffee0 	mov	w0, #0xffff0008            	// #-65528
    6548:	7a401264 	ccmp	w19, w0, #0x4, ne  // ne = any
    654c:	540000c0 	b.eq	6564 <__GP11_TEE_GetPropertyName+0xcc>  // b.none
/home/build/bsp/optee_os/lib/libutee/tee_api_property.c:574
    6550:	129ffde0 	mov	w0, #0xffff0010            	// #-65520
    6554:	6b00027f 	cmp	w19, w0
    6558:	54000060 	b.eq	6564 <__GP11_TEE_GetPropertyName+0xcc>  // b.none
/home/build/bsp/optee_os/lib/libutee/tee_api_property.c:576
    655c:	52800000 	mov	w0, #0x0                   	// #0
    6560:	97fffc09 	bl	5584 <TEE_Panic>
/home/build/bsp/optee_os/lib/libutee/tee_api_property.c:578
    6564:	90000064 	adrp	x4, 12000 <_DYNAMIC>
    6568:	f9409884 	ldr	x4, [x4, #304]
    656c:	f94027e0 	ldr	x0, [sp, #72]
    6570:	f9400081 	ldr	x1, [x4]
    6574:	eb010000 	subs	x0, x0, x1
    6578:	d2800001 	mov	x1, #0x0                   	// #0
    657c:	540001c0 	b.eq	65b4 <__GP11_TEE_GetPropertyName+0x11c>  // b.none
    6580:	97ffe84c 	bl	6b0 <__stack_chk_fail>
/home/build/bsp/optee_os/lib/libutee/tee_api_property.c:565
    6584:	aa1403e3 	mov	x3, x20
    6588:	aa1503e2 	mov	x2, x21
    658c:	cb010101 	sub	x1, x8, x1
    6590:	aa0703e0 	mov	x0, x7
    6594:	d2800006 	mov	x6, #0x0                   	// #0
    6598:	d2800005 	mov	x5, #0x0                   	// #0
    659c:	d2800004 	mov	x4, #0x0                   	// #0
    65a0:	97ffeeba 	bl	2088 <_utee_get_property>
    65a4:	2a0003f3 	mov	w19, w0
/home/build/bsp/optee_os/lib/libutee/tee_api_property.c:572
    65a8:	17ffffe6 	b	6540 <__GP11_TEE_GetPropertyName+0xa8>
/home/build/bsp/optee_os/lib/libutee/tee_api_property.c:548
    65ac:	129fff33 	mov	w19, #0xffff0006            	// #-65530
    65b0:	17ffffe4 	b	6540 <__GP11_TEE_GetPropertyName+0xa8>
/home/build/bsp/optee_os/lib/libutee/tee_api_property.c:578
    65b4:	2a1303e0 	mov	w0, w19
    65b8:	a94153f3 	ldp	x19, x20, [sp, #16]
    65bc:	a9425bf5 	ldp	x21, x22, [sp, #32]
    65c0:	a8c57bfd 	ldp	x29, x30, [sp], #80
    65c4:	d65f03c0 	ret

00000000000065c8 <TEE_GetPropertyName>:
TEE_GetPropertyName():
/home/build/bsp/optee_os/lib/libutee/tee_api_property.c:582
    65c8:	a9bc7bfd 	stp	x29, x30, [sp, #-64]!
    65cc:	910003fd 	mov	x29, sp
    65d0:	a90153f3 	stp	x19, x20, [sp, #16]
    65d4:	90000074 	adrp	x20, 12000 <_DYNAMIC>
    65d8:	aa0203f3 	mov	x19, x2
    65dc:	a9025bf5 	stp	x21, x22, [sp, #32]
    65e0:	aa0003f6 	mov	x22, x0
    65e4:	aa0103f5 	mov	x21, x1
    65e8:	f9409a80 	ldr	x0, [x20, #304]
    65ec:	f9400001 	ldr	x1, [x0]
    65f0:	f9001fe1 	str	x1, [sp, #56]
    65f4:	d2800001 	mov	x1, #0x0                   	// #0
/home/build/bsp/optee_os/lib/libutee/tee_api_property.c:586
    65f8:	aa1503e0 	mov	x0, x21
    65fc:	aa0203e1 	mov	x1, x2
/home/build/bsp/optee_os/lib/libutee/tee_api_property.c:584
    6600:	b90037ff 	str	wzr, [sp, #52]
/home/build/bsp/optee_os/lib/libutee/tee_api_property.c:586
    6604:	97fffc18 	bl	5664 <__utee_check_outstring_annotation>
/home/build/bsp/optee_os/lib/libutee/tee_api_property.c:587
    6608:	f9400260 	ldr	x0, [x19]
/home/build/bsp/optee_os/lib/libutee/tee_api_property.c:588
    660c:	9100d3e2 	add	x2, sp, #0x34
    6610:	aa1503e1 	mov	x1, x21
/home/build/bsp/optee_os/lib/libutee/tee_api_property.c:587
    6614:	b90037e0 	str	w0, [sp, #52]
/home/build/bsp/optee_os/lib/libutee/tee_api_property.c:588
    6618:	aa1603e0 	mov	x0, x22
    661c:	97ffff9f 	bl	6498 <__GP11_TEE_GetPropertyName>
/home/build/bsp/optee_os/lib/libutee/tee_api_property.c:589
    6620:	b94037e1 	ldr	w1, [sp, #52]
/home/build/bsp/optee_os/lib/libutee/tee_api_property.c:591
    6624:	f9409a94 	ldr	x20, [x20, #304]
/home/build/bsp/optee_os/lib/libutee/tee_api_property.c:589
    6628:	f9000261 	str	x1, [x19]
/home/build/bsp/optee_os/lib/libutee/tee_api_property.c:591
    662c:	f9401fe1 	ldr	x1, [sp, #56]
    6630:	f9400282 	ldr	x2, [x20]
    6634:	eb020021 	subs	x1, x1, x2
    6638:	d2800002 	mov	x2, #0x0                   	// #0
    663c:	54000040 	b.eq	6644 <TEE_GetPropertyName+0x7c>  // b.none
    6640:	97ffe81c 	bl	6b0 <__stack_chk_fail>
    6644:	a94153f3 	ldp	x19, x20, [sp, #16]
    6648:	a9425bf5 	ldp	x21, x22, [sp, #32]
    664c:	a8c47bfd 	ldp	x29, x30, [sp], #64
    6650:	d65f03c0 	ret

0000000000006654 <TEE_GetNextProperty>:
TEE_GetNextProperty():
/home/build/bsp/optee_os/lib/libutee/tee_api_property.c:594
    6654:	a9bc7bfd 	stp	x29, x30, [sp, #-64]!
    6658:	90000061 	adrp	x1, 12000 <_DYNAMIC>
    665c:	aa0003e5 	mov	x5, x0
    6660:	910003fd 	mov	x29, sp
    6664:	f9409821 	ldr	x1, [x1, #304]
    6668:	f9000bf3 	str	x19, [sp, #16]
    666c:	f9400020 	ldr	x0, [x1]
    6670:	f9001fe0 	str	x0, [sp, #56]
    6674:	d2800000 	mov	x0, #0x0                   	// #0
/home/build/bsp/optee_os/lib/libutee/tee_api_property.c:601
    6678:	b40004e5 	cbz	x5, 6714 <TEE_GetNextProperty+0xc0>
/home/build/bsp/optee_os/lib/libutee/tee_api_property.c:606
    667c:	b94000a4 	ldr	w4, [x5]
    6680:	3100049f 	cmn	w4, #0x1
    6684:	540004c0 	b.eq	671c <TEE_GetNextProperty+0xc8>  // b.none
/home/build/bsp/optee_os/lib/libutee/tee_api_property.c:611
    6688:	f94004a7 	ldr	x7, [x5, #8]
    668c:	9100c3e2 	add	x2, sp, #0x30
    6690:	9100a3e1 	add	x1, sp, #0x28
    6694:	aa0703e0 	mov	x0, x7
    6698:	97fffc33 	bl	5764 <propset_get>
    669c:	2a0003f3 	mov	w19, w0
/home/build/bsp/optee_os/lib/libutee/tee_api_property.c:612
    66a0:	350001e0 	cbnz	w0, 66dc <TEE_GetNextProperty+0x88>
/home/build/bsp/optee_os/lib/libutee/tee_api_property.c:617
    66a4:	f9401be0 	ldr	x0, [sp, #48]
/home/build/bsp/optee_os/lib/libutee/tee_api_property.c:615
    66a8:	11000481 	add	w1, w4, #0x1
/home/build/bsp/optee_os/lib/libutee/tee_api_property.c:616
    66ac:	b90000a1 	str	w1, [x5]
/home/build/bsp/optee_os/lib/libutee/tee_api_property.c:617
    66b0:	eb21401f 	cmp	x0, w1, uxtw
    66b4:	54000148 	b.hi	66dc <TEE_GetNextProperty+0x88>  // b.pmore
/home/build/bsp/optee_os/lib/libutee/tee_api_property.c:620
    66b8:	cb000021 	sub	x1, x1, x0
    66bc:	d2800006 	mov	x6, #0x0                   	// #0
    66c0:	aa0703e0 	mov	x0, x7
    66c4:	d2800005 	mov	x5, #0x0                   	// #0
    66c8:	d2800004 	mov	x4, #0x0                   	// #0
    66cc:	d2800003 	mov	x3, #0x0                   	// #0
    66d0:	d2800002 	mov	x2, #0x0                   	// #0
    66d4:	97ffee6d 	bl	2088 <_utee_get_property>
    66d8:	2a0003f3 	mov	w19, w0
/home/build/bsp/optee_os/lib/libutee/tee_api_property.c:625
    66dc:	7100027f 	cmp	w19, #0x0
    66e0:	129ffee0 	mov	w0, #0xffff0008            	// #-65528
    66e4:	7a401264 	ccmp	w19, w0, #0x4, ne  // ne = any
    66e8:	54000060 	b.eq	66f4 <TEE_GetNextProperty+0xa0>  // b.none
/home/build/bsp/optee_os/lib/libutee/tee_api_property.c:627
    66ec:	52800000 	mov	w0, #0x0                   	// #0
    66f0:	97fffba5 	bl	5584 <TEE_Panic>
/home/build/bsp/optee_os/lib/libutee/tee_api_property.c:629
    66f4:	90000061 	adrp	x1, 12000 <_DYNAMIC>
    66f8:	f9409821 	ldr	x1, [x1, #304]
    66fc:	f9401fe0 	ldr	x0, [sp, #56]
    6700:	f9400022 	ldr	x2, [x1]
    6704:	eb020000 	subs	x0, x0, x2
    6708:	d2800002 	mov	x2, #0x0                   	// #0
    670c:	540000c0 	b.eq	6724 <TEE_GetNextProperty+0xd0>  // b.none
    6710:	97ffe7e8 	bl	6b0 <__stack_chk_fail>
/home/build/bsp/optee_os/lib/libutee/tee_api_property.c:602
    6714:	129fff33 	mov	w19, #0xffff0006            	// #-65530
    6718:	17fffff1 	b	66dc <TEE_GetNextProperty+0x88>
/home/build/bsp/optee_os/lib/libutee/tee_api_property.c:607
    671c:	129ffef3 	mov	w19, #0xffff0008            	// #-65528
    6720:	17ffffef 	b	66dc <TEE_GetNextProperty+0x88>
/home/build/bsp/optee_os/lib/libutee/tee_api_property.c:629
    6724:	2a1303e0 	mov	w0, w19
    6728:	f9400bf3 	ldr	x19, [sp, #16]
    672c:	a8c47bfd 	ldp	x29, x30, [sp], #64
    6730:	d65f03c0 	ret

0000000000006734 <invoke_system_pta>:
invoke_system_pta():
/home/build/bsp/optee_os/lib/libutee/tee_system_pta.c:16
    6734:	a9bd7bfd 	stp	x29, x30, [sp, #-48]!
    6738:	910003fd 	mov	x29, sp
    673c:	a9025bf5 	stp	x21, x22, [sp, #32]
/home/build/bsp/optee_os/lib/libutee/tee_system_pta.c:20
    6740:	f0000076 	adrp	x22, 15000 <data.18+0x2970>
/home/build/bsp/optee_os/lib/libutee/tee_system_pta.c:16
    6744:	aa0203f5 	mov	x21, x2
    6748:	a90153f3 	stp	x19, x20, [sp, #16]
    674c:	2a0003f3 	mov	w19, w0
    6750:	2a0103f4 	mov	w20, w1
/home/build/bsp/optee_os/lib/libutee/tee_system_pta.c:20
    6754:	f9474ac0 	ldr	x0, [x22, #3728]
    6758:	b4000160 	cbz	x0, 6784 <invoke_system_pta+0x50>
/home/build/bsp/optee_os/lib/libutee/tee_system_pta.c:28
    675c:	f9474ac0 	ldr	x0, [x22, #3728]
    6760:	aa1503e4 	mov	x4, x21
    6764:	2a1403e3 	mov	w3, w20
    6768:	2a1303e2 	mov	w2, w19
/home/build/bsp/optee_os/lib/libutee/tee_system_pta.c:30
    676c:	a94153f3 	ldp	x19, x20, [sp, #16]
/home/build/bsp/optee_os/lib/libutee/tee_system_pta.c:28
    6770:	d2800005 	mov	x5, #0x0                   	// #0
/home/build/bsp/optee_os/lib/libutee/tee_system_pta.c:30
    6774:	a9425bf5 	ldp	x21, x22, [sp, #32]
/home/build/bsp/optee_os/lib/libutee/tee_system_pta.c:28
    6778:	12800001 	mov	w1, #0xffffffff            	// #-1
/home/build/bsp/optee_os/lib/libutee/tee_system_pta.c:30
    677c:	a8c37bfd 	ldp	x29, x30, [sp], #48
/home/build/bsp/optee_os/lib/libutee/tee_system_pta.c:28
    6780:	17fff156 	b	2cd8 <TEE_InvokeTACommand>
/home/build/bsp/optee_os/lib/libutee/tee_system_pta.c:21
    6784:	d0000040 	adrp	x0, 10000 <__func__.0+0x28>
    6788:	913a42c4 	add	x4, x22, #0xe90
    678c:	9102f000 	add	x0, x0, #0xbc
    6790:	d2800005 	mov	x5, #0x0                   	// #0
    6794:	d2800003 	mov	x3, #0x0                   	// #0
    6798:	52800002 	mov	w2, #0x0                   	// #0
    679c:	12800001 	mov	w1, #0xffffffff            	// #-1
    67a0:	97fff0a7 	bl	2a3c <TEE_OpenTASession>
/home/build/bsp/optee_os/lib/libutee/tee_system_pta.c:24
    67a4:	34fffdc0 	cbz	w0, 675c <invoke_system_pta+0x28>
/home/build/bsp/optee_os/lib/libutee/tee_system_pta.c:30
    67a8:	a94153f3 	ldp	x19, x20, [sp, #16]
    67ac:	a9425bf5 	ldp	x21, x22, [sp, #32]
    67b0:	a8c37bfd 	ldp	x29, x30, [sp], #48
    67b4:	d65f03c0 	ret

00000000000067b8 <tee_map_zi>:
tee_map_zi():
/home/build/bsp/optee_os/lib/libutee/tee_system_pta.c:33
    67b8:	a9ba7bfd 	stp	x29, x30, [sp, #-96]!
    67bc:	90000062 	adrp	x2, 12000 <_DYNAMIC>
/home/build/bsp/optee_os/lib/libutee/tee_system_pta.c:38
    67c0:	4f000400 	movi	v0.4s, #0x0
/home/build/bsp/optee_os/lib/libutee/tee_system_pta.c:33
    67c4:	910003fd 	mov	x29, sp
    67c8:	f9409842 	ldr	x2, [x2, #304]
    67cc:	f9400043 	ldr	x3, [x2]
    67d0:	f9002fe3 	str	x3, [sp, #88]
    67d4:	d2800003 	mov	x3, #0x0                   	// #0
/home/build/bsp/optee_os/lib/libutee/tee_system_pta.c:38
    67d8:	910063e2 	add	x2, sp, #0x18
    67dc:	ad000040 	stp	q0, q0, [x2]
/home/build/bsp/optee_os/lib/libutee/tee_system_pta.c:41
    67e0:	b9001be0 	str	w0, [sp, #24]
/home/build/bsp/optee_os/lib/libutee/tee_system_pta.c:38
    67e4:	ad010040 	stp	q0, q0, [x2, #32]
/home/build/bsp/optee_os/lib/libutee/tee_system_pta.c:42
    67e8:	f2607c1f 	tst	x0, #0xffffffff00000000
    67ec:	54000060 	b.eq	67f8 <tee_map_zi+0x40>  // b.none
/home/build/bsp/optee_os/lib/libutee/tee_system_pta.c:44
    67f0:	d2800000 	mov	x0, #0x0                   	// #0
    67f4:	1400000c 	b	6824 <tee_map_zi+0x6c>
    67f8:	340000a1 	cbz	w1, 680c <tee_map_zi+0x54>
    67fc:	7100103f 	cmp	w1, #0x4
    6800:	54ffff81 	b.ne	67f0 <tee_map_zi+0x38>  // b.any
/home/build/bsp/optee_os/lib/libutee/tee_system_pta.c:48
    6804:	52800020 	mov	w0, #0x1                   	// #1
    6808:	b9001fe0 	str	w0, [sp, #28]
/home/build/bsp/optee_os/lib/libutee/tee_system_pta.c:54
    680c:	52802621 	mov	w1, #0x131                 	// #305
    6810:	52800040 	mov	w0, #0x2                   	// #2
    6814:	97ffffc8 	bl	6734 <invoke_system_pta>
/home/build/bsp/optee_os/lib/libutee/tee_system_pta.c:55
    6818:	35fffec0 	cbnz	w0, 67f0 <tee_map_zi+0x38>
reg_pair_to_64():
/home/build/bsp/optee_os/lib/libutils/ext/include/util.h:166
    681c:	294507e0 	ldp	w0, w1, [sp, #40]
    6820:	aa008020 	orr	x0, x1, x0, lsl #32
tee_map_zi():
/home/build/bsp/optee_os/lib/libutee/tee_system_pta.c:60
    6824:	90000062 	adrp	x2, 12000 <_DYNAMIC>
    6828:	f9409842 	ldr	x2, [x2, #304]
    682c:	f9402fe1 	ldr	x1, [sp, #88]
    6830:	f9400043 	ldr	x3, [x2]
    6834:	eb030021 	subs	x1, x1, x3
    6838:	d2800003 	mov	x3, #0x0                   	// #0
    683c:	54000040 	b.eq	6844 <tee_map_zi+0x8c>  // b.none
    6840:	97ffe79c 	bl	6b0 <__stack_chk_fail>
    6844:	a8c67bfd 	ldp	x29, x30, [sp], #96
    6848:	d65f03c0 	ret

000000000000684c <tee_unmap>:
tee_unmap():
/home/build/bsp/optee_os/lib/libutee/tee_system_pta.c:63
    684c:	a9b87bfd 	stp	x29, x30, [sp, #-128]!
    6850:	90000062 	adrp	x2, 12000 <_DYNAMIC>
/home/build/bsp/optee_os/lib/libutee/tee_system_pta.c:69
    6854:	4f000400 	movi	v0.4s, #0x0
/home/build/bsp/optee_os/lib/libutee/tee_system_pta.c:63
    6858:	910003fd 	mov	x29, sp
    685c:	f9409842 	ldr	x2, [x2, #304]
    6860:	a90153f3 	stp	x19, x20, [sp, #16]
    6864:	aa0003f3 	mov	x19, x0
    6868:	f90013f5 	str	x21, [sp, #32]
    686c:	aa0103f5 	mov	x21, x1
    6870:	f9400040 	ldr	x0, [x2]
    6874:	f9003fe0 	str	x0, [sp, #120]
    6878:	d2800000 	mov	x0, #0x0                   	// #0
/home/build/bsp/optee_os/lib/libutee/tee_system_pta.c:69
    687c:	9100e3e2 	add	x2, sp, #0x38
high32_from_64():
/home/build/bsp/optee_os/lib/libutils/ext/include/util.h:171
    6880:	d360fe60 	lsr	x0, x19, #32
tee_unmap():
/home/build/bsp/optee_os/lib/libutee/tee_system_pta.c:69
    6884:	ad000040 	stp	q0, q0, [x2]
    6888:	ad010040 	stp	q0, q0, [x2, #32]
/home/build/bsp/optee_os/lib/libutee/tee_system_pta.c:71
    688c:	b9003be1 	str	w1, [sp, #56]
/home/build/bsp/optee_os/lib/libutee/tee_system_pta.c:74
    6890:	52800221 	mov	w1, #0x11                  	// #17
low32_from_64():
/home/build/bsp/optee_os/lib/libutils/ext/include/util.h:176
    6894:	29094fe0 	stp	w0, w19, [sp, #72]
tee_unmap():
/home/build/bsp/optee_os/lib/libutee/tee_system_pta.c:74
    6898:	52800060 	mov	w0, #0x3                   	// #3
    689c:	97ffffa6 	bl	6734 <invoke_system_pta>
    68a0:	2a0003f4 	mov	w20, w0
/home/build/bsp/optee_os/lib/libutee/tee_system_pta.c:75
    68a4:	34000180 	cbz	w0, 68d4 <tee_unmap+0x88>
/home/build/bsp/optee_os/lib/libutee/tee_system_pta.c:76
    68a8:	d0000040 	adrp	x0, 10000 <__func__.0+0x28>
    68ac:	9102f000 	add	x0, x0, #0xbc
    68b0:	d0000044 	adrp	x4, 10000 <__func__.0+0x28>
    68b4:	aa1503e6 	mov	x6, x21
    68b8:	aa1303e5 	mov	x5, x19
    68bc:	91290c84 	add	x4, x4, #0xa43
    68c0:	91004000 	add	x0, x0, #0x10
    68c4:	52800023 	mov	w3, #0x1                   	// #1
    68c8:	52800022 	mov	w2, #0x1                   	// #1
    68cc:	52800981 	mov	w1, #0x4c                  	// #76
    68d0:	97ffe73e 	bl	5c8 <trace_printf>
/home/build/bsp/optee_os/lib/libutee/tee_system_pta.c:79
    68d4:	90000062 	adrp	x2, 12000 <_DYNAMIC>
    68d8:	f9409842 	ldr	x2, [x2, #304]
    68dc:	f9403fe0 	ldr	x0, [sp, #120]
    68e0:	f9400041 	ldr	x1, [x2]
    68e4:	eb010000 	subs	x0, x0, x1
    68e8:	d2800001 	mov	x1, #0x0                   	// #0
    68ec:	54000040 	b.eq	68f4 <tee_unmap+0xa8>  // b.none
    68f0:	97ffe770 	bl	6b0 <__stack_chk_fail>
    68f4:	2a1403e0 	mov	w0, w20
    68f8:	a94153f3 	ldp	x19, x20, [sp, #16]
    68fc:	f94013f5 	ldr	x21, [sp, #32]
    6900:	a8c87bfd 	ldp	x29, x30, [sp], #128
    6904:	d65f03c0 	ret

0000000000006908 <tee_invoke_supp_plugin>:
tee_invoke_supp_plugin():
/home/build/bsp/optee_os/lib/libutee/tee_system_pta.c:84
    6908:	a9b97bfd 	stp	x29, x30, [sp, #-112]!
    690c:	90000066 	adrp	x6, 12000 <_DYNAMIC>
    6910:	2a0203e7 	mov	w7, w2
/home/build/bsp/optee_os/lib/libutee/tee_system_pta.c:90
    6914:	4f000400 	movi	v0.4s, #0x0
/home/build/bsp/optee_os/lib/libutee/tee_system_pta.c:84
    6918:	910003fd 	mov	x29, sp
    691c:	f94098c6 	ldr	x6, [x6, #304]
    6920:	a90153f3 	stp	x19, x20, [sp, #16]
    6924:	f94000c2 	ldr	x2, [x6]
    6928:	f90037e2 	str	x2, [sp, #104]
    692c:	d2800002 	mov	x2, #0x0                   	// #0
/home/build/bsp/optee_os/lib/libutee/tee_system_pta.c:90
    6930:	9100a3e2 	add	x2, sp, #0x28
    6934:	ad000040 	stp	q0, q0, [x2]
    6938:	ad010040 	stp	q0, q0, [x2, #32]
/home/build/bsp/optee_os/lib/libutee/tee_system_pta.c:92
    693c:	b40004e0 	cbz	x0, 69d8 <tee_invoke_supp_plugin+0xd0>
/home/build/bsp/optee_os/lib/libutee/tee_system_pta.c:92 (discriminator 1)
    6940:	f100009f 	cmp	x4, #0x0
    6944:	fa401860 	ccmp	x3, #0x0, #0x0, ne  // ne = any
    6948:	54000480 	b.eq	69d8 <tee_invoke_supp_plugin+0xd0>  // b.none
/home/build/bsp/optee_os/lib/libutee/tee_system_pta.c:92 (discriminator 2)
    694c:	f100009f 	cmp	x4, #0x0
    6950:	fa400864 	ccmp	x3, #0x0, #0x4, eq  // eq = none
    6954:	54000421 	b.ne	69d8 <tee_invoke_supp_plugin+0xd0>  // b.any
/home/build/bsp/optee_os/lib/libutee/tee_system_pta.c:95
    6958:	f90017e0 	str	x0, [sp, #40]
/home/build/bsp/optee_os/lib/libutee/tee_system_pta.c:96
    695c:	d2800200 	mov	x0, #0x10                  	// #16
    6960:	aa0503f4 	mov	x20, x5
    6964:	f9001be0 	str	x0, [sp, #48]
/home/build/bsp/optee_os/lib/libutee/tee_system_pta.c:102
    6968:	528001a0 	mov	w0, #0xd                   	// #13
/home/build/bsp/optee_os/lib/libutee/tee_system_pta.c:98
    696c:	29071fe1 	stp	w1, w7, [sp, #56]
/home/build/bsp/optee_os/lib/libutee/tee_system_pta.c:102
    6970:	5284e2a1 	mov	w1, #0x2715                	// #10005
/home/build/bsp/optee_os/lib/libutee/tee_system_pta.c:100
    6974:	a90493e3 	stp	x3, x4, [sp, #72]
/home/build/bsp/optee_os/lib/libutee/tee_system_pta.c:102
    6978:	97ffff6f 	bl	6734 <invoke_system_pta>
    697c:	2a0003f3 	mov	w19, w0
/home/build/bsp/optee_os/lib/libutee/tee_system_pta.c:104
    6980:	34000160 	cbz	w0, 69ac <tee_invoke_supp_plugin+0xa4>
/home/build/bsp/optee_os/lib/libutee/tee_system_pta.c:105
    6984:	2a0003e5 	mov	w5, w0
    6988:	d0000040 	adrp	x0, 10000 <__func__.0+0x28>
    698c:	9102f000 	add	x0, x0, #0xbc
    6990:	d0000044 	adrp	x4, 10000 <__func__.0+0x28>
    6994:	91006800 	add	x0, x0, #0x1a
    6998:	9129b484 	add	x4, x4, #0xa6d
    699c:	52800023 	mov	w3, #0x1                   	// #1
    69a0:	52800022 	mov	w2, #0x1                   	// #1
    69a4:	52800d21 	mov	w1, #0x69                  	// #105
    69a8:	97ffe708 	bl	5c8 <trace_printf>
/home/build/bsp/optee_os/lib/libutee/tee_system_pta.c:107
    69ac:	b4000074 	cbz	x20, 69b8 <tee_invoke_supp_plugin+0xb0>
/home/build/bsp/optee_os/lib/libutee/tee_system_pta.c:108
    69b0:	b9405be0 	ldr	w0, [sp, #88]
    69b4:	f9000280 	str	x0, [x20]
/home/build/bsp/optee_os/lib/libutee/tee_system_pta.c:111
    69b8:	90000066 	adrp	x6, 12000 <_DYNAMIC>
    69bc:	f94098c6 	ldr	x6, [x6, #304]
    69c0:	f94037e0 	ldr	x0, [sp, #104]
    69c4:	f94000c1 	ldr	x1, [x6]
    69c8:	eb010000 	subs	x0, x0, x1
    69cc:	d2800001 	mov	x1, #0x0                   	// #0
    69d0:	54000080 	b.eq	69e0 <tee_invoke_supp_plugin+0xd8>  // b.none
    69d4:	97ffe737 	bl	6b0 <__stack_chk_fail>
/home/build/bsp/optee_os/lib/libutee/tee_system_pta.c:93
    69d8:	129fff33 	mov	w19, #0xffff0006            	// #-65530
    69dc:	17fffff7 	b	69b8 <tee_invoke_supp_plugin+0xb0>
/home/build/bsp/optee_os/lib/libutee/tee_system_pta.c:111
    69e0:	2a1303e0 	mov	w0, w19
    69e4:	a94153f3 	ldp	x19, x20, [sp, #16]
    69e8:	a8c77bfd 	ldp	x29, x30, [sp], #112
    69ec:	d65f03c0 	ret

00000000000069f0 <__utee_tcb_init>:
__utee_tcb_init():
/home/build/bsp/optee_os/lib/libutee/tcb.c:87
    69f0:	a9b87bfd 	stp	x29, x30, [sp, #-128]!
/home/build/bsp/optee_os/lib/libutee/tcb.c:96
    69f4:	90000061 	adrp	x1, 12000 <_DYNAMIC>
    69f8:	d2800003 	mov	x3, #0x0                   	// #0
/home/build/bsp/optee_os/lib/libutee/tcb.c:87
    69fc:	910003fd 	mov	x29, sp
/home/build/bsp/optee_os/lib/libutee/tcb.c:96
    6a00:	f940e420 	ldr	x0, [x1, #456]
/home/build/bsp/optee_os/lib/libutee/tcb.c:87
    6a04:	a90363f7 	stp	x23, x24, [sp, #48]
    6a08:	aa0103f7 	mov	x23, x1
/home/build/bsp/optee_os/lib/libutee/tcb.c:99
    6a0c:	d2800706 	mov	x6, #0x38                  	// #56
/home/build/bsp/optee_os/lib/libutee/tcb.c:87
    6a10:	a90153f3 	stp	x19, x20, [sp, #16]
/home/build/bsp/optee_os/lib/libutee/tcb.c:96
    6a14:	79400805 	ldrh	w5, [x0, #4]
    6a18:	f9400400 	ldr	x0, [x0, #8]
/home/build/bsp/optee_os/lib/libutee/tcb.c:87
    6a1c:	a9025bf5 	stp	x21, x22, [sp, #32]
    6a20:	91004000 	add	x0, x0, #0x10
    6a24:	a9046bf9 	stp	x25, x26, [sp, #64]
/home/build/bsp/optee_os/lib/libutee/tcb.c:90
    6a28:	d2800019 	mov	x25, #0x0                   	// #0
/home/build/bsp/optee_os/lib/libutee/tcb.c:87
    6a2c:	a90573fb 	stp	x27, x28, [sp, #80]
/home/build/bsp/optee_os/lib/libutee/tcb.c:96 (discriminator 1)
    6a30:	eb0300bf 	cmp	x5, x3
    6a34:	540001e8 	b.hi	6a70 <__utee_tcb_init+0x80>  // b.pmore
/home/build/bsp/optee_os/lib/libutee/tcb.c:108
    6a38:	f0000076 	adrp	x22, 15000 <data.18+0x2970>
    6a3c:	913a62d5 	add	x21, x22, #0xe98
    6a40:	f9474ed8 	ldr	x24, [x22, #3736]
    6a44:	eb19031f 	cmp	x24, x25
    6a48:	54000369 	b.ls	6ab4 <__utee_tcb_init+0xc4>  // b.plast
_assert_trap():
/home/build/bsp/optee_os/lib/libutils/isoc/include/assert.h:19
    6a4c:	d0000043 	adrp	x3, 10000 <__func__.0+0x28>
    6a50:	d0000041 	adrp	x1, 10000 <__func__.0+0x28>
    6a54:	912c9463 	add	x3, x3, #0xb25
    6a58:	912a6021 	add	x1, x1, #0xa98
    6a5c:	d0000040 	adrp	x0, 10000 <__func__.0+0x28>
    6a60:	912aa800 	add	x0, x0, #0xaaa
    6a64:	52800d82 	mov	w2, #0x6c                  	// #108
    6a68:	940000b5 	bl	6d3c <_assert_log>
/home/build/bsp/optee_os/lib/libutils/isoc/include/assert.h:20
    6a6c:	940000c5 	bl	6d80 <_assert_break>
__utee_tcb_init():
/home/build/bsp/optee_os/lib/libutee/tcb.c:98
    6a70:	79401007 	ldrh	w7, [x0, #8]
    6a74:	d2800001 	mov	x1, #0x0                   	// #0
/home/build/bsp/optee_os/lib/libutee/tcb.c:98 (discriminator 1)
    6a78:	eb0100ff 	cmp	x7, x1
    6a7c:	54000129 	b.ls	6aa0 <__utee_tcb_init+0xb0>  // b.plast
/home/build/bsp/optee_os/lib/libutee/tcb.c:99
    6a80:	9b067c22 	mul	x2, x1, x6
    6a84:	f9400004 	ldr	x4, [x0]
    6a88:	8b020088 	add	x8, x4, x2
/home/build/bsp/optee_os/lib/libutee/tcb.c:100
    6a8c:	b8626882 	ldr	w2, [x4, x2]
    6a90:	71001c5f 	cmp	w2, #0x7
    6a94:	540000c1 	b.ne	6aac <__utee_tcb_init+0xbc>  // b.any
/home/build/bsp/optee_os/lib/libutee/tcb.c:101
    6a98:	f9401501 	ldr	x1, [x8, #40]
    6a9c:	8b010339 	add	x25, x25, x1
/home/build/bsp/optee_os/lib/libutee/tcb.c:96 (discriminator 2)
    6aa0:	91000463 	add	x3, x3, #0x1
    6aa4:	91010000 	add	x0, x0, #0x40
    6aa8:	17ffffe2 	b	6a30 <__utee_tcb_init+0x40>
/home/build/bsp/optee_os/lib/libutee/tcb.c:98 (discriminator 2)
    6aac:	91000421 	add	x1, x1, #0x1
    6ab0:	17fffff2 	b	6a78 <__utee_tcb_init+0x88>
/home/build/bsp/optee_os/lib/libutee/tcb.c:110
    6ab4:	54000b00 	b.eq	6c14 <__utee_tcb_init+0x224>  // b.none
/home/build/bsp/optee_os/lib/libutee/tcb.c:114
    6ab8:	f94006a0 	ldr	x0, [x21, #8]
    6abc:	91004334 	add	x20, x25, #0x10
    6ac0:	aa1403e1 	mov	x1, x20
    6ac4:	940017b8 	bl	c9a4 <realloc>
    6ac8:	f90006a0 	str	x0, [x21, #8]
    6acc:	aa0003f3 	mov	x19, x0
/home/build/bsp/optee_os/lib/libutee/tcb.c:115
    6ad0:	b5000160 	cbnz	x0, 6afc <__utee_tcb_init+0x10c>
/home/build/bsp/optee_os/lib/libutee/tcb.c:116
    6ad4:	d0000044 	adrp	x4, 10000 <__func__.0+0x28>
    6ad8:	aa1403e5 	mov	x5, x20
    6adc:	912b0884 	add	x4, x4, #0xac2
    6ae0:	52800023 	mov	w3, #0x1                   	// #1
    6ae4:	52800022 	mov	w2, #0x1                   	// #1
    6ae8:	52800e81 	mov	w1, #0x74                  	// #116
/home/build/bsp/optee_os/lib/libutee/tcb.c:124
    6aec:	d0000040 	adrp	x0, 10000 <__func__.0+0x28>
    6af0:	912c9400 	add	x0, x0, #0xb25
    6af4:	97ffe6b5 	bl	5c8 <trace_printf>
/home/build/bsp/optee_os/lib/libutee/tcb.c:125
    6af8:	97ffee03 	bl	2304 <abort>
/home/build/bsp/optee_os/lib/libutee/tcb.c:121
    6afc:	f940e6e0 	ldr	x0, [x23, #456]
    6b00:	79400814 	ldrh	w20, [x0, #4]
/home/build/bsp/optee_os/lib/libutee/tcb.c:122
    6b04:	f9400260 	ldr	x0, [x19]
/home/build/bsp/optee_os/lib/libutee/tcb.c:121
    6b08:	91000a94 	add	x20, x20, #0x2
    6b0c:	d37df294 	lsl	x20, x20, #3
/home/build/bsp/optee_os/lib/libutee/tcb.c:122
    6b10:	aa1403e1 	mov	x1, x20
    6b14:	940017a4 	bl	c9a4 <realloc>
    6b18:	f9000260 	str	x0, [x19]
/home/build/bsp/optee_os/lib/libutee/tcb.c:123
    6b1c:	b5000640 	cbnz	x0, 6be4 <__utee_tcb_init+0x1f4>
/home/build/bsp/optee_os/lib/libutee/tcb.c:124
    6b20:	d0000044 	adrp	x4, 10000 <__func__.0+0x28>
    6b24:	aa1403e5 	mov	x5, x20
    6b28:	912b9084 	add	x4, x4, #0xae4
    6b2c:	52800023 	mov	w3, #0x1                   	// #1
    6b30:	52800022 	mov	w2, #0x1                   	// #1
    6b34:	52800f81 	mov	w1, #0x7c                  	// #124
    6b38:	17ffffed 	b	6aec <__utee_tcb_init+0xfc>
/home/build/bsp/optee_os/lib/libutee/tcb.c:131
    6b3c:	f940043c 	ldr	x28, [x1, #8]
    6b40:	91000414 	add	x20, x0, #0x1
/home/build/bsp/optee_os/lib/libutee/tcb.c:132
    6b44:	d2800003 	mov	x3, #0x0                   	// #0
/home/build/bsp/optee_os/lib/libutee/tcb.c:140
    6b48:	d37df285 	lsl	x5, x20, #3
/home/build/bsp/optee_os/lib/libutee/tcb.c:131
    6b4c:	8b001b9c 	add	x28, x28, x0, lsl #6
/home/build/bsp/optee_os/lib/libutee/tcb.c:132 (discriminator 1)
    6b50:	79403380 	ldrh	w0, [x28, #24]
    6b54:	eb03001f 	cmp	x0, x3
    6b58:	54000068 	b.hi	6b64 <__utee_tcb_init+0x174>  // b.pmore
    6b5c:	aa1403e0 	mov	x0, x20
    6b60:	14000025 	b	6bf4 <__utee_tcb_init+0x204>
/home/build/bsp/optee_os/lib/libutee/tcb.c:133
    6b64:	9b047c60 	mul	x0, x3, x4
    6b68:	f9400b81 	ldr	x1, [x28, #16]
    6b6c:	8b000035 	add	x21, x1, x0
/home/build/bsp/optee_os/lib/libutee/tcb.c:134
    6b70:	b8606820 	ldr	w0, [x1, x0]
    6b74:	71001c1f 	cmp	w0, #0x7
    6b78:	54000321 	b.ne	6bdc <__utee_tcb_init+0x1ec>  // b.any
/home/build/bsp/optee_os/lib/libutee/tcb.c:136
    6b7c:	f94016a0 	ldr	x0, [x21, #40]
    6b80:	f9003fe3 	str	x3, [sp, #120]
    6b84:	8b000340 	add	x0, x26, x0
    6b88:	eb00031f 	cmp	x24, x0
    6b8c:	54fffe82 	b.cs	6b5c <__utee_tcb_init+0x16c>  // b.hs, b.nlast
/home/build/bsp/optee_os/lib/libutee/tcb.c:140
    6b90:	f9400261 	ldr	x1, [x19]
    6b94:	8b1a0360 	add	x0, x27, x26
/home/build/bsp/optee_os/lib/libutee/tcb.c:143
    6b98:	f9400386 	ldr	x6, [x28]
    6b9c:	a90693e5 	stp	x5, x4, [sp, #104]
/home/build/bsp/optee_os/lib/libutee/tcb.c:142
    6ba0:	f94012a2 	ldr	x2, [x21, #32]
/home/build/bsp/optee_os/lib/libutee/tcb.c:140
    6ba4:	f8256820 	str	x0, [x1, x5]
/home/build/bsp/optee_os/lib/libutee/tcb.c:143
    6ba8:	f9400aa1 	ldr	x1, [x21, #16]
/home/build/bsp/optee_os/lib/libutee/tcb.c:142
    6bac:	8b0100c1 	add	x1, x6, x1
    6bb0:	97ffe514 	bl	0 <memcpy>
/home/build/bsp/optee_os/lib/libutee/tcb.c:146
    6bb4:	a9420aa1 	ldp	x1, x2, [x21, #32]
    6bb8:	8b1a0020 	add	x0, x1, x26
    6bbc:	cb010042 	sub	x2, x2, x1
    6bc0:	8b000360 	add	x0, x27, x0
    6bc4:	52800001 	mov	w1, #0x0                   	// #0
    6bc8:	940018c8 	bl	cee8 <memset>
/home/build/bsp/optee_os/lib/libutee/tcb.c:148
    6bcc:	f94016a0 	ldr	x0, [x21, #40]
    6bd0:	a94693e5 	ldp	x5, x4, [sp, #104]
    6bd4:	8b00035a 	add	x26, x26, x0
    6bd8:	f9403fe3 	ldr	x3, [sp, #120]
/home/build/bsp/optee_os/lib/libutee/tcb.c:132 (discriminator 2)
    6bdc:	91000463 	add	x3, x3, #0x1
    6be0:	17ffffdc 	b	6b50 <__utee_tcb_init+0x160>
/home/build/bsp/optee_os/lib/libutee/tcb.c:140
    6be4:	9100427b 	add	x27, x19, #0x10
    6be8:	d2800000 	mov	x0, #0x0                   	// #0
/home/build/bsp/optee_os/lib/libutee/tcb.c:129
    6bec:	d280001a 	mov	x26, #0x0                   	// #0
/home/build/bsp/optee_os/lib/libutee/tcb.c:133
    6bf0:	d2800704 	mov	x4, #0x38                  	// #56
/home/build/bsp/optee_os/lib/libutee/tcb.c:130 (discriminator 1)
    6bf4:	f940e6e1 	ldr	x1, [x23, #456]
    6bf8:	79400822 	ldrh	w2, [x1, #4]
    6bfc:	eb02001f 	cmp	x0, x2
    6c00:	54fff9e3 	b.cc	6b3c <__utee_tcb_init+0x14c>  // b.lo, b.ul, b.last
/home/build/bsp/optee_os/lib/libutee/tcb.c:151
    6c04:	f9400261 	ldr	x1, [x19]
/home/build/bsp/optee_os/lib/libutee/tcb.c:153
    6c08:	f9074ed9 	str	x25, [x22, #3736]
/home/build/bsp/optee_os/lib/libutee/tcb.c:151
    6c0c:	f9000020 	str	x0, [x1]
write_tpidr_el0():
/home/build/bsp/optee_os/lib/libutee/include/arm64_user_sysreg.h:37
    6c10:	d51bd053 	msr	tpidr_el0, x19
__utee_tcb_init():
/home/build/bsp/optee_os/lib/libutee/tcb.c:161
    6c14:	a94153f3 	ldp	x19, x20, [sp, #16]
    6c18:	a9425bf5 	ldp	x21, x22, [sp, #32]
    6c1c:	a94363f7 	ldp	x23, x24, [sp, #48]
    6c20:	a9446bf9 	ldp	x25, x26, [sp, #64]
    6c24:	a94573fb 	ldp	x27, x28, [sp, #80]
    6c28:	a8c87bfd 	ldp	x29, x30, [sp], #128
    6c2c:	d65f03c0 	ret

0000000000006c30 <__tls_get_addr>:
__tls_get_addr():
/home/build/bsp/optee_os/lib/libutee/tcb.c:172
    6c30:	f0000061 	adrp	x1, 15000 <data.18+0x2970>
    6c34:	a9400002 	ldp	x2, x0, [x0]
    6c38:	f9475021 	ldr	x1, [x1, #3744]
    6c3c:	f9400021 	ldr	x1, [x1]
    6c40:	f8627821 	ldr	x1, [x1, x2, lsl #3]
/home/build/bsp/optee_os/lib/libutee/tcb.c:173
    6c44:	8b000020 	add	x0, x1, x0
    6c48:	d65f03c0 	ret

0000000000006c4c <dl_iterate_phdr>:
dl_iterate_phdr():
/home/build/bsp/optee_os/lib/libutee/tcb.c:177
    6c4c:	a9bb7bfd 	stp	x29, x30, [sp, #-80]!
    6c50:	910003fd 	mov	x29, sp
    6c54:	a90153f3 	stp	x19, x20, [sp, #16]
    6c58:	a9025bf5 	stp	x21, x22, [sp, #32]
    6c5c:	a90363f7 	stp	x23, x24, [sp, #48]
    6c60:	aa0003f7 	mov	x23, x0
    6c64:	aa0103f8 	mov	x24, x1
/home/build/bsp/optee_os/lib/libutee/tcb.c:190
    6c68:	d2800020 	mov	x0, #0x1                   	// #1
    6c6c:	d2800801 	mov	x1, #0x40                  	// #64
/home/build/bsp/optee_os/lib/libutee/tcb.c:177
    6c70:	f90023f9 	str	x25, [sp, #64]
/home/build/bsp/optee_os/lib/libutee/tcb.c:190
    6c74:	94001745 	bl	c988 <calloc>
/home/build/bsp/optee_os/lib/libutee/tcb.c:191
    6c78:	b5000520 	cbnz	x0, 6d1c <dl_iterate_phdr+0xd0>
/home/build/bsp/optee_os/lib/libutee/tcb.c:192
    6c7c:	d0000040 	adrp	x0, 10000 <__func__.0+0x28>
    6c80:	912c9400 	add	x0, x0, #0xb25
    6c84:	91004000 	add	x0, x0, #0x10
    6c88:	d0000044 	adrp	x4, 10000 <__func__.0+0x28>
    6c8c:	912c1884 	add	x4, x4, #0xb06
    6c90:	52800023 	mov	w3, #0x1                   	// #1
    6c94:	52800022 	mov	w2, #0x1                   	// #1
    6c98:	52801801 	mov	w1, #0xc0                  	// #192
    6c9c:	97ffe64b 	bl	5c8 <trace_printf>
/home/build/bsp/optee_os/lib/libutee/tcb.c:193
    6ca0:	97ffed99 	bl	2304 <abort>
/home/build/bsp/optee_os/lib/libutee/tcb.c:197
    6ca4:	f94006c1 	ldr	x1, [x22, #8]
    6ca8:	aa1303e0 	mov	x0, x19
    6cac:	d2800802 	mov	x2, #0x40                  	// #64
    6cb0:	8b151821 	add	x1, x1, x21, lsl #6
    6cb4:	97ffe4d3 	bl	0 <memcpy>
/home/build/bsp/optee_os/lib/libutee/tcb.c:199
    6cb8:	f9401a60 	ldr	x0, [x19, #48]
/home/build/bsp/optee_os/lib/libutee/tcb.c:198
    6cbc:	f9001e7f 	str	xzr, [x19, #56]
/home/build/bsp/optee_os/lib/libutee/tcb.c:200
    6cc0:	b40000a0 	cbz	x0, 6cd4 <dl_iterate_phdr+0x88>
/home/build/bsp/optee_os/lib/libutee/tcb.c:201
    6cc4:	f9400721 	ldr	x1, [x25, #8]
    6cc8:	f9400021 	ldr	x1, [x1]
    6ccc:	f8607820 	ldr	x0, [x1, x0, lsl #3]
    6cd0:	f9001e60 	str	x0, [x19, #56]
/home/build/bsp/optee_os/lib/libutee/tcb.c:202 (discriminator 2)
    6cd4:	aa1803e2 	mov	x2, x24
    6cd8:	aa1303e0 	mov	x0, x19
    6cdc:	d2800801 	mov	x1, #0x40                  	// #64
/home/build/bsp/optee_os/lib/libutee/tcb.c:196 (discriminator 2)
    6ce0:	910006b5 	add	x21, x21, #0x1
/home/build/bsp/optee_os/lib/libutee/tcb.c:202 (discriminator 2)
    6ce4:	d63f02e0 	blr	x23
    6ce8:	2a0003f4 	mov	w20, w0
/home/build/bsp/optee_os/lib/libutee/tcb.c:196 (discriminator 1)
    6cec:	79400ac0 	ldrh	w0, [x22, #4]
    6cf0:	eb15001f 	cmp	x0, x21
    6cf4:	54fffd88 	b.hi	6ca4 <dl_iterate_phdr+0x58>  // b.pmore
/home/build/bsp/optee_os/lib/libutee/tcb.c:205
    6cf8:	aa1303e0 	mov	x0, x19
    6cfc:	9400173d 	bl	c9f0 <free>
/home/build/bsp/optee_os/lib/libutee/tcb.c:207
    6d00:	2a1403e0 	mov	w0, w20
    6d04:	a94153f3 	ldp	x19, x20, [sp, #16]
    6d08:	a9425bf5 	ldp	x21, x22, [sp, #32]
    6d0c:	a94363f7 	ldp	x23, x24, [sp, #48]
    6d10:	f94023f9 	ldr	x25, [sp, #64]
    6d14:	a8c57bfd 	ldp	x29, x30, [sp], #80
    6d18:	d65f03c0 	ret
/home/build/bsp/optee_os/lib/libutee/tcb.c:196
    6d1c:	90000076 	adrp	x22, 12000 <_DYNAMIC>
/home/build/bsp/optee_os/lib/libutee/tcb.c:201
    6d20:	f0000079 	adrp	x25, 15000 <data.18+0x2970>
    6d24:	aa0003f3 	mov	x19, x0
    6d28:	913a6339 	add	x25, x25, #0xe98
/home/build/bsp/optee_os/lib/libutee/tcb.c:196
    6d2c:	f940e6d6 	ldr	x22, [x22, #456]
/home/build/bsp/optee_os/lib/libutee/tcb.c:181
    6d30:	52800014 	mov	w20, #0x0                   	// #0
/home/build/bsp/optee_os/lib/libutee/tcb.c:196
    6d34:	d2800015 	mov	x21, #0x0                   	// #0
    6d38:	17ffffed 	b	6cec <dl_iterate_phdr+0xa0>

0000000000006d3c <_assert_log>:
_assert_log():
/home/build/bsp/optee_os/lib/libutee/assert.c:17
    6d3c:	d10083ff 	sub	sp, sp, #0x20
/home/build/bsp/optee_os/lib/libutee/assert.c:18
    6d40:	2a0203e7 	mov	w7, w2
    6d44:	aa0103e6 	mov	x6, x1
    6d48:	aa0003e5 	mov	x5, x0
    6d4c:	52800022 	mov	w2, #0x1                   	// #1
    6d50:	52800001 	mov	w1, #0x0                   	// #0
/home/build/bsp/optee_os/lib/libutee/assert.c:17
    6d54:	a9017bfd 	stp	x29, x30, [sp, #16]
    6d58:	910043fd 	add	x29, sp, #0x10
/home/build/bsp/optee_os/lib/libutee/assert.c:18
    6d5c:	d2800000 	mov	x0, #0x0                   	// #0
    6d60:	d0000044 	adrp	x4, 10000 <__func__.0+0x28>
    6d64:	f90003e3 	str	x3, [sp]
    6d68:	912d1484 	add	x4, x4, #0xb45
    6d6c:	52800023 	mov	w3, #0x1                   	// #1
    6d70:	97ffe616 	bl	5c8 <trace_printf>
/home/build/bsp/optee_os/lib/libutee/assert.c:20
    6d74:	a9417bfd 	ldp	x29, x30, [sp, #16]
    6d78:	910083ff 	add	sp, sp, #0x20
    6d7c:	d65f03c0 	ret

0000000000006d80 <_assert_break>:
_assert_break():
/home/build/bsp/optee_os/lib/libutee/assert.c:23
    6d80:	a9bf7bfd 	stp	x29, x30, [sp, #-16]!
/home/build/bsp/optee_os/lib/libutee/assert.c:24
    6d84:	d2bfffe0 	mov	x0, #0xffff0000            	// #4294901760
/home/build/bsp/optee_os/lib/libutee/assert.c:23
    6d88:	910003fd 	mov	x29, sp
/home/build/bsp/optee_os/lib/libutee/assert.c:24
    6d8c:	97ffecb3 	bl	2058 <_utee_panic>
/home/build/bsp/optee_os/lib/libutee/assert.c:26 (discriminator 1)
    6d90:	14000000 	b	6d90 <_assert_break+0x10>

0000000000006d94 <_base64_enc_len>:
_base64_enc_len():
/home/build/bsp/optee_os/lib/libutee/base64.c:13
    6d94:	91000800 	add	x0, x0, #0x2
    6d98:	d2800061 	mov	x1, #0x3                   	// #3
    6d9c:	9ac10800 	udiv	x0, x0, x1
    6da0:	d37ef400 	lsl	x0, x0, #2
/home/build/bsp/optee_os/lib/libutee/base64.c:14
    6da4:	91000400 	add	x0, x0, #0x1
    6da8:	d65f03c0 	ret

0000000000006dac <_base64_enc>:
_base64_enc():
/home/build/bsp/optee_os/lib/libutee/base64.c:17
    6dac:	a9bd7bfd 	stp	x29, x30, [sp, #-48]!
    6db0:	910003fd 	mov	x29, sp
    6db4:	a9025bf5 	stp	x21, x22, [sp, #32]
    6db8:	aa0303f6 	mov	x22, x3
    6dbc:	aa0003f5 	mov	x21, x0
/home/build/bsp/optee_os/lib/libutee/base64.c:22
    6dc0:	aa0103e0 	mov	x0, x1
/home/build/bsp/optee_os/lib/libutee/base64.c:17
    6dc4:	a90153f3 	stp	x19, x20, [sp, #16]
    6dc8:	aa0103f3 	mov	x19, x1
    6dcc:	aa0203f4 	mov	x20, x2
/home/build/bsp/optee_os/lib/libutee/base64.c:22
    6dd0:	97fffff1 	bl	6d94 <_base64_enc_len>
    6dd4:	aa0003e1 	mov	x1, x0
/home/build/bsp/optee_os/lib/libutee/base64.c:23
    6dd8:	f94002c0 	ldr	x0, [x22]
    6ddc:	eb01001f 	cmp	x0, x1
    6de0:	540006c3 	b.cc	6eb8 <_base64_enc+0x10c>  // b.lo, b.ul, b.last
/home/build/bsp/optee_os/lib/libutee/base64.c:41
    6de4:	d0000046 	adrp	x6, 10000 <__func__.0+0x28>
/home/build/bsp/optee_os/lib/libutee/base64.c:23
    6de8:	aa1403e1 	mov	x1, x20
/home/build/bsp/optee_os/lib/libutee/base64.c:31
    6dec:	d1000aa3 	sub	x3, x21, #0x2
/home/build/bsp/optee_os/lib/libutee/base64.c:35
    6df0:	d10006a7 	sub	x7, x21, #0x1
/home/build/bsp/optee_os/lib/libutee/base64.c:41
    6df4:	9103d0c6 	add	x6, x6, #0xf4
/home/build/bsp/optee_os/lib/libutee/base64.c:23
    6df8:	d2800045 	mov	x5, #0x2                   	// #2
/home/build/bsp/optee_os/lib/libutee/base64.c:28 (discriminator 1)
    6dfc:	d10008a2 	sub	x2, x5, #0x2
    6e00:	cb140020 	sub	x0, x1, x20
    6e04:	eb13005f 	cmp	x2, x19
    6e08:	54000123 	b.cc	6e2c <_base64_enc+0x80>  // b.lo, b.ul, b.last
/home/build/bsp/optee_os/lib/libutee/base64.c:54
    6e0c:	91000401 	add	x1, x0, #0x1
    6e10:	38206a9f 	strb	wzr, [x20, x0]
/home/build/bsp/optee_os/lib/libutee/base64.c:57
    6e14:	52800020 	mov	w0, #0x1                   	// #1
/home/build/bsp/optee_os/lib/libutee/base64.c:58
    6e18:	a94153f3 	ldp	x19, x20, [sp, #16]
/home/build/bsp/optee_os/lib/libutee/base64.c:24
    6e1c:	f90002c1 	str	x1, [x22]
/home/build/bsp/optee_os/lib/libutee/base64.c:58
    6e20:	a9425bf5 	ldp	x21, x22, [sp, #32]
    6e24:	a8c37bfd 	ldp	x29, x30, [sp], #48
    6e28:	d65f03c0 	ret
/home/build/bsp/optee_os/lib/libutee/base64.c:31
    6e2c:	38656864 	ldrb	w4, [x3, x5]
/home/build/bsp/optee_os/lib/libutee/base64.c:32
    6e30:	d10004a0 	sub	x0, x5, #0x1
    6e34:	53185c84 	lsl	w4, w4, #8
/home/build/bsp/optee_os/lib/libutee/base64.c:34
    6e38:	eb00027f 	cmp	x19, x0
    6e3c:	54000069 	b.ls	6e48 <_base64_enc+0x9c>  // b.plast
/home/build/bsp/optee_os/lib/libutee/base64.c:35
    6e40:	386568e2 	ldrb	w2, [x7, x5]
    6e44:	2a020084 	orr	w4, w4, w2
/home/build/bsp/optee_os/lib/libutee/base64.c:36
    6e48:	53185c84 	lsl	w4, w4, #8
/home/build/bsp/optee_os/lib/libutee/base64.c:38
    6e4c:	eb05027f 	cmp	x19, x5
    6e50:	54000069 	b.ls	6e5c <_base64_enc+0xb0>  // b.plast
/home/build/bsp/optee_os/lib/libutee/base64.c:39
    6e54:	38656aa2 	ldrb	w2, [x21, x5]
    6e58:	2a020084 	orr	w4, w4, w2
/home/build/bsp/optee_os/lib/libutee/base64.c:41
    6e5c:	53127c82 	lsr	w2, w4, #18
    6e60:	386268c2 	ldrb	w2, [x6, x2]
    6e64:	39000022 	strb	w2, [x1]
/home/build/bsp/optee_os/lib/libutee/base64.c:42
    6e68:	d34c4482 	ubfx	x2, x4, #12, #6
    6e6c:	386268c2 	ldrb	w2, [x6, x2]
    6e70:	39000422 	strb	w2, [x1, #1]
/home/build/bsp/optee_os/lib/libutee/base64.c:43
    6e74:	eb00027f 	cmp	x19, x0
    6e78:	54000189 	b.ls	6ea8 <_base64_enc+0xfc>  // b.plast
/home/build/bsp/optee_os/lib/libutee/base64.c:44
    6e7c:	d3462c80 	ubfx	x0, x4, #6, #6
    6e80:	386068c0 	ldrb	w0, [x6, x0]
    6e84:	39000820 	strb	w0, [x1, #2]
/home/build/bsp/optee_os/lib/libutee/base64.c:47
    6e88:	eb05027f 	cmp	x19, x5
    6e8c:	54000129 	b.ls	6eb0 <_base64_enc+0x104>  // b.plast
/home/build/bsp/optee_os/lib/libutee/base64.c:48
    6e90:	92401484 	and	x4, x4, #0x3f
    6e94:	386468c0 	ldrb	w0, [x6, x4]
    6e98:	91001021 	add	x1, x1, #0x4
    6e9c:	91000ca5 	add	x5, x5, #0x3
/home/build/bsp/optee_os/lib/libutee/base64.c:48 (discriminator 2)
    6ea0:	381ff020 	sturb	w0, [x1, #-1]
/home/build/bsp/optee_os/lib/libutee/base64.c:28 (discriminator 2)
    6ea4:	17ffffd6 	b	6dfc <_base64_enc+0x50>
    6ea8:	528007a0 	mov	w0, #0x3d                  	// #61
    6eac:	17fffff6 	b	6e84 <_base64_enc+0xd8>
    6eb0:	528007a0 	mov	w0, #0x3d                  	// #61
    6eb4:	17fffff9 	b	6e98 <_base64_enc+0xec>
/home/build/bsp/optee_os/lib/libutee/base64.c:25
    6eb8:	52800000 	mov	w0, #0x0                   	// #0
    6ebc:	17ffffd7 	b	6e18 <_base64_enc+0x6c>

0000000000006ec0 <_base64_dec>:
get_idx():
/home/build/bsp/optee_os/lib/libutee/base64.c:64
    6ec0:	d000004a 	adrp	x10, 10000 <__func__.0+0x28>
_base64_dec():
/home/build/bsp/optee_os/lib/libutee/base64.c:90
    6ec4:	d000004b 	adrp	x11, 10000 <__func__.0+0x28>
get_idx():
/home/build/bsp/optee_os/lib/libutee/base64.c:64
    6ec8:	9103d14a 	add	x10, x10, #0xf4
_base64_dec():
/home/build/bsp/optee_os/lib/libutee/base64.c:90
    6ecc:	9103c16b 	add	x11, x11, #0xf0
/home/build/bsp/optee_os/lib/libutee/base64.c:81
    6ed0:	52800007 	mov	w7, #0x0                   	// #0
/home/build/bsp/optee_os/lib/libutee/base64.c:80
    6ed4:	d2800006 	mov	x6, #0x0                   	// #0
/home/build/bsp/optee_os/lib/libutee/base64.c:79
    6ed8:	d2800004 	mov	x4, #0x0                   	// #0
/home/build/bsp/optee_os/lib/libutee/base64.c:83
    6edc:	d2800009 	mov	x9, #0x0                   	// #0
/home/build/bsp/optee_os/lib/libutee/base64.c:83 (discriminator 1)
    6ee0:	eb01013f 	cmp	x9, x1
    6ee4:	540000a0 	b.eq	6ef8 <_base64_dec+0x38>  // b.none
/home/build/bsp/optee_os/lib/libutee/base64.c:83 (discriminator 3)
    6ee8:	38696805 	ldrb	w5, [x0, x9]
    6eec:	34000065 	cbz	w5, 6ef8 <_base64_dec+0x38>
/home/build/bsp/optee_os/lib/libutee/base64.c:84
    6ef0:	7100f4bf 	cmp	w5, #0x3d
    6ef4:	54000281 	b.ne	6f44 <_base64_dec+0x84>  // b.any
/home/build/bsp/optee_os/lib/libutee/base64.c:124
    6ef8:	b40006a4 	cbz	x4, 6fcc <_base64_dec+0x10c>
/home/build/bsp/optee_os/lib/libutee/base64.c:124 (discriminator 4)
    6efc:	b4000702 	cbz	x2, 6fdc <_base64_dec+0x11c>
/home/build/bsp/optee_os/lib/libutee/base64.c:124 (discriminator 5)
    6f00:	f9400060 	ldr	x0, [x3]
    6f04:	eb04001f 	cmp	x0, x4
    6f08:	1a9f37e0 	cset	w0, cs  // cs = hs, nlast
/home/build/bsp/optee_os/lib/libutee/base64.c:125 (discriminator 10)
    6f0c:	f9000064 	str	x4, [x3]
/home/build/bsp/optee_os/lib/libutee/base64.c:128 (discriminator 10)
    6f10:	d65f03c0 	ret
get_idx():
/home/build/bsp/optee_os/lib/libutee/base64.c:65
    6f14:	6b0c00bf 	cmp	w5, w12
    6f18:	540000c1 	b.ne	6f30 <_base64_dec+0x70>  // b.any
/home/build/bsp/optee_os/lib/libutee/base64.c:66
    6f1c:	12001d05 	and	w5, w8, #0xff
_base64_dec():
/home/build/bsp/optee_os/lib/libutee/base64.c:90
    6f20:	38664966 	ldrb	w6, [x11, w6, uxtw]
    6f24:	1000006c 	adr	x12, 6f30 <_base64_dec+0x70>
    6f28:	8b268986 	add	x6, x12, w6, sxtb #2
    6f2c:	d61f00c0 	br	x6
get_idx():
/home/build/bsp/optee_os/lib/libutee/base64.c:64
    6f30:	91000508 	add	x8, x8, #0x1
    6f34:	386a690c 	ldrb	w12, [x8, x10]
    6f38:	35fffeec 	cbnz	w12, 6f14 <_base64_dec+0x54>
_base64_dec():
/home/build/bsp/optee_os/lib/libutee/base64.c:83 (discriminator 2)
    6f3c:	91000529 	add	x9, x9, #0x1
    6f40:	17ffffe8 	b	6ee0 <_base64_dec+0x20>
get_idx():
/home/build/bsp/optee_os/lib/libutee/base64.c:64
    6f44:	d2800008 	mov	x8, #0x0                   	// #0
    6f48:	17fffffb 	b	6f34 <_base64_dec+0x74>
_base64_dec():
/home/build/bsp/optee_os/lib/libutee/base64.c:92
    6f4c:	531e14a7 	ubfiz	w7, w5, #2, #6
/home/build/bsp/optee_os/lib/libutee/base64.c:93
    6f50:	d2800026 	mov	x6, #0x1                   	// #1
/home/build/bsp/optee_os/lib/libutee/base64.c:94
    6f54:	17fffffa 	b	6f3c <_base64_dec+0x7c>
/home/build/bsp/optee_os/lib/libutee/base64.c:96
    6f58:	b40000c2 	cbz	x2, 6f70 <_base64_dec+0xb0>
/home/build/bsp/optee_os/lib/libutee/base64.c:96 (discriminator 1)
    6f5c:	f9400066 	ldr	x6, [x3]
    6f60:	eb0400df 	cmp	x6, x4
    6f64:	54000069 	b.ls	6f70 <_base64_dec+0xb0>  // b.plast
/home/build/bsp/optee_os/lib/libutee/base64.c:97
    6f68:	2a4510e5 	orr	w5, w7, w5, lsr #4
    6f6c:	38246845 	strb	w5, [x2, x4]
/home/build/bsp/optee_os/lib/libutee/base64.c:98
    6f70:	91000484 	add	x4, x4, #0x1
/home/build/bsp/optee_os/lib/libutee/base64.c:99
    6f74:	531c0d07 	ubfiz	w7, w8, #4, #4
/home/build/bsp/optee_os/lib/libutee/base64.c:100
    6f78:	d2800046 	mov	x6, #0x2                   	// #2
/home/build/bsp/optee_os/lib/libutee/base64.c:101
    6f7c:	17fffff0 	b	6f3c <_base64_dec+0x7c>
/home/build/bsp/optee_os/lib/libutee/base64.c:103
    6f80:	b40000c2 	cbz	x2, 6f98 <_base64_dec+0xd8>
/home/build/bsp/optee_os/lib/libutee/base64.c:103 (discriminator 1)
    6f84:	f9400066 	ldr	x6, [x3]
    6f88:	eb0400df 	cmp	x6, x4
    6f8c:	54000069 	b.ls	6f98 <_base64_dec+0xd8>  // b.plast
/home/build/bsp/optee_os/lib/libutee/base64.c:104
    6f90:	2a4508e5 	orr	w5, w7, w5, lsr #2
    6f94:	38246845 	strb	w5, [x2, x4]
/home/build/bsp/optee_os/lib/libutee/base64.c:105
    6f98:	91000484 	add	x4, x4, #0x1
/home/build/bsp/optee_os/lib/libutee/base64.c:106
    6f9c:	531a0507 	ubfiz	w7, w8, #6, #2
/home/build/bsp/optee_os/lib/libutee/base64.c:107
    6fa0:	d2800066 	mov	x6, #0x3                   	// #3
/home/build/bsp/optee_os/lib/libutee/base64.c:108
    6fa4:	17ffffe6 	b	6f3c <_base64_dec+0x7c>
/home/build/bsp/optee_os/lib/libutee/base64.c:110
    6fa8:	b40000c2 	cbz	x2, 6fc0 <_base64_dec+0x100>
/home/build/bsp/optee_os/lib/libutee/base64.c:110 (discriminator 1)
    6fac:	f9400066 	ldr	x6, [x3]
    6fb0:	eb0400df 	cmp	x6, x4
    6fb4:	54000069 	b.ls	6fc0 <_base64_dec+0x100>  // b.plast
/home/build/bsp/optee_os/lib/libutee/base64.c:111
    6fb8:	2a0500e5 	orr	w5, w7, w5
    6fbc:	38246845 	strb	w5, [x2, x4]
/home/build/bsp/optee_os/lib/libutee/base64.c:112
    6fc0:	91000484 	add	x4, x4, #0x1
/home/build/bsp/optee_os/lib/libutee/base64.c:113
    6fc4:	d2800006 	mov	x6, #0x0                   	// #0
/home/build/bsp/optee_os/lib/libutee/base64.c:114
    6fc8:	17ffffdd 	b	6f3c <_base64_dec+0x7c>
/home/build/bsp/optee_os/lib/libutee/base64.c:124 (discriminator 1)
    6fcc:	f9400060 	ldr	x0, [x3]
    6fd0:	b5fff960 	cbnz	x0, 6efc <_base64_dec+0x3c>
/home/build/bsp/optee_os/lib/libutee/base64.c:124
    6fd4:	52800020 	mov	w0, #0x1                   	// #1
    6fd8:	17ffffcd 	b	6f0c <_base64_dec+0x4c>
    6fdc:	52800000 	mov	w0, #0x0                   	// #0
    6fe0:	17ffffcb 	b	6f0c <_base64_dec+0x4c>

0000000000006fe4 <mpi_get_digit>:
mpi_get_digit():
/home/build/bsp/optee_os/lib/libmbedtls/mbedtls/library/bignum.c:405
    6fe4:	12001c42 	and	w2, w2, #0xff
/home/build/bsp/optee_os/lib/libmbedtls/mbedtls/library/bignum.c:408
    6fe8:	5100c043 	sub	w3, w2, #0x30
    6fec:	12001c64 	and	w4, w3, #0xff
    6ff0:	7100249f 	cmp	w4, #0x9
    6ff4:	540000e8 	b.hi	7010 <mpi_get_digit+0x2c>  // b.pmore
/home/build/bsp/optee_os/lib/libmbedtls/mbedtls/library/bignum.c:409
    6ff8:	b9000003 	str	w3, [x0]
/home/build/bsp/optee_os/lib/libmbedtls/mbedtls/library/bignum.c:418
    6ffc:	b9400000 	ldr	w0, [x0]
/home/build/bsp/optee_os/lib/libmbedtls/mbedtls/library/bignum.c:419
    7000:	6b01001f 	cmp	w0, w1
/home/build/bsp/optee_os/lib/libmbedtls/mbedtls/library/bignum.c:423
    7004:	128000a0 	mov	w0, #0xfffffffa            	// #-6
    7008:	1a9f2000 	csel	w0, w0, wzr, cs  // cs = hs, nlast
    700c:	d65f03c0 	ret
/home/build/bsp/optee_os/lib/libmbedtls/mbedtls/library/bignum.c:411
    7010:	51010443 	sub	w3, w2, #0x41
    7014:	12001c63 	and	w3, w3, #0xff
    7018:	7100147f 	cmp	w3, #0x5
    701c:	54000088 	b.hi	702c <mpi_get_digit+0x48>  // b.pmore
/home/build/bsp/optee_os/lib/libmbedtls/mbedtls/library/bignum.c:412
    7020:	5100dc42 	sub	w2, w2, #0x37
/home/build/bsp/optee_os/lib/libmbedtls/mbedtls/library/bignum.c:415
    7024:	b9000002 	str	w2, [x0]
    7028:	17fffff5 	b	6ffc <mpi_get_digit+0x18>
/home/build/bsp/optee_os/lib/libmbedtls/mbedtls/library/bignum.c:414
    702c:	51018443 	sub	w3, w2, #0x61
/home/build/bsp/optee_os/lib/libmbedtls/mbedtls/library/bignum.c:415
    7030:	51015c42 	sub	w2, w2, #0x57
/home/build/bsp/optee_os/lib/libmbedtls/mbedtls/library/bignum.c:414
    7034:	12001c63 	and	w3, w3, #0xff
/home/build/bsp/optee_os/lib/libmbedtls/mbedtls/library/bignum.c:415
    7038:	7100187f 	cmp	w3, #0x6
    703c:	52801fe3 	mov	w3, #0xff                  	// #255
    7040:	1a833042 	csel	w2, w2, w3, cc  // cc = lo, ul, last
    7044:	17fffff8 	b	7024 <mpi_get_digit+0x40>

0000000000007048 <mpi_select>:
mpi_select():
/home/build/bsp/optee_os/lib/libmbedtls/mbedtls/library/bignum.c:1691
    7048:	a9bc7bfd 	stp	x29, x30, [sp, #-64]!
    704c:	910003fd 	mov	x29, sp
    7050:	a90153f3 	stp	x19, x20, [sp, #16]
    7054:	aa0203f4 	mov	x20, x2
/home/build/bsp/optee_os/lib/libmbedtls/mbedtls/library/bignum.c:1694
    7058:	d2800013 	mov	x19, #0x0                   	// #0
/home/build/bsp/optee_os/lib/libmbedtls/mbedtls/library/bignum.c:1691
    705c:	a9025bf5 	stp	x21, x22, [sp, #32]
    7060:	aa0003f5 	mov	x21, x0
    7064:	aa0103f6 	mov	x22, x1
    7068:	f9001bf7 	str	x23, [sp, #48]
    706c:	aa0303f7 	mov	x23, x3
/home/build/bsp/optee_os/lib/libmbedtls/mbedtls/library/bignum.c:1695
    7070:	aa1703e1 	mov	x1, x23
    7074:	aa1303e0 	mov	x0, x19
    7078:	9400113b 	bl	b564 <mbedtls_ct_size_bool_eq>
    707c:	2a0003e2 	mov	w2, w0
    7080:	8b1316c1 	add	x1, x22, x19, lsl #5
    7084:	aa1503e0 	mov	x0, x21
    7088:	940011bb 	bl	b774 <mbedtls_mpi_safe_cond_assign>
    708c:	35000080 	cbnz	w0, 709c <mpi_select+0x54>
/home/build/bsp/optee_os/lib/libmbedtls/mbedtls/library/bignum.c:1694 (discriminator 2)
    7090:	91000673 	add	x19, x19, #0x1
    7094:	eb13029f 	cmp	x20, x19
    7098:	54fffec1 	b.ne	7070 <mpi_select+0x28>  // b.any
/home/build/bsp/optee_os/lib/libmbedtls/mbedtls/library/bignum.c:1702
    709c:	a94153f3 	ldp	x19, x20, [sp, #16]
    70a0:	a9425bf5 	ldp	x21, x22, [sp, #32]
    70a4:	f9401bf7 	ldr	x23, [sp, #48]
    70a8:	a8c47bfd 	ldp	x29, x30, [sp], #64
    70ac:	d65f03c0 	ret

00000000000070b0 <mpi_montmul.isra.0>:
mpi_montmul():
/home/build/bsp/optee_os/lib/libmbedtls/mbedtls/library/bignum.c:1642
    70b0:	aa0403e7 	mov	x7, x4
    70b4:	2a0303e6 	mov	w6, w3
    70b8:	a9409045 	ldp	x5, x4, [x2, #8]
    70bc:	f9400423 	ldr	x3, [x1, #8]
    70c0:	f9400822 	ldr	x2, [x1, #16]
    70c4:	aa0003e1 	mov	x1, x0
    70c8:	14000f6e 	b	ae80 <mbedtls_mpi_core_montmul>

00000000000070cc <mpi_montred>:
mpi_montred():
/home/build/bsp/optee_os/lib/libmbedtls/mbedtls/library/bignum.c:1659
    70cc:	a9bb7bfd 	stp	x29, x30, [sp, #-80]!
    70d0:	910003fd 	mov	x29, sp
/home/build/bsp/optee_os/lib/libmbedtls/mbedtls/library/bignum.c:1666
    70d4:	f9400800 	ldr	x0, [x0, #16]
/home/build/bsp/optee_os/lib/libmbedtls/mbedtls/library/bignum.c:1659
    70d8:	f9000bf3 	str	x19, [sp, #16]
    70dc:	f0000053 	adrp	x19, 12000 <_DYNAMIC>
    70e0:	f9409a64 	ldr	x4, [x19, #304]
    70e4:	f9400085 	ldr	x5, [x4]
    70e8:	f90027e5 	str	x5, [sp, #72]
    70ec:	d2800005 	mov	x5, #0x0                   	// #0
/home/build/bsp/optee_os/lib/libmbedtls/mbedtls/library/bignum.c:1660
    70f0:	52800024 	mov	w4, #0x1                   	// #1
/home/build/bsp/optee_os/lib/libmbedtls/mbedtls/library/bignum.c:1663
    70f4:	290493e4 	stp	w4, w4, [sp, #36]
    70f8:	d2800024 	mov	x4, #0x1                   	// #1
    70fc:	f9001be4 	str	x4, [sp, #48]
/home/build/bsp/optee_os/lib/libmbedtls/mbedtls/library/bignum.c:1664
    7100:	910093e4 	add	x4, sp, #0x24
    7104:	f9001fe4 	str	x4, [sp, #56]
/home/build/bsp/optee_os/lib/libmbedtls/mbedtls/library/bignum.c:1666
    7108:	f9400864 	ldr	x4, [x3, #16]
    710c:	2a0203e3 	mov	w3, w2
    7110:	aa0103e2 	mov	x2, x1
    7114:	9100a3e1 	add	x1, sp, #0x28
    7118:	97ffffe6 	bl	70b0 <mpi_montmul.isra.0>
/home/build/bsp/optee_os/lib/libmbedtls/mbedtls/library/bignum.c:1667
    711c:	f9409a73 	ldr	x19, [x19, #304]
    7120:	f94027e0 	ldr	x0, [sp, #72]
    7124:	f9400261 	ldr	x1, [x19]
    7128:	eb010000 	subs	x0, x0, x1
    712c:	d2800001 	mov	x1, #0x0                   	// #0
    7130:	54000040 	b.eq	7138 <mpi_montred+0x6c>  // b.none
    7134:	97ffe55f 	bl	6b0 <__stack_chk_fail>
    7138:	f9400bf3 	ldr	x19, [sp, #16]
    713c:	a8c57bfd 	ldp	x29, x30, [sp], #80
    7140:	d65f03c0 	ret

0000000000007144 <mbedtls_mpi_init>:
mpi_init():
/home/build/bsp/optee_os/lib/libmbedtls/mbedtls/library/bignum.c:77
    7144:	52800021 	mov	w1, #0x1                   	// #1
    7148:	b9000001 	str	w1, [x0]
/home/build/bsp/optee_os/lib/libmbedtls/mbedtls/library/bignum.c:80
    714c:	a900fc1f 	stp	xzr, xzr, [x0, #8]
/home/build/bsp/optee_os/lib/libmbedtls/mbedtls/library/bignum.c:78
    7150:	7900301f 	strh	wzr, [x0, #24]
mbedtls_mpi_init():
/home/build/bsp/optee_os/lib/libmbedtls/mbedtls/library/bignum.c:86
    7154:	d65f03c0 	ret

0000000000007158 <mbedtls_mpi_init_mempool>:
mbedtls_mpi_init_mempool():
/home/build/bsp/optee_os/lib/libmbedtls/mbedtls/library/bignum.c:90
    7158:	f0000041 	adrp	x1, 12000 <_DYNAMIC>
mpi_init():
/home/build/bsp/optee_os/lib/libmbedtls/mbedtls/library/bignum.c:77
    715c:	52800022 	mov	w2, #0x1                   	// #1
/home/build/bsp/optee_os/lib/libmbedtls/mbedtls/library/bignum.c:80
    7160:	a900fc1f 	stp	xzr, xzr, [x0, #8]
mbedtls_mpi_init_mempool():
/home/build/bsp/optee_os/lib/libmbedtls/mbedtls/library/bignum.c:90
    7164:	f940ec21 	ldr	x1, [x1, #472]
    7168:	f9400021 	ldr	x1, [x1]
mpi_init():
/home/build/bsp/optee_os/lib/libmbedtls/mbedtls/library/bignum.c:77
    716c:	b9000002 	str	w2, [x0]
mbedtls_mpi_init_mempool():
/home/build/bsp/optee_os/lib/libmbedtls/mbedtls/library/bignum.c:90
    7170:	f100003f 	cmp	x1, #0x0
    7174:	1a9f07e1 	cset	w1, ne  // ne = any
mpi_init():
/home/build/bsp/optee_os/lib/libmbedtls/mbedtls/library/bignum.c:78
    7178:	79003001 	strh	w1, [x0, #24]
mbedtls_mpi_init_mempool():
/home/build/bsp/optee_os/lib/libmbedtls/mbedtls/library/bignum.c:91
    717c:	d65f03c0 	ret

0000000000007180 <mbedtls_mpi_free>:
mbedtls_mpi_free():
/home/build/bsp/optee_os/lib/libmbedtls/mbedtls/library/bignum.c:98
    7180:	b4000340 	cbz	x0, 71e8 <mbedtls_mpi_free+0x68>
/home/build/bsp/optee_os/lib/libmbedtls/mbedtls/library/bignum.c:97
    7184:	a9be7bfd 	stp	x29, x30, [sp, #-32]!
    7188:	910003fd 	mov	x29, sp
    718c:	f9000bf3 	str	x19, [sp, #16]
    7190:	aa0003f3 	mov	x19, x0
/home/build/bsp/optee_os/lib/libmbedtls/mbedtls/library/bignum.c:102
    7194:	f9400800 	ldr	x0, [x0, #16]
    7198:	b4000160 	cbz	x0, 71c4 <mbedtls_mpi_free+0x44>
mbedtls_mpi_zeroize():
/home/build/bsp/optee_os/lib/libmbedtls/mbedtls/library/bignum.c:67
    719c:	f9400661 	ldr	x1, [x19, #8]
    71a0:	d37ef421 	lsl	x1, x1, #2
    71a4:	9400132f 	bl	be60 <mbedtls_platform_zeroize>
mbedtls_mpi_free():
/home/build/bsp/optee_os/lib/libmbedtls/mbedtls/library/bignum.c:104
    71a8:	79c03260 	ldrsh	w0, [x19, #24]
    71ac:	34000180 	cbz	w0, 71dc <mbedtls_mpi_free+0x5c>
/home/build/bsp/optee_os/lib/libmbedtls/mbedtls/library/bignum.c:105
    71b0:	f0000040 	adrp	x0, 12000 <_DYNAMIC>
    71b4:	f9400a61 	ldr	x1, [x19, #16]
    71b8:	f940ec00 	ldr	x0, [x0, #472]
    71bc:	f9400000 	ldr	x0, [x0]
    71c0:	940017c7 	bl	d0dc <mempool_free>
/home/build/bsp/optee_os/lib/libmbedtls/mbedtls/library/bignum.c:110
    71c4:	52800020 	mov	w0, #0x1                   	// #1
    71c8:	b9000260 	str	w0, [x19]
/home/build/bsp/optee_os/lib/libmbedtls/mbedtls/library/bignum.c:112
    71cc:	a900fe7f 	stp	xzr, xzr, [x19, #8]
/home/build/bsp/optee_os/lib/libmbedtls/mbedtls/library/bignum.c:113
    71d0:	f9400bf3 	ldr	x19, [sp, #16]
    71d4:	a8c27bfd 	ldp	x29, x30, [sp], #32
    71d8:	d65f03c0 	ret
/home/build/bsp/optee_os/lib/libmbedtls/mbedtls/library/bignum.c:107
    71dc:	f9400a60 	ldr	x0, [x19, #16]
    71e0:	94001604 	bl	c9f0 <free>
    71e4:	17fffff8 	b	71c4 <mbedtls_mpi_free+0x44>
    71e8:	d65f03c0 	ret

00000000000071ec <mbedtls_mpi_grow>:
mbedtls_mpi_grow():
/home/build/bsp/optee_os/lib/libmbedtls/mbedtls/library/bignum.c:119
    71ec:	a9bd7bfd 	stp	x29, x30, [sp, #-48]!
    71f0:	910003fd 	mov	x29, sp
    71f4:	a90153f3 	stp	x19, x20, [sp, #16]
    71f8:	aa0003f3 	mov	x19, x0
/home/build/bsp/optee_os/lib/libmbedtls/mbedtls/library/bignum.c:123
    71fc:	d284e200 	mov	x0, #0x2710                	// #10000
/home/build/bsp/optee_os/lib/libmbedtls/mbedtls/library/bignum.c:119
    7200:	a9025bf5 	stp	x21, x22, [sp, #32]
/home/build/bsp/optee_os/lib/libmbedtls/mbedtls/library/bignum.c:123
    7204:	eb00003f 	cmp	x1, x0
    7208:	540000c9 	b.ls	7220 <mbedtls_mpi_grow+0x34>  // b.plast
/home/build/bsp/optee_os/lib/libmbedtls/mbedtls/library/bignum.c:124
    720c:	128001e0 	mov	w0, #0xfffffff0            	// #-16
/home/build/bsp/optee_os/lib/libmbedtls/mbedtls/library/bignum.c:153
    7210:	a94153f3 	ldp	x19, x20, [sp, #16]
    7214:	a9425bf5 	ldp	x21, x22, [sp, #32]
    7218:	a8c37bfd 	ldp	x29, x30, [sp], #48
    721c:	d65f03c0 	ret
/home/build/bsp/optee_os/lib/libmbedtls/mbedtls/library/bignum.c:127
    7220:	f9400660 	ldr	x0, [x19, #8]
    7224:	aa0103f5 	mov	x21, x1
    7228:	eb01001f 	cmp	x0, x1
    722c:	540003e2 	b.cs	72a8 <mbedtls_mpi_grow+0xbc>  // b.hs, b.nlast
/home/build/bsp/optee_os/lib/libmbedtls/mbedtls/library/bignum.c:128
    7230:	79c03260 	ldrsh	w0, [x19, #24]
    7234:	340003e0 	cbz	w0, 72b0 <mbedtls_mpi_grow+0xc4>
/home/build/bsp/optee_os/lib/libmbedtls/mbedtls/library/bignum.c:129
    7238:	f0000040 	adrp	x0, 12000 <_DYNAMIC>
    723c:	d37ef436 	lsl	x22, x1, #2
    7240:	aa1603e1 	mov	x1, x22
    7244:	f940ec00 	ldr	x0, [x0, #472]
    7248:	f9400000 	ldr	x0, [x0]
    724c:	94001777 	bl	d028 <mempool_alloc>
    7250:	aa0003f4 	mov	x20, x0
/home/build/bsp/optee_os/lib/libmbedtls/mbedtls/library/bignum.c:130
    7254:	b4fffdc0 	cbz	x0, 720c <mbedtls_mpi_grow+0x20>
/home/build/bsp/optee_os/lib/libmbedtls/mbedtls/library/bignum.c:132
    7258:	aa1603e2 	mov	x2, x22
    725c:	52800001 	mov	w1, #0x0                   	// #0
    7260:	94001722 	bl	cee8 <memset>
/home/build/bsp/optee_os/lib/libmbedtls/mbedtls/library/bignum.c:139
    7264:	f9400a61 	ldr	x1, [x19, #16]
    7268:	b40001e1 	cbz	x1, 72a4 <mbedtls_mpi_grow+0xb8>
/home/build/bsp/optee_os/lib/libmbedtls/mbedtls/library/bignum.c:140
    726c:	f9400662 	ldr	x2, [x19, #8]
    7270:	aa1403e0 	mov	x0, x20
    7274:	d37ef442 	lsl	x2, x2, #2
    7278:	97ffe362 	bl	0 <memcpy>
mbedtls_mpi_zeroize():
/home/build/bsp/optee_os/lib/libmbedtls/mbedtls/library/bignum.c:67
    727c:	a9408261 	ldp	x1, x0, [x19, #8]
    7280:	d37ef421 	lsl	x1, x1, #2
    7284:	940012f7 	bl	be60 <mbedtls_platform_zeroize>
mbedtls_mpi_grow():
/home/build/bsp/optee_os/lib/libmbedtls/mbedtls/library/bignum.c:142
    7288:	79c03260 	ldrsh	w0, [x19, #24]
    728c:	340001e0 	cbz	w0, 72c8 <mbedtls_mpi_grow+0xdc>
/home/build/bsp/optee_os/lib/libmbedtls/mbedtls/library/bignum.c:143
    7290:	f0000040 	adrp	x0, 12000 <_DYNAMIC>
    7294:	f9400a61 	ldr	x1, [x19, #16]
    7298:	f940ec00 	ldr	x0, [x0, #472]
    729c:	f9400000 	ldr	x0, [x0]
    72a0:	9400178f 	bl	d0dc <mempool_free>
/home/build/bsp/optee_os/lib/libmbedtls/mbedtls/library/bignum.c:149
    72a4:	a900d275 	stp	x21, x20, [x19, #8]
/home/build/bsp/optee_os/lib/libmbedtls/mbedtls/library/bignum.c:152
    72a8:	52800000 	mov	w0, #0x0                   	// #0
    72ac:	17ffffd9 	b	7210 <mbedtls_mpi_grow+0x24>
/home/build/bsp/optee_os/lib/libmbedtls/mbedtls/library/bignum.c:134
    72b0:	aa1503e0 	mov	x0, x21
    72b4:	d2800081 	mov	x1, #0x4                   	// #4
    72b8:	940015b4 	bl	c988 <calloc>
    72bc:	aa0003f4 	mov	x20, x0
/home/build/bsp/optee_os/lib/libmbedtls/mbedtls/library/bignum.c:135
    72c0:	b5fffd20 	cbnz	x0, 7264 <mbedtls_mpi_grow+0x78>
    72c4:	17ffffd2 	b	720c <mbedtls_mpi_grow+0x20>
/home/build/bsp/optee_os/lib/libmbedtls/mbedtls/library/bignum.c:145
    72c8:	f9400a60 	ldr	x0, [x19, #16]
    72cc:	940015c9 	bl	c9f0 <free>
    72d0:	17fffff5 	b	72a4 <mbedtls_mpi_grow+0xb8>

00000000000072d4 <mbedtls_mpi_resize_clear>:
mbedtls_mpi_resize_clear():
/home/build/bsp/optee_os/lib/libmbedtls/mbedtls/library/bignum.c:213
    72d4:	a9be7bfd 	stp	x29, x30, [sp, #-32]!
    72d8:	910003fd 	mov	x29, sp
    72dc:	a90153f3 	stp	x19, x20, [sp, #16]
/home/build/bsp/optee_os/lib/libmbedtls/mbedtls/library/bignum.c:214
    72e0:	b50000c1 	cbnz	x1, 72f8 <mbedtls_mpi_resize_clear+0x24>
/home/build/bsp/optee_os/lib/libmbedtls/mbedtls/library/bignum.c:215
    72e4:	97ffffa7 	bl	7180 <mbedtls_mpi_free>
/home/build/bsp/optee_os/lib/libmbedtls/mbedtls/library/bignum.c:225
    72e8:	52800000 	mov	w0, #0x0                   	// #0
    72ec:	a94153f3 	ldp	x19, x20, [sp, #16]
    72f0:	a8c27bfd 	ldp	x29, x30, [sp], #32
    72f4:	d65f03c0 	ret
/home/build/bsp/optee_os/lib/libmbedtls/mbedtls/library/bignum.c:217
    72f8:	f9400402 	ldr	x2, [x0, #8]
    72fc:	aa0003f3 	mov	x19, x0
    7300:	aa0103f4 	mov	x20, x1
    7304:	eb01005f 	cmp	x2, x1
    7308:	54000101 	b.ne	7328 <mbedtls_mpi_resize_clear+0x54>  // b.any
/home/build/bsp/optee_os/lib/libmbedtls/mbedtls/library/bignum.c:218
    730c:	f9400800 	ldr	x0, [x0, #16]
    7310:	d37ef442 	lsl	x2, x2, #2
    7314:	52800001 	mov	w1, #0x0                   	// #0
    7318:	940016f4 	bl	cee8 <memset>
/home/build/bsp/optee_os/lib/libmbedtls/mbedtls/library/bignum.c:219
    731c:	52800020 	mov	w0, #0x1                   	// #1
    7320:	b9000260 	str	w0, [x19]
/home/build/bsp/optee_os/lib/libmbedtls/mbedtls/library/bignum.c:220
    7324:	17fffff1 	b	72e8 <mbedtls_mpi_resize_clear+0x14>
/home/build/bsp/optee_os/lib/libmbedtls/mbedtls/library/bignum.c:222
    7328:	97ffff96 	bl	7180 <mbedtls_mpi_free>
/home/build/bsp/optee_os/lib/libmbedtls/mbedtls/library/bignum.c:223
    732c:	aa1403e1 	mov	x1, x20
    7330:	aa1303e0 	mov	x0, x19
/home/build/bsp/optee_os/lib/libmbedtls/mbedtls/library/bignum.c:225
    7334:	a94153f3 	ldp	x19, x20, [sp, #16]
    7338:	a8c27bfd 	ldp	x29, x30, [sp], #32
/home/build/bsp/optee_os/lib/libmbedtls/mbedtls/library/bignum.c:223
    733c:	17ffffac 	b	71ec <mbedtls_mpi_grow>

0000000000007340 <mbedtls_mpi_shrink>:
mbedtls_mpi_shrink():
/home/build/bsp/optee_os/lib/libmbedtls/mbedtls/library/bignum.c:165
    7340:	d284e202 	mov	x2, #0x2710                	// #10000
    7344:	eb02003f 	cmp	x1, x2
    7348:	54000069 	b.ls	7354 <mbedtls_mpi_shrink+0x14>  // b.plast
/home/build/bsp/optee_os/lib/libmbedtls/mbedtls/library/bignum.c:166
    734c:	128001e0 	mov	w0, #0xfffffff0            	// #-16
/home/build/bsp/optee_os/lib/libmbedtls/mbedtls/library/bignum.c:209
    7350:	d65f03c0 	ret
/home/build/bsp/optee_os/lib/libmbedtls/mbedtls/library/bignum.c:160
    7354:	a9bd7bfd 	stp	x29, x30, [sp, #-48]!
    7358:	aa0103e3 	mov	x3, x1
    735c:	910003fd 	mov	x29, sp
/home/build/bsp/optee_os/lib/libmbedtls/mbedtls/library/bignum.c:170
    7360:	f9400402 	ldr	x2, [x0, #8]
/home/build/bsp/optee_os/lib/libmbedtls/mbedtls/library/bignum.c:160
    7364:	a90153f3 	stp	x19, x20, [sp, #16]
    7368:	aa0003f3 	mov	x19, x0
    736c:	a9025bf5 	stp	x21, x22, [sp, #32]
/home/build/bsp/optee_os/lib/libmbedtls/mbedtls/library/bignum.c:170
    7370:	eb01005f 	cmp	x2, x1
    7374:	54000108 	b.hi	7394 <mbedtls_mpi_shrink+0x54>  // b.pmore
/home/build/bsp/optee_os/lib/libmbedtls/mbedtls/library/bignum.c:209
    7378:	a94153f3 	ldp	x19, x20, [sp, #16]
    737c:	a9425bf5 	ldp	x21, x22, [sp, #32]
    7380:	a8c37bfd 	ldp	x29, x30, [sp], #48
/home/build/bsp/optee_os/lib/libmbedtls/mbedtls/library/bignum.c:171
    7384:	17ffff9a 	b	71ec <mbedtls_mpi_grow>
/home/build/bsp/optee_os/lib/libmbedtls/mbedtls/library/bignum.c:176
    7388:	f9400a60 	ldr	x0, [x19, #16]
    738c:	b8627800 	ldr	w0, [x0, x2, lsl #2]
    7390:	35000060 	cbnz	w0, 739c <mbedtls_mpi_shrink+0x5c>
/home/build/bsp/optee_os/lib/libmbedtls/mbedtls/library/bignum.c:175 (discriminator 2)
    7394:	d1000442 	sub	x2, x2, #0x1
    7398:	b5ffff82 	cbnz	x2, 7388 <mbedtls_mpi_shrink+0x48>
/home/build/bsp/optee_os/lib/libmbedtls/mbedtls/library/bignum.c:186
    739c:	79c03260 	ldrsh	w0, [x19, #24]
/home/build/bsp/optee_os/lib/libmbedtls/mbedtls/library/bignum.c:180
    73a0:	91000442 	add	x2, x2, #0x1
    73a4:	eb03005f 	cmp	x2, x3
    73a8:	9a832054 	csel	x20, x2, x3, cs  // cs = hs, nlast
/home/build/bsp/optee_os/lib/libmbedtls/mbedtls/library/bignum.c:186
    73ac:	340003c0 	cbz	w0, 7424 <mbedtls_mpi_shrink+0xe4>
/home/build/bsp/optee_os/lib/libmbedtls/mbedtls/library/bignum.c:187
    73b0:	f0000040 	adrp	x0, 12000 <_DYNAMIC>
    73b4:	d37ef696 	lsl	x22, x20, #2
    73b8:	aa1603e1 	mov	x1, x22
    73bc:	f940ec00 	ldr	x0, [x0, #472]
    73c0:	f9400000 	ldr	x0, [x0]
    73c4:	94001719 	bl	d028 <mempool_alloc>
    73c8:	aa0003f5 	mov	x21, x0
/home/build/bsp/optee_os/lib/libmbedtls/mbedtls/library/bignum.c:188
    73cc:	b4000360 	cbz	x0, 7438 <mbedtls_mpi_shrink+0xf8>
/home/build/bsp/optee_os/lib/libmbedtls/mbedtls/library/bignum.c:190
    73d0:	aa1603e2 	mov	x2, x22
    73d4:	52800001 	mov	w1, #0x0                   	// #0
    73d8:	940016c4 	bl	cee8 <memset>
/home/build/bsp/optee_os/lib/libmbedtls/mbedtls/library/bignum.c:196
    73dc:	f9400a61 	ldr	x1, [x19, #16]
    73e0:	b40001c1 	cbz	x1, 7418 <mbedtls_mpi_shrink+0xd8>
/home/build/bsp/optee_os/lib/libmbedtls/mbedtls/library/bignum.c:197
    73e4:	d37ef682 	lsl	x2, x20, #2
    73e8:	aa1503e0 	mov	x0, x21
    73ec:	97ffe305 	bl	0 <memcpy>
mbedtls_mpi_zeroize():
/home/build/bsp/optee_os/lib/libmbedtls/mbedtls/library/bignum.c:67
    73f0:	a9408261 	ldp	x1, x0, [x19, #8]
    73f4:	d37ef421 	lsl	x1, x1, #2
    73f8:	9400129a 	bl	be60 <mbedtls_platform_zeroize>
mbedtls_mpi_shrink():
/home/build/bsp/optee_os/lib/libmbedtls/mbedtls/library/bignum.c:199
    73fc:	79c03260 	ldrsh	w0, [x19, #24]
    7400:	34000260 	cbz	w0, 744c <mbedtls_mpi_shrink+0x10c>
/home/build/bsp/optee_os/lib/libmbedtls/mbedtls/library/bignum.c:200
    7404:	f0000040 	adrp	x0, 12000 <_DYNAMIC>
    7408:	f9400a61 	ldr	x1, [x19, #16]
    740c:	f940ec00 	ldr	x0, [x0, #472]
    7410:	f9400000 	ldr	x0, [x0]
    7414:	94001732 	bl	d0dc <mempool_free>
/home/build/bsp/optee_os/lib/libmbedtls/mbedtls/library/bignum.c:208
    7418:	52800000 	mov	w0, #0x0                   	// #0
/home/build/bsp/optee_os/lib/libmbedtls/mbedtls/library/bignum.c:206
    741c:	a900d674 	stp	x20, x21, [x19, #8]
/home/build/bsp/optee_os/lib/libmbedtls/mbedtls/library/bignum.c:208
    7420:	14000007 	b	743c <mbedtls_mpi_shrink+0xfc>
/home/build/bsp/optee_os/lib/libmbedtls/mbedtls/library/bignum.c:192
    7424:	aa1403e0 	mov	x0, x20
    7428:	d2800081 	mov	x1, #0x4                   	// #4
    742c:	94001557 	bl	c988 <calloc>
    7430:	aa0003f5 	mov	x21, x0
    7434:	b5fffd40 	cbnz	x0, 73dc <mbedtls_mpi_shrink+0x9c>
/home/build/bsp/optee_os/lib/libmbedtls/mbedtls/library/bignum.c:166
    7438:	128001e0 	mov	w0, #0xfffffff0            	// #-16
/home/build/bsp/optee_os/lib/libmbedtls/mbedtls/library/bignum.c:209
    743c:	a94153f3 	ldp	x19, x20, [sp, #16]
    7440:	a9425bf5 	ldp	x21, x22, [sp, #32]
    7444:	a8c37bfd 	ldp	x29, x30, [sp], #48
    7448:	d65f03c0 	ret
/home/build/bsp/optee_os/lib/libmbedtls/mbedtls/library/bignum.c:202
    744c:	f9400a60 	ldr	x0, [x19, #16]
    7450:	94001568 	bl	c9f0 <free>
    7454:	17fffff1 	b	7418 <mbedtls_mpi_shrink+0xd8>

0000000000007458 <mbedtls_mpi_copy>:
mbedtls_mpi_copy():
/home/build/bsp/optee_os/lib/libmbedtls/mbedtls/library/bignum.c:243
    7458:	eb01001f 	cmp	x0, x1
    745c:	54000600 	b.eq	751c <mbedtls_mpi_copy+0xc4>  // b.none
/home/build/bsp/optee_os/lib/libmbedtls/mbedtls/library/bignum.c:237
    7460:	a9bd7bfd 	stp	x29, x30, [sp, #-48]!
    7464:	910003fd 	mov	x29, sp
    7468:	a90153f3 	stp	x19, x20, [sp, #16]
    746c:	aa0003f4 	mov	x20, x0
/home/build/bsp/optee_os/lib/libmbedtls/mbedtls/library/bignum.c:247
    7470:	f9400433 	ldr	x19, [x1, #8]
/home/build/bsp/optee_os/lib/libmbedtls/mbedtls/library/bignum.c:248
    7474:	f9400402 	ldr	x2, [x0, #8]
/home/build/bsp/optee_os/lib/libmbedtls/mbedtls/library/bignum.c:237
    7478:	f90013f5 	str	x21, [sp, #32]
    747c:	aa0103f5 	mov	x21, x1
/home/build/bsp/optee_os/lib/libmbedtls/mbedtls/library/bignum.c:247
    7480:	b50001b3 	cbnz	x19, 74b4 <mbedtls_mpi_copy+0x5c>
/home/build/bsp/optee_os/lib/libmbedtls/mbedtls/library/bignum.c:248
    7484:	b40000e2 	cbz	x2, 74a0 <mbedtls_mpi_copy+0x48>
/home/build/bsp/optee_os/lib/libmbedtls/mbedtls/library/bignum.c:249
    7488:	52800020 	mov	w0, #0x1                   	// #1
    748c:	b9000280 	str	w0, [x20]
/home/build/bsp/optee_os/lib/libmbedtls/mbedtls/library/bignum.c:250
    7490:	f9400a80 	ldr	x0, [x20, #16]
    7494:	d37ef442 	lsl	x2, x2, #2
    7498:	52800001 	mov	w1, #0x0                   	// #0
    749c:	94001693 	bl	cee8 <memset>
/home/build/bsp/optee_os/lib/libmbedtls/mbedtls/library/bignum.c:244
    74a0:	52800000 	mov	w0, #0x0                   	// #0
    74a4:	1400000f 	b	74e0 <mbedtls_mpi_copy+0x88>
/home/build/bsp/optee_os/lib/libmbedtls/mbedtls/library/bignum.c:256
    74a8:	f9400aa0 	ldr	x0, [x21, #16]
    74ac:	b8737800 	ldr	w0, [x0, x19, lsl #2]
    74b0:	35000060 	cbnz	w0, 74bc <mbedtls_mpi_copy+0x64>
/home/build/bsp/optee_os/lib/libmbedtls/mbedtls/library/bignum.c:255 (discriminator 2)
    74b4:	d1000673 	sub	x19, x19, #0x1
    74b8:	b5ffff93 	cbnz	x19, 74a8 <mbedtls_mpi_copy+0x50>
/home/build/bsp/optee_os/lib/libmbedtls/mbedtls/library/bignum.c:262
    74bc:	b94002a0 	ldr	w0, [x21]
/home/build/bsp/optee_os/lib/libmbedtls/mbedtls/library/bignum.c:260
    74c0:	91000673 	add	x19, x19, #0x1
/home/build/bsp/optee_os/lib/libmbedtls/mbedtls/library/bignum.c:262
    74c4:	b9000280 	str	w0, [x20]
/home/build/bsp/optee_os/lib/libmbedtls/mbedtls/library/bignum.c:264
    74c8:	eb02027f 	cmp	x19, x2
    74cc:	54000129 	b.ls	74f0 <mbedtls_mpi_copy+0x98>  // b.plast
/home/build/bsp/optee_os/lib/libmbedtls/mbedtls/library/bignum.c:265
    74d0:	aa1303e1 	mov	x1, x19
    74d4:	aa1403e0 	mov	x0, x20
    74d8:	97ffff45 	bl	71ec <mbedtls_mpi_grow>
    74dc:	34000160 	cbz	w0, 7508 <mbedtls_mpi_copy+0xb0>
/home/build/bsp/optee_os/lib/libmbedtls/mbedtls/library/bignum.c:275
    74e0:	a94153f3 	ldp	x19, x20, [sp, #16]
    74e4:	f94013f5 	ldr	x21, [sp, #32]
    74e8:	a8c37bfd 	ldp	x29, x30, [sp], #48
    74ec:	d65f03c0 	ret
/home/build/bsp/optee_os/lib/libmbedtls/mbedtls/library/bignum.c:267
    74f0:	f9400a80 	ldr	x0, [x20, #16]
    74f4:	cb130042 	sub	x2, x2, x19
    74f8:	52800001 	mov	w1, #0x0                   	// #0
    74fc:	d37ef442 	lsl	x2, x2, #2
    7500:	8b130800 	add	x0, x0, x19, lsl #2
    7504:	94001679 	bl	cee8 <memset>
/home/build/bsp/optee_os/lib/libmbedtls/mbedtls/library/bignum.c:270
    7508:	f9400a80 	ldr	x0, [x20, #16]
    750c:	d37ef662 	lsl	x2, x19, #2
    7510:	f9400aa1 	ldr	x1, [x21, #16]
    7514:	97ffe2bb 	bl	0 <memcpy>
    7518:	17ffffe2 	b	74a0 <mbedtls_mpi_copy+0x48>
/home/build/bsp/optee_os/lib/libmbedtls/mbedtls/library/bignum.c:244
    751c:	52800000 	mov	w0, #0x0                   	// #0
/home/build/bsp/optee_os/lib/libmbedtls/mbedtls/library/bignum.c:275
    7520:	d65f03c0 	ret

0000000000007524 <mbedtls_mpi_swap>:
mbedtls_mpi_swap():
/home/build/bsp/optee_os/lib/libmbedtls/mbedtls/library/bignum.c:281
    7524:	a9ba7bfd 	stp	x29, x30, [sp, #-96]!
/home/build/bsp/optee_os/lib/libmbedtls/mbedtls/library/bignum.c:286
    7528:	d2800402 	mov	x2, #0x20                  	// #32
/home/build/bsp/optee_os/lib/libmbedtls/mbedtls/library/bignum.c:281
    752c:	910003fd 	mov	x29, sp
    7530:	a90153f3 	stp	x19, x20, [sp, #16]
    7534:	f0000053 	adrp	x19, 12000 <_DYNAMIC>
    7538:	aa0103f4 	mov	x20, x1
    753c:	a9025bf5 	stp	x21, x22, [sp, #32]
    7540:	aa0003f6 	mov	x22, x0
/home/build/bsp/optee_os/lib/libmbedtls/mbedtls/library/bignum.c:286
    7544:	9100e3f5 	add	x21, sp, #0x38
/home/build/bsp/optee_os/lib/libmbedtls/mbedtls/library/bignum.c:281
    7548:	f9409a60 	ldr	x0, [x19, #304]
    754c:	f9400001 	ldr	x1, [x0]
    7550:	f9002fe1 	str	x1, [sp, #88]
    7554:	d2800001 	mov	x1, #0x0                   	// #0
/home/build/bsp/optee_os/lib/libmbedtls/mbedtls/library/bignum.c:286
    7558:	aa1503e0 	mov	x0, x21
    755c:	aa1603e1 	mov	x1, x22
    7560:	97ffe2a8 	bl	0 <memcpy>
/home/build/bsp/optee_os/lib/libmbedtls/mbedtls/library/bignum.c:287
    7564:	aa1403e1 	mov	x1, x20
    7568:	d2800402 	mov	x2, #0x20                  	// #32
    756c:	aa1603e0 	mov	x0, x22
    7570:	97ffe2a4 	bl	0 <memcpy>
/home/build/bsp/optee_os/lib/libmbedtls/mbedtls/library/bignum.c:288
    7574:	aa1503e1 	mov	x1, x21
    7578:	aa1403e0 	mov	x0, x20
    757c:	d2800402 	mov	x2, #0x20                  	// #32
    7580:	97ffe2a0 	bl	0 <memcpy>
/home/build/bsp/optee_os/lib/libmbedtls/mbedtls/library/bignum.c:289
    7584:	f9409a73 	ldr	x19, [x19, #304]
    7588:	f9402fe0 	ldr	x0, [sp, #88]
    758c:	f9400261 	ldr	x1, [x19]
    7590:	eb010000 	subs	x0, x0, x1
    7594:	d2800001 	mov	x1, #0x0                   	// #0
    7598:	54000040 	b.eq	75a0 <mbedtls_mpi_swap+0x7c>  // b.none
    759c:	97ffe445 	bl	6b0 <__stack_chk_fail>
    75a0:	a94153f3 	ldp	x19, x20, [sp, #16]
    75a4:	a9425bf5 	ldp	x21, x22, [sp, #32]
    75a8:	a8c67bfd 	ldp	x29, x30, [sp], #96
    75ac:	d65f03c0 	ret

00000000000075b0 <mbedtls_mpi_lset>:
mbedtls_mpi_lset():
/home/build/bsp/optee_os/lib/libmbedtls/mbedtls/library/bignum.c:307
    75b0:	a9bd7bfd 	stp	x29, x30, [sp, #-48]!
    75b4:	910003fd 	mov	x29, sp
    75b8:	a90153f3 	stp	x19, x20, [sp, #16]
    75bc:	aa0003f4 	mov	x20, x0
    75c0:	2a0103f3 	mov	w19, w1
/home/build/bsp/optee_os/lib/libmbedtls/mbedtls/library/bignum.c:311
    75c4:	d2800021 	mov	x1, #0x1                   	// #1
/home/build/bsp/optee_os/lib/libmbedtls/mbedtls/library/bignum.c:307
    75c8:	f90013f5 	str	x21, [sp, #32]
/home/build/bsp/optee_os/lib/libmbedtls/mbedtls/library/bignum.c:311
    75cc:	97ffff08 	bl	71ec <mbedtls_mpi_grow>
    75d0:	2a0003f5 	mov	w21, w0
    75d4:	35000180 	cbnz	w0, 7604 <mbedtls_mpi_lset+0x54>
/home/build/bsp/optee_os/lib/libmbedtls/mbedtls/library/bignum.c:312
    75d8:	a9408282 	ldp	x2, x0, [x20, #8]
    75dc:	52800001 	mov	w1, #0x0                   	// #0
    75e0:	d37ef442 	lsl	x2, x2, #2
    75e4:	94001641 	bl	cee8 <memset>
/home/build/bsp/optee_os/lib/libmbedtls/mbedtls/library/bignum.c:314
    75e8:	f9400a80 	ldr	x0, [x20, #16]
mpi_sint_abs():
/home/build/bsp/optee_os/lib/libmbedtls/mbedtls/library/bignum.c:300
    75ec:	7100027f 	cmp	w19, #0x0
    75f0:	5a93a673 	cneg	w19, w19, lt  // lt = tstop
mbedtls_mpi_lset():
/home/build/bsp/optee_os/lib/libmbedtls/mbedtls/library/bignum.c:314
    75f4:	b9000013 	str	w19, [x0]
/home/build/bsp/optee_os/lib/libmbedtls/mbedtls/library/bignum.c:315
    75f8:	52800020 	mov	w0, #0x1                   	// #1
    75fc:	5a80a400 	cneg	w0, w0, lt  // lt = tstop
    7600:	b9000280 	str	w0, [x20]
/home/build/bsp/optee_os/lib/libmbedtls/mbedtls/library/bignum.c:320
    7604:	2a1503e0 	mov	w0, w21
    7608:	a94153f3 	ldp	x19, x20, [sp, #16]
    760c:	f94013f5 	ldr	x21, [sp, #32]
    7610:	a8c37bfd 	ldp	x29, x30, [sp], #48
    7614:	d65f03c0 	ret

0000000000007618 <mbedtls_mpi_get_bit>:
mbedtls_mpi_get_bit():
/home/build/bsp/optee_os/lib/libmbedtls/mbedtls/library/bignum.c:329
    7618:	f9400402 	ldr	x2, [x0, #8]
    761c:	eb02143f 	cmp	x1, x2, lsl #5
    7620:	540000e2 	b.cs	763c <mbedtls_mpi_get_bit+0x24>  // b.hs, b.nlast
/home/build/bsp/optee_os/lib/libmbedtls/mbedtls/library/bignum.c:333
    7624:	f9400800 	ldr	x0, [x0, #16]
    7628:	d345fc22 	lsr	x2, x1, #5
    762c:	b8627800 	ldr	w0, [x0, x2, lsl #2]
    7630:	1ac12400 	lsr	w0, w0, w1
    7634:	12000000 	and	w0, w0, #0x1
/home/build/bsp/optee_os/lib/libmbedtls/mbedtls/library/bignum.c:334
    7638:	d65f03c0 	ret
/home/build/bsp/optee_os/lib/libmbedtls/mbedtls/library/bignum.c:330
    763c:	52800000 	mov	w0, #0x0                   	// #0
    7640:	17fffffe 	b	7638 <mbedtls_mpi_get_bit+0x20>

0000000000007644 <mbedtls_mpi_set_bit>:
mbedtls_mpi_set_bit():
/home/build/bsp/optee_os/lib/libmbedtls/mbedtls/library/bignum.c:340
    7644:	a9bd7bfd 	stp	x29, x30, [sp, #-48]!
    7648:	910003fd 	mov	x29, sp
    764c:	a90153f3 	stp	x19, x20, [sp, #16]
    7650:	a9025bf5 	stp	x21, x22, [sp, #32]
    7654:	12001c55 	and	w21, w2, #0xff
/home/build/bsp/optee_os/lib/libmbedtls/mbedtls/library/bignum.c:346
    7658:	710006bf 	cmp	w21, #0x1
    765c:	54000368 	b.hi	76c8 <mbedtls_mpi_set_bit+0x84>  // b.pmore
    7660:	aa0103f3 	mov	x19, x1
    7664:	d345fc34 	lsr	x20, x1, #5
/home/build/bsp/optee_os/lib/libmbedtls/mbedtls/library/bignum.c:350
    7668:	f9400401 	ldr	x1, [x0, #8]
    766c:	aa0003f6 	mov	x22, x0
    7670:	eb01167f 	cmp	x19, x1, lsl #5
    7674:	540001a2 	b.cs	76a8 <mbedtls_mpi_set_bit+0x64>  // b.hs, b.nlast
/home/build/bsp/optee_os/lib/libmbedtls/mbedtls/library/bignum.c:358
    7678:	f9400ac1 	ldr	x1, [x22, #16]
    767c:	d37ef694 	lsl	x20, x20, #2
/home/build/bsp/optee_os/lib/libmbedtls/mbedtls/library/bignum.c:343
    7680:	92401273 	and	x19, x19, #0x1f
/home/build/bsp/optee_os/lib/libmbedtls/mbedtls/library/bignum.c:358
    7684:	52800020 	mov	w0, #0x1                   	// #1
    7688:	b8746822 	ldr	w2, [x1, x20]
    768c:	1ad32000 	lsl	w0, w0, w19
/home/build/bsp/optee_os/lib/libmbedtls/mbedtls/library/bignum.c:359
    7690:	1ad322b5 	lsl	w21, w21, w19
/home/build/bsp/optee_os/lib/libmbedtls/mbedtls/library/bignum.c:358
    7694:	0a200040 	bic	w0, w2, w0
/home/build/bsp/optee_os/lib/libmbedtls/mbedtls/library/bignum.c:359
    7698:	2a150000 	orr	w0, w0, w21
    769c:	b8346820 	str	w0, [x1, x20]
/home/build/bsp/optee_os/lib/libmbedtls/mbedtls/library/bignum.c:352
    76a0:	52800000 	mov	w0, #0x0                   	// #0
    76a4:	14000005 	b	76b8 <mbedtls_mpi_set_bit+0x74>
/home/build/bsp/optee_os/lib/libmbedtls/mbedtls/library/bignum.c:351
    76a8:	34ffffd5 	cbz	w21, 76a0 <mbedtls_mpi_set_bit+0x5c>
/home/build/bsp/optee_os/lib/libmbedtls/mbedtls/library/bignum.c:355
    76ac:	91000681 	add	x1, x20, #0x1
    76b0:	97fffecf 	bl	71ec <mbedtls_mpi_grow>
    76b4:	34fffe20 	cbz	w0, 7678 <mbedtls_mpi_set_bit+0x34>
/home/build/bsp/optee_os/lib/libmbedtls/mbedtls/library/bignum.c:364
    76b8:	a94153f3 	ldp	x19, x20, [sp, #16]
    76bc:	a9425bf5 	ldp	x21, x22, [sp, #32]
    76c0:	a8c37bfd 	ldp	x29, x30, [sp], #48
    76c4:	d65f03c0 	ret
/home/build/bsp/optee_os/lib/libmbedtls/mbedtls/library/bignum.c:347
    76c8:	12800060 	mov	w0, #0xfffffffc            	// #-4
    76cc:	17fffffb 	b	76b8 <mbedtls_mpi_set_bit+0x74>

00000000000076d0 <mbedtls_mpi_lsb>:
mbedtls_mpi_lsb():
/home/build/bsp/optee_os/lib/libmbedtls/mbedtls/library/bignum.c:374
    76d0:	f9400405 	ldr	x5, [x0, #8]
/home/build/bsp/optee_os/lib/libmbedtls/mbedtls/library/bignum.c:370
    76d4:	aa0003e3 	mov	x3, x0
/home/build/bsp/optee_os/lib/libmbedtls/mbedtls/library/bignum.c:371
    76d8:	d2800004 	mov	x4, #0x0                   	// #0
/home/build/bsp/optee_os/lib/libmbedtls/mbedtls/library/bignum.c:374
    76dc:	d2800002 	mov	x2, #0x0                   	// #0
/home/build/bsp/optee_os/lib/libmbedtls/mbedtls/library/bignum.c:374 (discriminator 1)
    76e0:	eb0200bf 	cmp	x5, x2
    76e4:	54000061 	b.ne	76f0 <mbedtls_mpi_lsb+0x20>  // b.any
/home/build/bsp/optee_os/lib/libmbedtls/mbedtls/library/bignum.c:382
    76e8:	d2800000 	mov	x0, #0x0                   	// #0
/home/build/bsp/optee_os/lib/libmbedtls/mbedtls/library/bignum.c:383
    76ec:	d65f03c0 	ret
/home/build/bsp/optee_os/lib/libmbedtls/mbedtls/library/bignum.c:376
    76f0:	f9400860 	ldr	x0, [x3, #16]
/home/build/bsp/optee_os/lib/libmbedtls/mbedtls/library/bignum.c:375
    76f4:	d2800001 	mov	x1, #0x0                   	// #0
/home/build/bsp/optee_os/lib/libmbedtls/mbedtls/library/bignum.c:376
    76f8:	b8627806 	ldr	w6, [x0, x2, lsl #2]
    76fc:	8b010080 	add	x0, x4, x1
    7700:	1ac124c7 	lsr	w7, w6, w1
    7704:	3707ff47 	tbnz	w7, #0, 76ec <mbedtls_mpi_lsb+0x1c>
/home/build/bsp/optee_os/lib/libmbedtls/mbedtls/library/bignum.c:375 (discriminator 2)
    7708:	91000421 	add	x1, x1, #0x1
    770c:	8b010080 	add	x0, x4, x1
    7710:	f100803f 	cmp	x1, #0x20
    7714:	54ffff41 	b.ne	76fc <mbedtls_mpi_lsb+0x2c>  // b.any
/home/build/bsp/optee_os/lib/libmbedtls/mbedtls/library/bignum.c:374 (discriminator 2)
    7718:	91000442 	add	x2, x2, #0x1
/home/build/bsp/optee_os/lib/libmbedtls/mbedtls/library/bignum.c:375 (discriminator 2)
    771c:	aa0003e4 	mov	x4, x0
    7720:	17fffff0 	b	76e0 <mbedtls_mpi_lsb+0x10>

0000000000007724 <mbedtls_mpi_bitlen>:
mbedtls_mpi_bitlen():
/home/build/bsp/optee_os/lib/libmbedtls/mbedtls/library/bignum.c:390
    7724:	a9408001 	ldp	x1, x0, [x0, #8]
    7728:	14000be0 	b	a6a8 <mbedtls_mpi_core_bitlen>

000000000000772c <mbedtls_mpi_size>:
mbedtls_mpi_size():
/home/build/bsp/optee_os/lib/libmbedtls/mbedtls/library/bignum.c:397
    772c:	a9bf7bfd 	stp	x29, x30, [sp, #-16]!
    7730:	910003fd 	mov	x29, sp
/home/build/bsp/optee_os/lib/libmbedtls/mbedtls/library/bignum.c:398
    7734:	97fffffc 	bl	7724 <mbedtls_mpi_bitlen>
    7738:	91001c00 	add	x0, x0, #0x7
/home/build/bsp/optee_os/lib/libmbedtls/mbedtls/library/bignum.c:399
    773c:	a8c17bfd 	ldp	x29, x30, [sp], #16
    7740:	d343fc00 	lsr	x0, x0, #3
    7744:	d65f03c0 	ret

0000000000007748 <mbedtls_mpi_read_binary_le>:
mbedtls_mpi_read_binary_le():
/home/build/bsp/optee_os/lib/libmbedtls/mbedtls/library/bignum.c:719
    7748:	a9bd7bfd 	stp	x29, x30, [sp, #-48]!
/home/build/bsp/optee_os/lib/libmbedtls/mbedtls/library/bignum.c:721
    774c:	f240045f 	tst	x2, #0x3
/home/build/bsp/optee_os/lib/libmbedtls/mbedtls/library/bignum.c:719
    7750:	910003fd 	mov	x29, sp
    7754:	f90013f5 	str	x21, [sp, #32]
    7758:	aa0103f5 	mov	x21, x1
/home/build/bsp/optee_os/lib/libmbedtls/mbedtls/library/bignum.c:721
    775c:	d342fc41 	lsr	x1, x2, #2
/home/build/bsp/optee_os/lib/libmbedtls/mbedtls/library/bignum.c:719
    7760:	a90153f3 	stp	x19, x20, [sp, #16]
/home/build/bsp/optee_os/lib/libmbedtls/mbedtls/library/bignum.c:724
    7764:	9a810421 	cinc	x1, x1, ne  // ne = any
/home/build/bsp/optee_os/lib/libmbedtls/mbedtls/library/bignum.c:719
    7768:	aa0003f4 	mov	x20, x0
    776c:	aa0203f3 	mov	x19, x2
/home/build/bsp/optee_os/lib/libmbedtls/mbedtls/library/bignum.c:724
    7770:	97fffed9 	bl	72d4 <mbedtls_mpi_resize_clear>
    7774:	35000100 	cbnz	w0, 7794 <mbedtls_mpi_read_binary_le+0x4c>
/home/build/bsp/optee_os/lib/libmbedtls/mbedtls/library/bignum.c:726 (discriminator 2)
    7778:	aa1303e3 	mov	x3, x19
    777c:	aa1503e2 	mov	x2, x21
    7780:	a9408281 	ldp	x1, x0, [x20, #8]
/home/build/bsp/optee_os/lib/libmbedtls/mbedtls/library/bignum.c:736 (discriminator 2)
    7784:	a94153f3 	ldp	x19, x20, [sp, #16]
    7788:	f94013f5 	ldr	x21, [sp, #32]
    778c:	a8c37bfd 	ldp	x29, x30, [sp], #48
/home/build/bsp/optee_os/lib/libmbedtls/mbedtls/library/bignum.c:726 (discriminator 2)
    7790:	14000c29 	b	a834 <mbedtls_mpi_core_read_le>
/home/build/bsp/optee_os/lib/libmbedtls/mbedtls/library/bignum.c:736
    7794:	a94153f3 	ldp	x19, x20, [sp, #16]
    7798:	f94013f5 	ldr	x21, [sp, #32]
    779c:	a8c37bfd 	ldp	x29, x30, [sp], #48
    77a0:	d65f03c0 	ret

00000000000077a4 <mbedtls_mpi_read_binary>:
mbedtls_mpi_read_binary():
/home/build/bsp/optee_os/lib/libmbedtls/mbedtls/library/bignum.c:745
    77a4:	a9bd7bfd 	stp	x29, x30, [sp, #-48]!
/home/build/bsp/optee_os/lib/libmbedtls/mbedtls/library/bignum.c:747
    77a8:	f240045f 	tst	x2, #0x3
/home/build/bsp/optee_os/lib/libmbedtls/mbedtls/library/bignum.c:745
    77ac:	910003fd 	mov	x29, sp
    77b0:	f90013f5 	str	x21, [sp, #32]
    77b4:	aa0103f5 	mov	x21, x1
/home/build/bsp/optee_os/lib/libmbedtls/mbedtls/library/bignum.c:747
    77b8:	d342fc41 	lsr	x1, x2, #2
/home/build/bsp/optee_os/lib/libmbedtls/mbedtls/library/bignum.c:745
    77bc:	a90153f3 	stp	x19, x20, [sp, #16]
/home/build/bsp/optee_os/lib/libmbedtls/mbedtls/library/bignum.c:753
    77c0:	9a810421 	cinc	x1, x1, ne  // ne = any
/home/build/bsp/optee_os/lib/libmbedtls/mbedtls/library/bignum.c:745
    77c4:	aa0003f4 	mov	x20, x0
    77c8:	aa0203f3 	mov	x19, x2
/home/build/bsp/optee_os/lib/libmbedtls/mbedtls/library/bignum.c:753
    77cc:	97fffec2 	bl	72d4 <mbedtls_mpi_resize_clear>
    77d0:	35000100 	cbnz	w0, 77f0 <mbedtls_mpi_read_binary+0x4c>
/home/build/bsp/optee_os/lib/libmbedtls/mbedtls/library/bignum.c:755 (discriminator 2)
    77d4:	aa1303e3 	mov	x3, x19
    77d8:	aa1503e2 	mov	x2, x21
    77dc:	a9408281 	ldp	x1, x0, [x20, #8]
/home/build/bsp/optee_os/lib/libmbedtls/mbedtls/library/bignum.c:765 (discriminator 2)
    77e0:	a94153f3 	ldp	x19, x20, [sp, #16]
    77e4:	f94013f5 	ldr	x21, [sp, #32]
    77e8:	a8c37bfd 	ldp	x29, x30, [sp], #48
/home/build/bsp/optee_os/lib/libmbedtls/mbedtls/library/bignum.c:755 (discriminator 2)
    77ec:	14000c35 	b	a8c0 <mbedtls_mpi_core_read_be>
/home/build/bsp/optee_os/lib/libmbedtls/mbedtls/library/bignum.c:765
    77f0:	a94153f3 	ldp	x19, x20, [sp, #16]
    77f4:	f94013f5 	ldr	x21, [sp, #32]
    77f8:	a8c37bfd 	ldp	x29, x30, [sp], #48
    77fc:	d65f03c0 	ret

0000000000007800 <mbedtls_mpi_write_binary_le>:
mbedtls_mpi_write_binary_le():
/home/build/bsp/optee_os/lib/libmbedtls/mbedtls/library/bignum.c:773
    7800:	aa0203e3 	mov	x3, x2
    7804:	aa0103e2 	mov	x2, x1
    7808:	a9408001 	ldp	x1, x0, [x0, #8]
    780c:	14000c51 	b	a950 <mbedtls_mpi_core_write_le>

0000000000007810 <mbedtls_mpi_write_binary>:
mbedtls_mpi_write_binary():
/home/build/bsp/optee_os/lib/libmbedtls/mbedtls/library/bignum.c:782
    7810:	aa0203e3 	mov	x3, x2
    7814:	aa0103e2 	mov	x2, x1
    7818:	a9408001 	ldp	x1, x0, [x0, #8]
    781c:	14000c78 	b	a9fc <mbedtls_mpi_core_write_be>

0000000000007820 <mbedtls_mpi_shift_l>:
mbedtls_mpi_shift_l():
/home/build/bsp/optee_os/lib/libmbedtls/mbedtls/library/bignum.c:789
    7820:	a9bd7bfd 	stp	x29, x30, [sp, #-48]!
    7824:	910003fd 	mov	x29, sp
    7828:	a90153f3 	stp	x19, x20, [sp, #16]
    782c:	aa0003f3 	mov	x19, x0
/home/build/bsp/optee_os/lib/libmbedtls/mbedtls/library/bignum.c:795
    7830:	d345fc34 	lsr	x20, x1, #5
/home/build/bsp/optee_os/lib/libmbedtls/mbedtls/library/bignum.c:789
    7834:	a9025bf5 	stp	x21, x22, [sp, #32]
    7838:	aa0103f5 	mov	x21, x1
/home/build/bsp/optee_os/lib/libmbedtls/mbedtls/library/bignum.c:796
    783c:	92401036 	and	x22, x1, #0x1f
/home/build/bsp/optee_os/lib/libmbedtls/mbedtls/library/bignum.c:798
    7840:	97ffffb9 	bl	7724 <mbedtls_mpi_bitlen>
    7844:	8b150000 	add	x0, x0, x21
/home/build/bsp/optee_os/lib/libmbedtls/mbedtls/library/bignum.c:800
    7848:	f9400661 	ldr	x1, [x19, #8]
    784c:	eb01141f 	cmp	x0, x1, lsl #5
    7850:	540000c8 	b.hi	7868 <mbedtls_mpi_shift_l+0x48>  // b.pmore
/home/build/bsp/optee_os/lib/libmbedtls/mbedtls/library/bignum.c:809
    7854:	f1007ebf 	cmp	x21, #0x1f
    7858:	540001c8 	b.hi	7890 <mbedtls_mpi_shift_l+0x70>  // b.pmore
/home/build/bsp/optee_os/lib/libmbedtls/mbedtls/library/bignum.c:822
    785c:	b50004d6 	cbnz	x22, 78f4 <mbedtls_mpi_shift_l+0xd4>
/home/build/bsp/optee_os/lib/libmbedtls/mbedtls/library/bignum.c:804
    7860:	52800000 	mov	w0, #0x0                   	// #0
    7864:	14000007 	b	7880 <mbedtls_mpi_shift_l+0x60>
/home/build/bsp/optee_os/lib/libmbedtls/mbedtls/library/bignum.c:801
    7868:	f240101f 	tst	x0, #0x1f
    786c:	d345fc00 	lsr	x0, x0, #5
    7870:	9a800401 	cinc	x1, x0, ne  // ne = any
    7874:	aa1303e0 	mov	x0, x19
    7878:	97fffe5d 	bl	71ec <mbedtls_mpi_grow>
    787c:	34fffec0 	cbz	w0, 7854 <mbedtls_mpi_shift_l+0x34>
/home/build/bsp/optee_os/lib/libmbedtls/mbedtls/library/bignum.c:834
    7880:	a94153f3 	ldp	x19, x20, [sp, #16]
    7884:	a9425bf5 	ldp	x21, x22, [sp, #32]
    7888:	a8c37bfd 	ldp	x29, x30, [sp], #48
    788c:	d65f03c0 	ret
/home/build/bsp/optee_os/lib/libmbedtls/mbedtls/library/bignum.c:810
    7890:	f9400661 	ldr	x1, [x19, #8]
    7894:	92800063 	mov	x3, #0xfffffffffffffffc    	// #-4
    7898:	9b037e83 	mul	x3, x20, x3
    789c:	aa0103e2 	mov	x2, x1
    78a0:	d37ef420 	lsl	x0, x1, #2
    78a4:	d1001000 	sub	x0, x0, #0x4
/home/build/bsp/optee_os/lib/libmbedtls/mbedtls/library/bignum.c:810 (discriminator 1)
    78a8:	eb14005f 	cmp	x2, x20
    78ac:	54000168 	b.hi	78d8 <mbedtls_mpi_shift_l+0xb8>  // b.pmore
    78b0:	eb010280 	subs	x0, x20, x1
    78b4:	9a9f9000 	csel	x0, x0, xzr, ls  // ls = plast
    78b8:	8b000021 	add	x1, x1, x0
    78bc:	d37ef421 	lsl	x1, x1, #2
/home/build/bsp/optee_os/lib/libmbedtls/mbedtls/library/bignum.c:814 (discriminator 2)
    78c0:	d1001021 	sub	x1, x1, #0x4
    78c4:	b100103f 	cmn	x1, #0x4
    78c8:	54fffca0 	b.eq	785c <mbedtls_mpi_shift_l+0x3c>  // b.none
/home/build/bsp/optee_os/lib/libmbedtls/mbedtls/library/bignum.c:815 (discriminator 2)
    78cc:	f9400a60 	ldr	x0, [x19, #16]
    78d0:	b821681f 	str	wzr, [x0, x1]
    78d4:	17fffffb 	b	78c0 <mbedtls_mpi_shift_l+0xa0>
/home/build/bsp/optee_os/lib/libmbedtls/mbedtls/library/bignum.c:811 (discriminator 3)
    78d8:	f9400a64 	ldr	x4, [x19, #16]
/home/build/bsp/optee_os/lib/libmbedtls/mbedtls/library/bignum.c:810 (discriminator 3)
    78dc:	d1000442 	sub	x2, x2, #0x1
/home/build/bsp/optee_os/lib/libmbedtls/mbedtls/library/bignum.c:811 (discriminator 3)
    78e0:	8b030085 	add	x5, x4, x3
    78e4:	b86068a5 	ldr	w5, [x5, x0]
    78e8:	b8206885 	str	w5, [x4, x0]
/home/build/bsp/optee_os/lib/libmbedtls/mbedtls/library/bignum.c:810 (discriminator 3)
    78ec:	d1001000 	sub	x0, x0, #0x4
    78f0:	17ffffee 	b	78a8 <mbedtls_mpi_shift_l+0x88>
/home/build/bsp/optee_os/lib/libmbedtls/mbedtls/library/bignum.c:823
    78f4:	f9400666 	ldr	x6, [x19, #8]
/home/build/bsp/optee_os/lib/libmbedtls/mbedtls/library/bignum.c:824
    78f8:	52800400 	mov	w0, #0x20                  	// #32
    78fc:	4b160000 	sub	w0, w0, w22
/home/build/bsp/optee_os/lib/libmbedtls/mbedtls/library/bignum.c:792
    7900:	52800002 	mov	w2, #0x0                   	// #0
/home/build/bsp/optee_os/lib/libmbedtls/mbedtls/library/bignum.c:823 (discriminator 1)
    7904:	eb1400df 	cmp	x6, x20
    7908:	54fffac9 	b.ls	7860 <mbedtls_mpi_shift_l+0x40>  // b.plast
/home/build/bsp/optee_os/lib/libmbedtls/mbedtls/library/bignum.c:824 (discriminator 3)
    790c:	f9400a65 	ldr	x5, [x19, #16]
    7910:	d37ef684 	lsl	x4, x20, #2
/home/build/bsp/optee_os/lib/libmbedtls/mbedtls/library/bignum.c:823 (discriminator 3)
    7914:	91000694 	add	x20, x20, #0x1
/home/build/bsp/optee_os/lib/libmbedtls/mbedtls/library/bignum.c:824 (discriminator 3)
    7918:	b86468a3 	ldr	w3, [x5, x4]
/home/build/bsp/optee_os/lib/libmbedtls/mbedtls/library/bignum.c:825 (discriminator 3)
    791c:	1ad62061 	lsl	w1, w3, w22
/home/build/bsp/optee_os/lib/libmbedtls/mbedtls/library/bignum.c:826 (discriminator 3)
    7920:	2a020021 	orr	w1, w1, w2
/home/build/bsp/optee_os/lib/libmbedtls/mbedtls/library/bignum.c:827 (discriminator 3)
    7924:	1ac02462 	lsr	w2, w3, w0
/home/build/bsp/optee_os/lib/libmbedtls/mbedtls/library/bignum.c:826 (discriminator 3)
    7928:	b82468a1 	str	w1, [x5, x4]
/home/build/bsp/optee_os/lib/libmbedtls/mbedtls/library/bignum.c:823 (discriminator 3)
    792c:	17fffff6 	b	7904 <mbedtls_mpi_shift_l+0xe4>

0000000000007930 <mbedtls_mpi_shift_r>:
mbedtls_mpi_shift_r():
/home/build/bsp/optee_os/lib/libmbedtls/mbedtls/library/bignum.c:840
    7930:	aa0103e2 	mov	x2, x1
/home/build/bsp/optee_os/lib/libmbedtls/mbedtls/library/bignum.c:842
    7934:	f9400401 	ldr	x1, [x0, #8]
    7938:	b4000101 	cbz	x1, 7958 <mbedtls_mpi_shift_r+0x28>
/home/build/bsp/optee_os/lib/libmbedtls/mbedtls/library/bignum.c:840
    793c:	a9bf7bfd 	stp	x29, x30, [sp, #-16]!
    7940:	910003fd 	mov	x29, sp
/home/build/bsp/optee_os/lib/libmbedtls/mbedtls/library/bignum.c:843
    7944:	f9400800 	ldr	x0, [x0, #16]
    7948:	94000c5b 	bl	aab4 <mbedtls_mpi_core_shift_r>
/home/build/bsp/optee_os/lib/libmbedtls/mbedtls/library/bignum.c:846
    794c:	52800000 	mov	w0, #0x0                   	// #0
    7950:	a8c17bfd 	ldp	x29, x30, [sp], #16
    7954:	d65f03c0 	ret
    7958:	52800000 	mov	w0, #0x0                   	// #0
    795c:	d65f03c0 	ret

0000000000007960 <mbedtls_mpi_cmp_abs>:
mbedtls_mpi_cmp_abs():
/home/build/bsp/optee_os/lib/libmbedtls/mbedtls/library/bignum.c:857
    7960:	f9400402 	ldr	x2, [x0, #8]
/home/build/bsp/optee_os/lib/libmbedtls/mbedtls/library/bignum.c:857 (discriminator 1)
    7964:	b50000c2 	cbnz	x2, 797c <mbedtls_mpi_cmp_abs+0x1c>
/home/build/bsp/optee_os/lib/libmbedtls/mbedtls/library/bignum.c:863
    7968:	f9400423 	ldr	x3, [x1, #8]
/home/build/bsp/optee_os/lib/libmbedtls/mbedtls/library/bignum.c:863 (discriminator 1)
    796c:	b5000143 	cbnz	x3, 7994 <mbedtls_mpi_cmp_abs+0x34>
/home/build/bsp/optee_os/lib/libmbedtls/mbedtls/library/bignum.c:869
    7970:	f100005f 	cmp	x2, #0x0
    7974:	1a9f07e0 	cset	w0, ne  // ne = any
/home/build/bsp/optee_os/lib/libmbedtls/mbedtls/library/bignum.c:890
    7978:	d65f03c0 	ret
/home/build/bsp/optee_os/lib/libmbedtls/mbedtls/library/bignum.c:858
    797c:	f9400803 	ldr	x3, [x0, #16]
    7980:	8b020863 	add	x3, x3, x2, lsl #2
    7984:	b85fc063 	ldur	w3, [x3, #-4]
    7988:	35ffff03 	cbnz	w3, 7968 <mbedtls_mpi_cmp_abs+0x8>
/home/build/bsp/optee_os/lib/libmbedtls/mbedtls/library/bignum.c:857 (discriminator 2)
    798c:	d1000442 	sub	x2, x2, #0x1
    7990:	17fffff5 	b	7964 <mbedtls_mpi_cmp_abs+0x4>
/home/build/bsp/optee_os/lib/libmbedtls/mbedtls/library/bignum.c:864
    7994:	f9400824 	ldr	x4, [x1, #16]
    7998:	8b030885 	add	x5, x4, x3, lsl #2
    799c:	b85fc0a5 	ldur	w5, [x5, #-4]
    79a0:	35000065 	cbnz	w5, 79ac <mbedtls_mpi_cmp_abs+0x4c>
/home/build/bsp/optee_os/lib/libmbedtls/mbedtls/library/bignum.c:863 (discriminator 2)
    79a4:	d1000463 	sub	x3, x3, #0x1
    79a8:	17fffff1 	b	796c <mbedtls_mpi_cmp_abs+0xc>
/home/build/bsp/optee_os/lib/libmbedtls/mbedtls/library/bignum.c:873
    79ac:	eb03005f 	cmp	x2, x3
    79b0:	54000228 	b.hi	79f4 <mbedtls_mpi_cmp_abs+0x94>  // b.pmore
/home/build/bsp/optee_os/lib/libmbedtls/mbedtls/library/bignum.c:876
    79b4:	540001c3 	b.cc	79ec <mbedtls_mpi_cmp_abs+0x8c>  // b.lo, b.ul, b.last
    79b8:	d1000442 	sub	x2, x2, #0x1
/home/build/bsp/optee_os/lib/libmbedtls/mbedtls/library/bignum.c:880 (discriminator 1)
    79bc:	b100045f 	cmn	x2, #0x1
    79c0:	54000061 	b.ne	79cc <mbedtls_mpi_cmp_abs+0x6c>  // b.any
/home/build/bsp/optee_os/lib/libmbedtls/mbedtls/library/bignum.c:870
    79c4:	52800000 	mov	w0, #0x0                   	// #0
    79c8:	17ffffec 	b	7978 <mbedtls_mpi_cmp_abs+0x18>
/home/build/bsp/optee_os/lib/libmbedtls/mbedtls/library/bignum.c:881
    79cc:	f9400803 	ldr	x3, [x0, #16]
    79d0:	d37ef441 	lsl	x1, x2, #2
    79d4:	b8616863 	ldr	w3, [x3, x1]
    79d8:	b8616881 	ldr	w1, [x4, x1]
    79dc:	6b01007f 	cmp	w3, w1
    79e0:	540000a8 	b.hi	79f4 <mbedtls_mpi_cmp_abs+0x94>  // b.pmore
/home/build/bsp/optee_os/lib/libmbedtls/mbedtls/library/bignum.c:884
    79e4:	d1000442 	sub	x2, x2, #0x1
    79e8:	54fffea2 	b.cs	79bc <mbedtls_mpi_cmp_abs+0x5c>  // b.hs, b.nlast
/home/build/bsp/optee_os/lib/libmbedtls/mbedtls/library/bignum.c:877
    79ec:	12800000 	mov	w0, #0xffffffff            	// #-1
    79f0:	17ffffe2 	b	7978 <mbedtls_mpi_cmp_abs+0x18>
/home/build/bsp/optee_os/lib/libmbedtls/mbedtls/library/bignum.c:874
    79f4:	52800020 	mov	w0, #0x1                   	// #1
    79f8:	17ffffe0 	b	7978 <mbedtls_mpi_cmp_abs+0x18>

00000000000079fc <mbedtls_mpi_cmp_mpi>:
mbedtls_mpi_cmp_mpi():
/home/build/bsp/optee_os/lib/libmbedtls/mbedtls/library/bignum.c:901
    79fc:	f9400402 	ldr	x2, [x0, #8]
/home/build/bsp/optee_os/lib/libmbedtls/mbedtls/library/bignum.c:896
    7a00:	aa0003e3 	mov	x3, x0
/home/build/bsp/optee_os/lib/libmbedtls/mbedtls/library/bignum.c:901 (discriminator 1)
    7a04:	b50000c2 	cbnz	x2, 7a1c <mbedtls_mpi_cmp_mpi+0x20>
/home/build/bsp/optee_os/lib/libmbedtls/mbedtls/library/bignum.c:907
    7a08:	f9400420 	ldr	x0, [x1, #8]
/home/build/bsp/optee_os/lib/libmbedtls/mbedtls/library/bignum.c:907 (discriminator 1)
    7a0c:	b5000140 	cbnz	x0, 7a34 <mbedtls_mpi_cmp_mpi+0x38>
/home/build/bsp/optee_os/lib/libmbedtls/mbedtls/library/bignum.c:913
    7a10:	b40005a2 	cbz	x2, 7ac4 <mbedtls_mpi_cmp_mpi+0xc8>
/home/build/bsp/optee_os/lib/libmbedtls/mbedtls/library/bignum.c:918
    7a14:	b9400060 	ldr	w0, [x3]
/home/build/bsp/optee_os/lib/libmbedtls/mbedtls/library/bignum.c:941
    7a18:	d65f03c0 	ret
/home/build/bsp/optee_os/lib/libmbedtls/mbedtls/library/bignum.c:902
    7a1c:	f9400860 	ldr	x0, [x3, #16]
    7a20:	8b020800 	add	x0, x0, x2, lsl #2
    7a24:	b85fc000 	ldur	w0, [x0, #-4]
    7a28:	35ffff00 	cbnz	w0, 7a08 <mbedtls_mpi_cmp_mpi+0xc>
/home/build/bsp/optee_os/lib/libmbedtls/mbedtls/library/bignum.c:901 (discriminator 2)
    7a2c:	d1000442 	sub	x2, x2, #0x1
    7a30:	17fffff5 	b	7a04 <mbedtls_mpi_cmp_mpi+0x8>
/home/build/bsp/optee_os/lib/libmbedtls/mbedtls/library/bignum.c:908
    7a34:	f9400824 	ldr	x4, [x1, #16]
    7a38:	8b000885 	add	x5, x4, x0, lsl #2
    7a3c:	b85fc0a5 	ldur	w5, [x5, #-4]
    7a40:	35000065 	cbnz	w5, 7a4c <mbedtls_mpi_cmp_mpi+0x50>
/home/build/bsp/optee_os/lib/libmbedtls/mbedtls/library/bignum.c:907 (discriminator 2)
    7a44:	d1000400 	sub	x0, x0, #0x1
    7a48:	17fffff1 	b	7a0c <mbedtls_mpi_cmp_mpi+0x10>
/home/build/bsp/optee_os/lib/libmbedtls/mbedtls/library/bignum.c:917
    7a4c:	eb00005f 	cmp	x2, x0
    7a50:	54fffe28 	b.hi	7a14 <mbedtls_mpi_cmp_mpi+0x18>  // b.pmore
/home/build/bsp/optee_os/lib/libmbedtls/mbedtls/library/bignum.c:921
    7a54:	b9400021 	ldr	w1, [x1]
/home/build/bsp/optee_os/lib/libmbedtls/mbedtls/library/bignum.c:920
    7a58:	54000062 	b.cs	7a64 <mbedtls_mpi_cmp_mpi+0x68>  // b.hs, b.nlast
/home/build/bsp/optee_os/lib/libmbedtls/mbedtls/library/bignum.c:921
    7a5c:	4b0103e0 	neg	w0, w1
    7a60:	17ffffee 	b	7a18 <mbedtls_mpi_cmp_mpi+0x1c>
/home/build/bsp/optee_os/lib/libmbedtls/mbedtls/library/bignum.c:924
    7a64:	b9400060 	ldr	w0, [x3]
    7a68:	7100001f 	cmp	w0, #0x0
    7a6c:	5400008d 	b.le	7a7c <mbedtls_mpi_cmp_mpi+0x80>
/home/build/bsp/optee_os/lib/libmbedtls/mbedtls/library/bignum.c:924 (discriminator 1)
    7a70:	36f80241 	tbz	w1, #31, 7ab8 <mbedtls_mpi_cmp_mpi+0xbc>
/home/build/bsp/optee_os/lib/libmbedtls/mbedtls/library/bignum.c:925
    7a74:	52800020 	mov	w0, #0x1                   	// #1
    7a78:	17ffffe8 	b	7a18 <mbedtls_mpi_cmp_mpi+0x1c>
/home/build/bsp/optee_os/lib/libmbedtls/mbedtls/library/bignum.c:927
    7a7c:	7100003f 	cmp	w1, #0x0
    7a80:	540001cd 	b.le	7ab8 <mbedtls_mpi_cmp_mpi+0xbc>
/home/build/bsp/optee_os/lib/libmbedtls/mbedtls/library/bignum.c:927 (discriminator 1)
    7a84:	340001a0 	cbz	w0, 7ab8 <mbedtls_mpi_cmp_mpi+0xbc>
/home/build/bsp/optee_os/lib/libmbedtls/mbedtls/library/bignum.c:928
    7a88:	12800000 	mov	w0, #0xffffffff            	// #-1
    7a8c:	17ffffe3 	b	7a18 <mbedtls_mpi_cmp_mpi+0x1c>
/home/build/bsp/optee_os/lib/libmbedtls/mbedtls/library/bignum.c:932
    7a90:	f9400865 	ldr	x5, [x3, #16]
    7a94:	d37ef441 	lsl	x1, x2, #2
    7a98:	b86168a5 	ldr	w5, [x5, x1]
    7a9c:	b8616881 	ldr	w1, [x4, x1]
    7aa0:	6b0100bf 	cmp	w5, w1
    7aa4:	54fffba8 	b.hi	7a18 <mbedtls_mpi_cmp_mpi+0x1c>  // b.pmore
/home/build/bsp/optee_os/lib/libmbedtls/mbedtls/library/bignum.c:935
    7aa8:	d1000442 	sub	x2, x2, #0x1
    7aac:	54000082 	b.cs	7abc <mbedtls_mpi_cmp_mpi+0xc0>  // b.hs, b.nlast
/home/build/bsp/optee_os/lib/libmbedtls/mbedtls/library/bignum.c:936
    7ab0:	4b0003e0 	neg	w0, w0
    7ab4:	17ffffd9 	b	7a18 <mbedtls_mpi_cmp_mpi+0x1c>
    7ab8:	d1000442 	sub	x2, x2, #0x1
/home/build/bsp/optee_os/lib/libmbedtls/mbedtls/library/bignum.c:931 (discriminator 1)
    7abc:	b100045f 	cmn	x2, #0x1
    7ac0:	54fffe81 	b.ne	7a90 <mbedtls_mpi_cmp_mpi+0x94>  // b.any
/home/build/bsp/optee_os/lib/libmbedtls/mbedtls/library/bignum.c:914
    7ac4:	52800000 	mov	w0, #0x0                   	// #0
    7ac8:	17ffffd4 	b	7a18 <mbedtls_mpi_cmp_mpi+0x1c>

0000000000007acc <mbedtls_mpi_cmp_int>:
mbedtls_mpi_cmp_int():
/home/build/bsp/optee_os/lib/libmbedtls/mbedtls/library/bignum.c:947
    7acc:	a9bb7bfd 	stp	x29, x30, [sp, #-80]!
mpi_sint_abs():
/home/build/bsp/optee_os/lib/libmbedtls/mbedtls/library/bignum.c:300
    7ad0:	7100003f 	cmp	w1, #0x0
    7ad4:	5a81a421 	cneg	w1, w1, lt  // lt = tstop
mbedtls_mpi_cmp_int():
/home/build/bsp/optee_os/lib/libmbedtls/mbedtls/library/bignum.c:947
    7ad8:	910003fd 	mov	x29, sp
    7adc:	f9000bf3 	str	x19, [sp, #16]
    7ae0:	f0000053 	adrp	x19, 12000 <_DYNAMIC>
    7ae4:	f9409a62 	ldr	x2, [x19, #304]
    7ae8:	f9400043 	ldr	x3, [x2]
    7aec:	f90027e3 	str	x3, [sp, #72]
    7af0:	d2800003 	mov	x3, #0x0                   	// #0
/home/build/bsp/optee_os/lib/libmbedtls/mbedtls/library/bignum.c:952
    7af4:	b90043e1 	str	w1, [sp, #64]
/home/build/bsp/optee_os/lib/libmbedtls/mbedtls/library/bignum.c:953
    7af8:	52800021 	mov	w1, #0x1                   	// #1
    7afc:	5a81a421 	cneg	w1, w1, lt  // lt = tstop
    7b00:	b90023e1 	str	w1, [sp, #32]
/home/build/bsp/optee_os/lib/libmbedtls/mbedtls/library/bignum.c:954
    7b04:	d2800021 	mov	x1, #0x1                   	// #1
    7b08:	f90017e1 	str	x1, [sp, #40]
/home/build/bsp/optee_os/lib/libmbedtls/mbedtls/library/bignum.c:955
    7b0c:	910103e1 	add	x1, sp, #0x40
    7b10:	f9001be1 	str	x1, [sp, #48]
/home/build/bsp/optee_os/lib/libmbedtls/mbedtls/library/bignum.c:957
    7b14:	910083e1 	add	x1, sp, #0x20
    7b18:	97ffffb9 	bl	79fc <mbedtls_mpi_cmp_mpi>
/home/build/bsp/optee_os/lib/libmbedtls/mbedtls/library/bignum.c:958
    7b1c:	f9409a73 	ldr	x19, [x19, #304]
    7b20:	f94027e1 	ldr	x1, [sp, #72]
    7b24:	f9400262 	ldr	x2, [x19]
    7b28:	eb020021 	subs	x1, x1, x2
    7b2c:	d2800002 	mov	x2, #0x0                   	// #0
    7b30:	54000040 	b.eq	7b38 <mbedtls_mpi_cmp_int+0x6c>  // b.none
    7b34:	97ffe2df 	bl	6b0 <__stack_chk_fail>
    7b38:	f9400bf3 	ldr	x19, [sp, #16]
    7b3c:	a8c57bfd 	ldp	x29, x30, [sp], #80
    7b40:	d65f03c0 	ret

0000000000007b44 <mbedtls_mpi_add_abs>:
mbedtls_mpi_add_abs():
/home/build/bsp/optee_os/lib/libmbedtls/mbedtls/library/bignum.c:964
    7b44:	a9bc7bfd 	stp	x29, x30, [sp, #-64]!
    7b48:	910003fd 	mov	x29, sp
    7b4c:	a90153f3 	stp	x19, x20, [sp, #16]
    7b50:	aa0003f4 	mov	x20, x0
    7b54:	a9025bf5 	stp	x21, x22, [sp, #32]
    7b58:	aa0103f6 	mov	x22, x1
    7b5c:	f9001bf7 	str	x23, [sp, #48]
/home/build/bsp/optee_os/lib/libmbedtls/mbedtls/library/bignum.c:971
    7b60:	eb02001f 	cmp	x0, x2
    7b64:	540000a0 	b.eq	7b78 <mbedtls_mpi_add_abs+0x34>  // b.none
    7b68:	aa0203f3 	mov	x19, x2
/home/build/bsp/optee_os/lib/libmbedtls/mbedtls/library/bignum.c:975
    7b6c:	eb01001f 	cmp	x0, x1
    7b70:	54000101 	b.ne	7b90 <mbedtls_mpi_add_abs+0x4c>  // b.any
/home/build/bsp/optee_os/lib/libmbedtls/mbedtls/library/bignum.c:964
    7b74:	aa1303f6 	mov	x22, x19
/home/build/bsp/optee_os/lib/libmbedtls/mbedtls/library/bignum.c:982 (discriminator 2)
    7b78:	52800020 	mov	w0, #0x1                   	// #1
/home/build/bsp/optee_os/lib/libmbedtls/mbedtls/library/bignum.c:984 (discriminator 2)
    7b7c:	f94006d3 	ldr	x19, [x22, #8]
/home/build/bsp/optee_os/lib/libmbedtls/mbedtls/library/bignum.c:982 (discriminator 2)
    7b80:	b9000280 	str	w0, [x20]
/home/build/bsp/optee_os/lib/libmbedtls/mbedtls/library/bignum.c:984 (discriminator 1)
    7b84:	b5000153 	cbnz	x19, 7bac <mbedtls_mpi_add_abs+0x68>
/home/build/bsp/optee_os/lib/libmbedtls/mbedtls/library/bignum.c:993
    7b88:	52800000 	mov	w0, #0x0                   	// #0
    7b8c:	14000003 	b	7b98 <mbedtls_mpi_add_abs+0x54>
/home/build/bsp/optee_os/lib/libmbedtls/mbedtls/library/bignum.c:976
    7b90:	97fffe32 	bl	7458 <mbedtls_mpi_copy>
    7b94:	34ffff00 	cbz	w0, 7b74 <mbedtls_mpi_add_abs+0x30>
/home/build/bsp/optee_os/lib/libmbedtls/mbedtls/library/bignum.c:1020
    7b98:	a94153f3 	ldp	x19, x20, [sp, #16]
    7b9c:	a9425bf5 	ldp	x21, x22, [sp, #32]
    7ba0:	f9401bf7 	ldr	x23, [sp, #48]
    7ba4:	a8c47bfd 	ldp	x29, x30, [sp], #64
    7ba8:	d65f03c0 	ret
/home/build/bsp/optee_os/lib/libmbedtls/mbedtls/library/bignum.c:985
    7bac:	f9400ac0 	ldr	x0, [x22, #16]
    7bb0:	d37ef677 	lsl	x23, x19, #2
    7bb4:	8b130800 	add	x0, x0, x19, lsl #2
    7bb8:	b85fc000 	ldur	w0, [x0, #-4]
    7bbc:	35000060 	cbnz	w0, 7bc8 <mbedtls_mpi_add_abs+0x84>
/home/build/bsp/optee_os/lib/libmbedtls/mbedtls/library/bignum.c:984 (discriminator 2)
    7bc0:	d1000673 	sub	x19, x19, #0x1
    7bc4:	17fffff0 	b	7b84 <mbedtls_mpi_add_abs+0x40>
/home/build/bsp/optee_os/lib/libmbedtls/mbedtls/library/bignum.c:996
    7bc8:	aa1303e1 	mov	x1, x19
    7bcc:	aa1403e0 	mov	x0, x20
    7bd0:	97fffd87 	bl	71ec <mbedtls_mpi_grow>
    7bd4:	35fffe20 	cbnz	w0, 7b98 <mbedtls_mpi_add_abs+0x54>
/home/build/bsp/optee_os/lib/libmbedtls/mbedtls/library/bignum.c:1002 (discriminator 2)
    7bd8:	f9400ac2 	ldr	x2, [x22, #16]
    7bdc:	aa1303e3 	mov	x3, x19
/home/build/bsp/optee_os/lib/libmbedtls/mbedtls/library/bignum.c:1000 (discriminator 2)
    7be0:	f9400a95 	ldr	x21, [x20, #16]
/home/build/bsp/optee_os/lib/libmbedtls/mbedtls/library/bignum.c:1002 (discriminator 2)
    7be4:	aa1503e1 	mov	x1, x21
    7be8:	aa1503e0 	mov	x0, x21
    7bec:	94000be9 	bl	ab90 <mbedtls_mpi_core_add>
    7bf0:	2a0003f6 	mov	w22, w0
/home/build/bsp/optee_os/lib/libmbedtls/mbedtls/library/bignum.c:1004 (discriminator 2)
    7bf4:	8b1702a2 	add	x2, x21, x23
/home/build/bsp/optee_os/lib/libmbedtls/mbedtls/library/bignum.c:1008
    7bf8:	34fffc96 	cbz	w22, 7b88 <mbedtls_mpi_add_abs+0x44>
/home/build/bsp/optee_os/lib/libmbedtls/mbedtls/library/bignum.c:1009
    7bfc:	f9400680 	ldr	x0, [x20, #8]
    7c00:	91000675 	add	x21, x19, #0x1
    7c04:	eb13001f 	cmp	x0, x19
    7c08:	540000e8 	b.hi	7c24 <mbedtls_mpi_add_abs+0xe0>  // b.pmore
/home/build/bsp/optee_os/lib/libmbedtls/mbedtls/library/bignum.c:1010
    7c0c:	aa1503e1 	mov	x1, x21
    7c10:	aa1403e0 	mov	x0, x20
    7c14:	97fffd76 	bl	71ec <mbedtls_mpi_grow>
    7c18:	35fffc00 	cbnz	w0, 7b98 <mbedtls_mpi_add_abs+0x54>
/home/build/bsp/optee_os/lib/libmbedtls/mbedtls/library/bignum.c:1011 (discriminator 2)
    7c1c:	f9400a82 	ldr	x2, [x20, #16]
    7c20:	8b130842 	add	x2, x2, x19, lsl #2
/home/build/bsp/optee_os/lib/libmbedtls/mbedtls/library/bignum.c:1014
    7c24:	b9400040 	ldr	w0, [x2]
    7c28:	aa1503f3 	mov	x19, x21
    7c2c:	2b160000 	adds	w0, w0, w22
    7c30:	b8004440 	str	w0, [x2], #4
    7c34:	1a9f37f6 	cset	w22, cs  // cs = hs, nlast
    7c38:	17fffff0 	b	7bf8 <mbedtls_mpi_add_abs+0xb4>

0000000000007c3c <mbedtls_mpi_sub_abs>:
mbedtls_mpi_sub_abs():
/home/build/bsp/optee_os/lib/libmbedtls/mbedtls/library/bignum.c:1026
    7c3c:	a9bc7bfd 	stp	x29, x30, [sp, #-64]!
    7c40:	910003fd 	mov	x29, sp
    7c44:	a90153f3 	stp	x19, x20, [sp, #16]
    7c48:	aa0003f4 	mov	x20, x0
    7c4c:	a9025bf5 	stp	x21, x22, [sp, #32]
    7c50:	aa0103f5 	mov	x21, x1
/home/build/bsp/optee_os/lib/libmbedtls/mbedtls/library/bignum.c:1034
    7c54:	f9400453 	ldr	x19, [x2, #8]
/home/build/bsp/optee_os/lib/libmbedtls/mbedtls/library/bignum.c:1026
    7c58:	f9001bf7 	str	x23, [sp, #48]
    7c5c:	aa0203f7 	mov	x23, x2
/home/build/bsp/optee_os/lib/libmbedtls/mbedtls/library/bignum.c:1034 (discriminator 1)
    7c60:	b5000173 	cbnz	x19, 7c8c <mbedtls_mpi_sub_abs+0x50>
/home/build/bsp/optee_os/lib/libmbedtls/mbedtls/library/bignum.c:1039
    7c64:	f94006a1 	ldr	x1, [x21, #8]
    7c68:	eb13003f 	cmp	x1, x19
    7c6c:	540001c2 	b.cs	7ca4 <mbedtls_mpi_sub_abs+0x68>  // b.hs, b.nlast
/home/build/bsp/optee_os/lib/libmbedtls/mbedtls/library/bignum.c:1041
    7c70:	12800136 	mov	w22, #0xfffffff6            	// #-10
/home/build/bsp/optee_os/lib/libmbedtls/mbedtls/library/bignum.c:1074
    7c74:	2a1603e0 	mov	w0, w22
    7c78:	a94153f3 	ldp	x19, x20, [sp, #16]
    7c7c:	a9425bf5 	ldp	x21, x22, [sp, #32]
    7c80:	f9401bf7 	ldr	x23, [sp, #48]
    7c84:	a8c47bfd 	ldp	x29, x30, [sp], #64
    7c88:	d65f03c0 	ret
/home/build/bsp/optee_os/lib/libmbedtls/mbedtls/library/bignum.c:1035
    7c8c:	f9400ae0 	ldr	x0, [x23, #16]
    7c90:	8b130800 	add	x0, x0, x19, lsl #2
    7c94:	b85fc000 	ldur	w0, [x0, #-4]
    7c98:	35fffe60 	cbnz	w0, 7c64 <mbedtls_mpi_sub_abs+0x28>
/home/build/bsp/optee_os/lib/libmbedtls/mbedtls/library/bignum.c:1034 (discriminator 2)
    7c9c:	d1000673 	sub	x19, x19, #0x1
    7ca0:	17fffff0 	b	7c60 <mbedtls_mpi_sub_abs+0x24>
/home/build/bsp/optee_os/lib/libmbedtls/mbedtls/library/bignum.c:1045
    7ca4:	aa1403e0 	mov	x0, x20
    7ca8:	97fffd51 	bl	71ec <mbedtls_mpi_grow>
    7cac:	2a0003f6 	mov	w22, w0
    7cb0:	35fffe20 	cbnz	w0, 7c74 <mbedtls_mpi_sub_abs+0x38>
/home/build/bsp/optee_os/lib/libmbedtls/mbedtls/library/bignum.c:1050 (discriminator 2)
    7cb4:	f94006a2 	ldr	x2, [x21, #8]
    7cb8:	eb02027f 	cmp	x19, x2
    7cbc:	54000142 	b.cs	7ce4 <mbedtls_mpi_sub_abs+0xa8>  // b.hs, b.nlast
/home/build/bsp/optee_os/lib/libmbedtls/mbedtls/library/bignum.c:1050 (discriminator 1)
    7cc0:	eb1402bf 	cmp	x21, x20
    7cc4:	54000100 	b.eq	7ce4 <mbedtls_mpi_sub_abs+0xa8>  // b.none
/home/build/bsp/optee_os/lib/libmbedtls/mbedtls/library/bignum.c:1051
    7cc8:	f9400a80 	ldr	x0, [x20, #16]
    7ccc:	cb130042 	sub	x2, x2, x19
    7cd0:	f9400aa1 	ldr	x1, [x21, #16]
    7cd4:	d37ef442 	lsl	x2, x2, #2
    7cd8:	8b130800 	add	x0, x0, x19, lsl #2
    7cdc:	8b130821 	add	x1, x1, x19, lsl #2
    7ce0:	97ffe0c8 	bl	0 <memcpy>
/home/build/bsp/optee_os/lib/libmbedtls/mbedtls/library/bignum.c:1053
    7ce4:	f9400682 	ldr	x2, [x20, #8]
    7ce8:	f94006a0 	ldr	x0, [x21, #8]
    7cec:	eb00005f 	cmp	x2, x0
    7cf0:	540000e9 	b.ls	7d0c <mbedtls_mpi_sub_abs+0xd0>  // b.plast
/home/build/bsp/optee_os/lib/libmbedtls/mbedtls/library/bignum.c:1054
    7cf4:	f9400a83 	ldr	x3, [x20, #16]
    7cf8:	cb000042 	sub	x2, x2, x0
    7cfc:	52800001 	mov	w1, #0x0                   	// #0
    7d00:	d37ef442 	lsl	x2, x2, #2
    7d04:	8b000860 	add	x0, x3, x0, lsl #2
    7d08:	94001478 	bl	cee8 <memset>
/home/build/bsp/optee_os/lib/libmbedtls/mbedtls/library/bignum.c:1057
    7d0c:	f9400ae2 	ldr	x2, [x23, #16]
    7d10:	aa1303e3 	mov	x3, x19
    7d14:	f9400a80 	ldr	x0, [x20, #16]
    7d18:	f9400aa1 	ldr	x1, [x21, #16]
    7d1c:	94000bc8 	bl	ac3c <mbedtls_mpi_core_sub>
    7d20:	2a0003e2 	mov	w2, w0
/home/build/bsp/optee_os/lib/libmbedtls/mbedtls/library/bignum.c:1058
    7d24:	35000080 	cbnz	w0, 7d34 <mbedtls_mpi_sub_abs+0xf8>
/home/build/bsp/optee_os/lib/libmbedtls/mbedtls/library/bignum.c:1070
    7d28:	52800020 	mov	w0, #0x1                   	// #1
    7d2c:	b9000280 	str	w0, [x20]
    7d30:	17ffffd1 	b	7c74 <mbedtls_mpi_sub_abs+0x38>
/home/build/bsp/optee_os/lib/libmbedtls/mbedtls/library/bignum.c:1060
    7d34:	a9408683 	ldp	x3, x1, [x20, #8]
    7d38:	8b130821 	add	x1, x1, x19, lsl #2
    7d3c:	cb130063 	sub	x3, x3, x19
    7d40:	aa0103e0 	mov	x0, x1
    7d44:	94000db3 	bl	b410 <mbedtls_mpi_core_sub_int>
/home/build/bsp/optee_os/lib/libmbedtls/mbedtls/library/bignum.c:1063
    7d48:	34ffff00 	cbz	w0, 7d28 <mbedtls_mpi_sub_abs+0xec>
    7d4c:	17ffffc9 	b	7c70 <mbedtls_mpi_sub_abs+0x34>

0000000000007d50 <add_sub_mpi>:
add_sub_mpi():
/home/build/bsp/optee_os/lib/libmbedtls/mbedtls/library/bignum.c:1082
    7d50:	a9bc7bfd 	stp	x29, x30, [sp, #-64]!
    7d54:	910003fd 	mov	x29, sp
/home/build/bsp/optee_os/lib/libmbedtls/mbedtls/library/bignum.c:1089
    7d58:	b9400044 	ldr	w4, [x2]
/home/build/bsp/optee_os/lib/libmbedtls/mbedtls/library/bignum.c:1082
    7d5c:	a90153f3 	stp	x19, x20, [sp, #16]
    7d60:	aa0003f4 	mov	x20, x0
/home/build/bsp/optee_os/lib/libmbedtls/mbedtls/library/bignum.c:1088
    7d64:	b9400033 	ldr	w19, [x1]
/home/build/bsp/optee_os/lib/libmbedtls/mbedtls/library/bignum.c:1082
    7d68:	a9025bf5 	stp	x21, x22, [sp, #32]
    7d6c:	f9001bf7 	str	x23, [sp, #48]
/home/build/bsp/optee_os/lib/libmbedtls/mbedtls/library/bignum.c:1089
    7d70:	1b047e64 	mul	w4, w19, w4
    7d74:	1b037c84 	mul	w4, w4, w3
    7d78:	36f80304 	tbz	w4, #31, 7dd8 <add_sub_mpi+0x88>
    7d7c:	aa0103f6 	mov	x22, x1
    7d80:	aa0203f5 	mov	x21, x2
/home/build/bsp/optee_os/lib/libmbedtls/mbedtls/library/bignum.c:1090
    7d84:	aa0203e1 	mov	x1, x2
    7d88:	aa1603e0 	mov	x0, x22
    7d8c:	97fffef5 	bl	7960 <mbedtls_mpi_cmp_abs>
    7d90:	2a0003f7 	mov	w23, w0
/home/build/bsp/optee_os/lib/libmbedtls/mbedtls/library/bignum.c:1091
    7d94:	37f80140 	tbnz	w0, #31, 7dbc <add_sub_mpi+0x6c>
/home/build/bsp/optee_os/lib/libmbedtls/mbedtls/library/bignum.c:1092
    7d98:	aa1503e2 	mov	x2, x21
    7d9c:	aa1603e1 	mov	x1, x22
    7da0:	aa1403e0 	mov	x0, x20
    7da4:	97ffffa6 	bl	7c3c <mbedtls_mpi_sub_abs>
    7da8:	350001c0 	cbnz	w0, 7de0 <add_sub_mpi+0x90>
/home/build/bsp/optee_os/lib/libmbedtls/mbedtls/library/bignum.c:1096 (discriminator 2)
    7dac:	710002ff 	cmp	w23, #0x0
    7db0:	1a9f1673 	csinc	w19, w19, wzr, ne  // ne = any
/home/build/bsp/optee_os/lib/libmbedtls/mbedtls/library/bignum.c:1104 (discriminator 2)
    7db4:	b9000293 	str	w19, [x20]
/home/build/bsp/optee_os/lib/libmbedtls/mbedtls/library/bignum.c:1109 (discriminator 2)
    7db8:	1400000a 	b	7de0 <add_sub_mpi+0x90>
/home/build/bsp/optee_os/lib/libmbedtls/mbedtls/library/bignum.c:1098
    7dbc:	aa1603e2 	mov	x2, x22
    7dc0:	aa1503e1 	mov	x1, x21
    7dc4:	aa1403e0 	mov	x0, x20
    7dc8:	97ffff9d 	bl	7c3c <mbedtls_mpi_sub_abs>
    7dcc:	350000a0 	cbnz	w0, 7de0 <add_sub_mpi+0x90>
/home/build/bsp/optee_os/lib/libmbedtls/mbedtls/library/bignum.c:1100 (discriminator 2)
    7dd0:	4b1303f3 	neg	w19, w19
    7dd4:	17fffff8 	b	7db4 <add_sub_mpi+0x64>
/home/build/bsp/optee_os/lib/libmbedtls/mbedtls/library/bignum.c:1103
    7dd8:	97ffff5b 	bl	7b44 <mbedtls_mpi_add_abs>
    7ddc:	34fffec0 	cbz	w0, 7db4 <add_sub_mpi+0x64>
/home/build/bsp/optee_os/lib/libmbedtls/mbedtls/library/bignum.c:1110
    7de0:	a94153f3 	ldp	x19, x20, [sp, #16]
    7de4:	a9425bf5 	ldp	x21, x22, [sp, #32]
    7de8:	f9401bf7 	ldr	x23, [sp, #48]
    7dec:	a8c47bfd 	ldp	x29, x30, [sp], #64
    7df0:	d65f03c0 	ret

0000000000007df4 <mbedtls_mpi_add_mpi>:
mbedtls_mpi_add_mpi():
/home/build/bsp/optee_os/lib/libmbedtls/mbedtls/library/bignum.c:1117
    7df4:	52800023 	mov	w3, #0x1                   	// #1
    7df8:	17ffffd6 	b	7d50 <add_sub_mpi>

0000000000007dfc <mbedtls_mpi_sub_mpi>:
mbedtls_mpi_sub_mpi():
/home/build/bsp/optee_os/lib/libmbedtls/mbedtls/library/bignum.c:1125
    7dfc:	12800003 	mov	w3, #0xffffffff            	// #-1
    7e00:	17ffffd4 	b	7d50 <add_sub_mpi>

0000000000007e04 <mbedtls_mpi_add_int>:
mbedtls_mpi_add_int():
/home/build/bsp/optee_os/lib/libmbedtls/mbedtls/library/bignum.c:1132
    7e04:	a9bb7bfd 	stp	x29, x30, [sp, #-80]!
mpi_sint_abs():
/home/build/bsp/optee_os/lib/libmbedtls/mbedtls/library/bignum.c:300
    7e08:	7100005f 	cmp	w2, #0x0
    7e0c:	5a82a442 	cneg	w2, w2, lt  // lt = tstop
mbedtls_mpi_add_int():
/home/build/bsp/optee_os/lib/libmbedtls/mbedtls/library/bignum.c:1132
    7e10:	910003fd 	mov	x29, sp
    7e14:	f9000bf3 	str	x19, [sp, #16]
    7e18:	f0000053 	adrp	x19, 12000 <_DYNAMIC>
    7e1c:	f9409a63 	ldr	x3, [x19, #304]
    7e20:	f9400064 	ldr	x4, [x3]
    7e24:	f90027e4 	str	x4, [sp, #72]
    7e28:	d2800004 	mov	x4, #0x0                   	// #0
/home/build/bsp/optee_os/lib/libmbedtls/mbedtls/library/bignum.c:1138
    7e2c:	b90043e2 	str	w2, [sp, #64]
/home/build/bsp/optee_os/lib/libmbedtls/mbedtls/library/bignum.c:1139
    7e30:	52800022 	mov	w2, #0x1                   	// #1
    7e34:	5a82a442 	cneg	w2, w2, lt  // lt = tstop
    7e38:	b90023e2 	str	w2, [sp, #32]
/home/build/bsp/optee_os/lib/libmbedtls/mbedtls/library/bignum.c:1140
    7e3c:	d2800022 	mov	x2, #0x1                   	// #1
    7e40:	f90017e2 	str	x2, [sp, #40]
/home/build/bsp/optee_os/lib/libmbedtls/mbedtls/library/bignum.c:1141
    7e44:	910103e2 	add	x2, sp, #0x40
    7e48:	f9001be2 	str	x2, [sp, #48]
/home/build/bsp/optee_os/lib/libmbedtls/mbedtls/library/bignum.c:1143
    7e4c:	910083e2 	add	x2, sp, #0x20
    7e50:	97ffffe9 	bl	7df4 <mbedtls_mpi_add_mpi>
/home/build/bsp/optee_os/lib/libmbedtls/mbedtls/library/bignum.c:1144
    7e54:	f9409a73 	ldr	x19, [x19, #304]
    7e58:	f94027e1 	ldr	x1, [sp, #72]
    7e5c:	f9400262 	ldr	x2, [x19]
    7e60:	eb020021 	subs	x1, x1, x2
    7e64:	d2800002 	mov	x2, #0x0                   	// #0
    7e68:	54000040 	b.eq	7e70 <mbedtls_mpi_add_int+0x6c>  // b.none
    7e6c:	97ffe211 	bl	6b0 <__stack_chk_fail>
    7e70:	f9400bf3 	ldr	x19, [sp, #16]
    7e74:	a8c57bfd 	ldp	x29, x30, [sp], #80
    7e78:	d65f03c0 	ret

0000000000007e7c <mbedtls_mpi_sub_int>:
mbedtls_mpi_sub_int():
/home/build/bsp/optee_os/lib/libmbedtls/mbedtls/library/bignum.c:1150
    7e7c:	a9bb7bfd 	stp	x29, x30, [sp, #-80]!
mpi_sint_abs():
/home/build/bsp/optee_os/lib/libmbedtls/mbedtls/library/bignum.c:300
    7e80:	7100005f 	cmp	w2, #0x0
    7e84:	5a82a442 	cneg	w2, w2, lt  // lt = tstop
mbedtls_mpi_sub_int():
/home/build/bsp/optee_os/lib/libmbedtls/mbedtls/library/bignum.c:1150
    7e88:	910003fd 	mov	x29, sp
    7e8c:	f9000bf3 	str	x19, [sp, #16]
    7e90:	f0000053 	adrp	x19, 12000 <_DYNAMIC>
    7e94:	f9409a63 	ldr	x3, [x19, #304]
    7e98:	f9400064 	ldr	x4, [x3]
    7e9c:	f90027e4 	str	x4, [sp, #72]
    7ea0:	d2800004 	mov	x4, #0x0                   	// #0
/home/build/bsp/optee_os/lib/libmbedtls/mbedtls/library/bignum.c:1156
    7ea4:	b90043e2 	str	w2, [sp, #64]
/home/build/bsp/optee_os/lib/libmbedtls/mbedtls/library/bignum.c:1157
    7ea8:	52800022 	mov	w2, #0x1                   	// #1
    7eac:	5a82a442 	cneg	w2, w2, lt  // lt = tstop
    7eb0:	b90023e2 	str	w2, [sp, #32]
/home/build/bsp/optee_os/lib/libmbedtls/mbedtls/library/bignum.c:1158
    7eb4:	d2800022 	mov	x2, #0x1                   	// #1
    7eb8:	f90017e2 	str	x2, [sp, #40]
/home/build/bsp/optee_os/lib/libmbedtls/mbedtls/library/bignum.c:1159
    7ebc:	910103e2 	add	x2, sp, #0x40
    7ec0:	f9001be2 	str	x2, [sp, #48]
/home/build/bsp/optee_os/lib/libmbedtls/mbedtls/library/bignum.c:1161
    7ec4:	910083e2 	add	x2, sp, #0x20
    7ec8:	97ffffcd 	bl	7dfc <mbedtls_mpi_sub_mpi>
/home/build/bsp/optee_os/lib/libmbedtls/mbedtls/library/bignum.c:1162
    7ecc:	f9409a73 	ldr	x19, [x19, #304]
    7ed0:	f94027e1 	ldr	x1, [sp, #72]
    7ed4:	f9400262 	ldr	x2, [x19]
    7ed8:	eb020021 	subs	x1, x1, x2
    7edc:	d2800002 	mov	x2, #0x0                   	// #0
    7ee0:	54000040 	b.eq	7ee8 <mbedtls_mpi_sub_int+0x6c>  // b.none
    7ee4:	97ffe1f3 	bl	6b0 <__stack_chk_fail>
    7ee8:	f9400bf3 	ldr	x19, [sp, #16]
    7eec:	a8c57bfd 	ldp	x29, x30, [sp], #80
    7ef0:	d65f03c0 	ret

0000000000007ef4 <mbedtls_mpi_mul_mpi>:
mbedtls_mpi_mul_mpi():
/home/build/bsp/optee_os/lib/libmbedtls/mbedtls/library/bignum.c:1168
    7ef4:	a9b47bfd 	stp	x29, x30, [sp, #-192]!
    7ef8:	910003fd 	mov	x29, sp
    7efc:	a90153f3 	stp	x19, x20, [sp, #16]
    7f00:	aa0003f4 	mov	x20, x0
    7f04:	f0000040 	adrp	x0, 12000 <_DYNAMIC>
    7f08:	a9025bf5 	stp	x21, x22, [sp, #32]
    7f0c:	aa0103f6 	mov	x22, x1
    7f10:	aa0203f5 	mov	x21, x2
    7f14:	f9409800 	ldr	x0, [x0, #304]
    7f18:	a90363f7 	stp	x23, x24, [sp, #48]
/home/build/bsp/optee_os/lib/libmbedtls/mbedtls/library/bignum.c:1177
    7f1c:	9101e3f7 	add	x23, sp, #0x78
/home/build/bsp/optee_os/lib/libmbedtls/mbedtls/library/bignum.c:1168
    7f20:	a9046bf9 	stp	x25, x26, [sp, #64]
/home/build/bsp/optee_os/lib/libmbedtls/mbedtls/library/bignum.c:1177
    7f24:	910263f8 	add	x24, sp, #0x98
/home/build/bsp/optee_os/lib/libmbedtls/mbedtls/library/bignum.c:1168
    7f28:	a90573fb 	stp	x27, x28, [sp, #80]
    7f2c:	f9400001 	ldr	x1, [x0]
    7f30:	f9005fe1 	str	x1, [sp, #184]
    7f34:	d2800001 	mov	x1, #0x0                   	// #0
/home/build/bsp/optee_os/lib/libmbedtls/mbedtls/library/bignum.c:1177
    7f38:	aa1703e0 	mov	x0, x23
    7f3c:	97fffc87 	bl	7158 <mbedtls_mpi_init_mempool>
    7f40:	aa1803e0 	mov	x0, x24
    7f44:	97fffc85 	bl	7158 <mbedtls_mpi_init_mempool>
/home/build/bsp/optee_os/lib/libmbedtls/mbedtls/library/bignum.c:1179
    7f48:	eb16029f 	cmp	x20, x22
    7f4c:	540000e1 	b.ne	7f68 <mbedtls_mpi_mul_mpi+0x74>  // b.any
/home/build/bsp/optee_os/lib/libmbedtls/mbedtls/library/bignum.c:1180
    7f50:	aa1403e1 	mov	x1, x20
    7f54:	aa1703e0 	mov	x0, x23
    7f58:	97fffd40 	bl	7458 <mbedtls_mpi_copy>
    7f5c:	2a0003f3 	mov	w19, w0
    7f60:	35000420 	cbnz	w0, 7fe4 <mbedtls_mpi_mul_mpi+0xf0>
    7f64:	aa1703f6 	mov	x22, x23
/home/build/bsp/optee_os/lib/libmbedtls/mbedtls/library/bignum.c:1182
    7f68:	eb15029f 	cmp	x20, x21
    7f6c:	540000e1 	b.ne	7f88 <mbedtls_mpi_mul_mpi+0x94>  // b.any
/home/build/bsp/optee_os/lib/libmbedtls/mbedtls/library/bignum.c:1183
    7f70:	aa1403e1 	mov	x1, x20
    7f74:	aa1803e0 	mov	x0, x24
    7f78:	97fffd38 	bl	7458 <mbedtls_mpi_copy>
    7f7c:	2a0003f3 	mov	w19, w0
    7f80:	35000320 	cbnz	w0, 7fe4 <mbedtls_mpi_mul_mpi+0xf0>
    7f84:	aa1803f5 	mov	x21, x24
/home/build/bsp/optee_os/lib/libmbedtls/mbedtls/library/bignum.c:1186
    7f88:	f94006d9 	ldr	x25, [x22, #8]
/home/build/bsp/optee_os/lib/libmbedtls/mbedtls/library/bignum.c:1186 (discriminator 1)
    7f8c:	b5000459 	cbnz	x25, 8014 <mbedtls_mpi_mul_mpi+0x120>
/home/build/bsp/optee_os/lib/libmbedtls/mbedtls/library/bignum.c:1192
    7f90:	5280003a 	mov	w26, #0x1                   	// #1
/home/build/bsp/optee_os/lib/libmbedtls/mbedtls/library/bignum.c:1195
    7f94:	f94006bb 	ldr	x27, [x21, #8]
/home/build/bsp/optee_os/lib/libmbedtls/mbedtls/library/bignum.c:1195 (discriminator 1)
    7f98:	b50004fb 	cbnz	x27, 8034 <mbedtls_mpi_mul_mpi+0x140>
/home/build/bsp/optee_os/lib/libmbedtls/mbedtls/library/bignum.c:1201
    7f9c:	5280003a 	mov	w26, #0x1                   	// #1
/home/build/bsp/optee_os/lib/libmbedtls/mbedtls/library/bignum.c:1204
    7fa0:	8b1b0321 	add	x1, x25, x27
    7fa4:	aa1403e0 	mov	x0, x20
    7fa8:	97fffc91 	bl	71ec <mbedtls_mpi_grow>
    7fac:	2a0003f3 	mov	w19, w0
    7fb0:	350001a0 	cbnz	w0, 7fe4 <mbedtls_mpi_mul_mpi+0xf0>
/home/build/bsp/optee_os/lib/libmbedtls/mbedtls/library/bignum.c:1205 (discriminator 2)
    7fb4:	aa1403e0 	mov	x0, x20
    7fb8:	52800001 	mov	w1, #0x0                   	// #0
    7fbc:	97fffd7d 	bl	75b0 <mbedtls_mpi_lset>
    7fc0:	2a0003f3 	mov	w19, w0
    7fc4:	35000100 	cbnz	w0, 7fe4 <mbedtls_mpi_mul_mpi+0xf0>
/home/build/bsp/optee_os/lib/libmbedtls/mbedtls/library/bignum.c:1210
    7fc8:	91000721 	add	x1, x25, #0x1
/home/build/bsp/optee_os/lib/libmbedtls/mbedtls/library/bignum.c:1207
    7fcc:	d280001c 	mov	x28, #0x0                   	// #0
/home/build/bsp/optee_os/lib/libmbedtls/mbedtls/library/bignum.c:1207 (discriminator 1)
    7fd0:	eb1b039f 	cmp	x28, x27
    7fd4:	540003c1 	b.ne	804c <mbedtls_mpi_mul_mpi+0x158>  // b.any
/home/build/bsp/optee_os/lib/libmbedtls/mbedtls/library/bignum.c:1219
    7fd8:	3400051a 	cbz	w26, 8078 <mbedtls_mpi_mul_mpi+0x184>
/home/build/bsp/optee_os/lib/libmbedtls/mbedtls/library/bignum.c:1220
    7fdc:	52800020 	mov	w0, #0x1                   	// #1
    7fe0:	b9000280 	str	w0, [x20]
/home/build/bsp/optee_os/lib/libmbedtls/mbedtls/library/bignum.c:1227
    7fe4:	aa1803e0 	mov	x0, x24
    7fe8:	97fffc66 	bl	7180 <mbedtls_mpi_free>
    7fec:	aa1703e0 	mov	x0, x23
    7ff0:	97fffc64 	bl	7180 <mbedtls_mpi_free>
/home/build/bsp/optee_os/lib/libmbedtls/mbedtls/library/bignum.c:1230
    7ff4:	f0000040 	adrp	x0, 12000 <_DYNAMIC>
    7ff8:	f9409800 	ldr	x0, [x0, #304]
    7ffc:	f9405fe2 	ldr	x2, [sp, #184]
    8000:	f9400001 	ldr	x1, [x0]
    8004:	eb010042 	subs	x2, x2, x1
    8008:	d2800001 	mov	x1, #0x0                   	// #0
    800c:	54000420 	b.eq	8090 <mbedtls_mpi_mul_mpi+0x19c>  // b.none
    8010:	97ffe1a8 	bl	6b0 <__stack_chk_fail>
/home/build/bsp/optee_os/lib/libmbedtls/mbedtls/library/bignum.c:1187
    8014:	f9400ac0 	ldr	x0, [x22, #16]
    8018:	8b190800 	add	x0, x0, x25, lsl #2
    801c:	b85fc000 	ldur	w0, [x0, #-4]
    8020:	35000060 	cbnz	w0, 802c <mbedtls_mpi_mul_mpi+0x138>
/home/build/bsp/optee_os/lib/libmbedtls/mbedtls/library/bignum.c:1186 (discriminator 2)
    8024:	d1000739 	sub	x25, x25, #0x1
    8028:	17ffffd9 	b	7f8c <mbedtls_mpi_mul_mpi+0x98>
/home/build/bsp/optee_os/lib/libmbedtls/mbedtls/library/bignum.c:1172
    802c:	5280001a 	mov	w26, #0x0                   	// #0
    8030:	17ffffd9 	b	7f94 <mbedtls_mpi_mul_mpi+0xa0>
/home/build/bsp/optee_os/lib/libmbedtls/mbedtls/library/bignum.c:1196
    8034:	f9400aa0 	ldr	x0, [x21, #16]
    8038:	8b1b0800 	add	x0, x0, x27, lsl #2
    803c:	b85fc000 	ldur	w0, [x0, #-4]
    8040:	35fffb00 	cbnz	w0, 7fa0 <mbedtls_mpi_mul_mpi+0xac>
/home/build/bsp/optee_os/lib/libmbedtls/mbedtls/library/bignum.c:1195 (discriminator 2)
    8044:	d100077b 	sub	x27, x27, #0x1
    8048:	17ffffd4 	b	7f98 <mbedtls_mpi_mul_mpi+0xa4>
/home/build/bsp/optee_os/lib/libmbedtls/mbedtls/library/bignum.c:1210 (discriminator 3)
    804c:	f9400aa2 	ldr	x2, [x21, #16]
    8050:	aa1903e3 	mov	x3, x25
    8054:	f9400a80 	ldr	x0, [x20, #16]
    8058:	f90037e1 	str	x1, [sp, #104]
    805c:	b87c7844 	ldr	w4, [x2, x28, lsl #2]
    8060:	f9400ac2 	ldr	x2, [x22, #16]
    8064:	8b1c0800 	add	x0, x0, x28, lsl #2
/home/build/bsp/optee_os/lib/libmbedtls/mbedtls/library/bignum.c:1207 (discriminator 3)
    8068:	9100079c 	add	x28, x28, #0x1
/home/build/bsp/optee_os/lib/libmbedtls/mbedtls/library/bignum.c:1210 (discriminator 3)
    806c:	94000b05 	bl	ac80 <mbedtls_mpi_core_mla>
/home/build/bsp/optee_os/lib/libmbedtls/mbedtls/library/bignum.c:1207 (discriminator 3)
    8070:	f94037e1 	ldr	x1, [sp, #104]
    8074:	17ffffd7 	b	7fd0 <mbedtls_mpi_mul_mpi+0xdc>
/home/build/bsp/optee_os/lib/libmbedtls/mbedtls/library/bignum.c:1222
    8078:	b94002a1 	ldr	w1, [x21]
/home/build/bsp/optee_os/lib/libmbedtls/mbedtls/library/bignum.c:1205
    807c:	52800013 	mov	w19, #0x0                   	// #0
/home/build/bsp/optee_os/lib/libmbedtls/mbedtls/library/bignum.c:1222
    8080:	b94002c0 	ldr	w0, [x22]
    8084:	1b017c00 	mul	w0, w0, w1
    8088:	b9000280 	str	w0, [x20]
    808c:	17ffffd6 	b	7fe4 <mbedtls_mpi_mul_mpi+0xf0>
/home/build/bsp/optee_os/lib/libmbedtls/mbedtls/library/bignum.c:1230
    8090:	2a1303e0 	mov	w0, w19
    8094:	a94153f3 	ldp	x19, x20, [sp, #16]
    8098:	a9425bf5 	ldp	x21, x22, [sp, #32]
    809c:	a94363f7 	ldp	x23, x24, [sp, #48]
    80a0:	a9446bf9 	ldp	x25, x26, [sp, #64]
    80a4:	a94573fb 	ldp	x27, x28, [sp, #80]
    80a8:	a8cc7bfd 	ldp	x29, x30, [sp], #192
    80ac:	d65f03c0 	ret

00000000000080b0 <mbedtls_mpi_mul_int>:
mbedtls_mpi_mul_int():
/home/build/bsp/optee_os/lib/libmbedtls/mbedtls/library/bignum.c:1236
    80b0:	a9bc7bfd 	stp	x29, x30, [sp, #-64]!
    80b4:	910003fd 	mov	x29, sp
    80b8:	a90153f3 	stp	x19, x20, [sp, #16]
    80bc:	aa0003f4 	mov	x20, x0
    80c0:	a9025bf5 	stp	x21, x22, [sp, #32]
    80c4:	aa0103f5 	mov	x21, x1
/home/build/bsp/optee_os/lib/libmbedtls/mbedtls/library/bignum.c:1240
    80c8:	f9400436 	ldr	x22, [x1, #8]
/home/build/bsp/optee_os/lib/libmbedtls/mbedtls/library/bignum.c:1236
    80cc:	f9001bf7 	str	x23, [sp, #48]
    80d0:	2a0203f7 	mov	w23, w2
/home/build/bsp/optee_os/lib/libmbedtls/mbedtls/library/bignum.c:1241
    80d4:	b40000d6 	cbz	x22, 80ec <mbedtls_mpi_mul_int+0x3c>
/home/build/bsp/optee_os/lib/libmbedtls/mbedtls/library/bignum.c:1241 (discriminator 1)
    80d8:	f9400aa0 	ldr	x0, [x21, #16]
    80dc:	8b160800 	add	x0, x0, x22, lsl #2
    80e0:	b85fc000 	ldur	w0, [x0, #-4]
    80e4:	34000120 	cbz	w0, 8108 <mbedtls_mpi_mul_int+0x58>
/home/build/bsp/optee_os/lib/libmbedtls/mbedtls/library/bignum.c:1246
    80e8:	35000157 	cbnz	w23, 8110 <mbedtls_mpi_mul_int+0x60>
/home/build/bsp/optee_os/lib/libmbedtls/mbedtls/library/bignum.c:1247
    80ec:	aa1403e0 	mov	x0, x20
    80f0:	52800001 	mov	w1, #0x0                   	// #0
/home/build/bsp/optee_os/lib/libmbedtls/mbedtls/library/bignum.c:1269
    80f4:	a94153f3 	ldp	x19, x20, [sp, #16]
    80f8:	a9425bf5 	ldp	x21, x22, [sp, #32]
    80fc:	f9401bf7 	ldr	x23, [sp, #48]
    8100:	a8c47bfd 	ldp	x29, x30, [sp], #64
/home/build/bsp/optee_os/lib/libmbedtls/mbedtls/library/bignum.c:1247
    8104:	17fffd2b 	b	75b0 <mbedtls_mpi_lset>
/home/build/bsp/optee_os/lib/libmbedtls/mbedtls/library/bignum.c:1242
    8108:	d10006d6 	sub	x22, x22, #0x1
    810c:	17fffff2 	b	80d4 <mbedtls_mpi_mul_int+0x24>
/home/build/bsp/optee_os/lib/libmbedtls/mbedtls/library/bignum.c:1263
    8110:	910006c1 	add	x1, x22, #0x1
    8114:	aa1403e0 	mov	x0, x20
    8118:	97fffc35 	bl	71ec <mbedtls_mpi_grow>
    811c:	2a0003f3 	mov	w19, w0
    8120:	35000160 	cbnz	w0, 814c <mbedtls_mpi_mul_int+0x9c>
/home/build/bsp/optee_os/lib/libmbedtls/mbedtls/library/bignum.c:1264 (discriminator 2)
    8124:	aa1503e1 	mov	x1, x21
    8128:	aa1403e0 	mov	x0, x20
    812c:	97fffccb 	bl	7458 <mbedtls_mpi_copy>
    8130:	2a0003f3 	mov	w19, w0
    8134:	350000c0 	cbnz	w0, 814c <mbedtls_mpi_mul_int+0x9c>
/home/build/bsp/optee_os/lib/libmbedtls/mbedtls/library/bignum.c:1265 (discriminator 2)
    8138:	a9408281 	ldp	x1, x0, [x20, #8]
    813c:	510006e4 	sub	w4, w23, #0x1
    8140:	f9400aa2 	ldr	x2, [x21, #16]
    8144:	aa1603e3 	mov	x3, x22
    8148:	94000ace 	bl	ac80 <mbedtls_mpi_core_mla>
/home/build/bsp/optee_os/lib/libmbedtls/mbedtls/library/bignum.c:1269
    814c:	2a1303e0 	mov	w0, w19
    8150:	a94153f3 	ldp	x19, x20, [sp, #16]
    8154:	a9425bf5 	ldp	x21, x22, [sp, #32]
    8158:	f9401bf7 	ldr	x23, [sp, #48]
    815c:	a8c47bfd 	ldp	x29, x30, [sp], #64
    8160:	d65f03c0 	ret

0000000000008164 <mbedtls_mpi_read_string>:
mbedtls_mpi_read_string():
/home/build/bsp/optee_os/lib/libmbedtls/mbedtls/library/bignum.c:429
    8164:	a9b77bfd 	stp	x29, x30, [sp, #-144]!
    8168:	910003fd 	mov	x29, sp
    816c:	a90153f3 	stp	x19, x20, [sp, #16]
    8170:	aa0003f4 	mov	x20, x0
    8174:	d0000040 	adrp	x0, 12000 <_DYNAMIC>
    8178:	a9025bf5 	stp	x21, x22, [sp, #32]
    817c:	f9409800 	ldr	x0, [x0, #304]
    8180:	a90363f7 	stp	x23, x24, [sp, #48]
    8184:	2a0103f7 	mov	w23, w1
    8188:	a9046bf9 	stp	x25, x26, [sp, #64]
    818c:	f9002bfb 	str	x27, [sp, #80]
    8190:	f9400001 	ldr	x1, [x0]
    8194:	f90047e1 	str	x1, [sp, #136]
    8198:	d2800001 	mov	x1, #0x0                   	// #0
/home/build/bsp/optee_os/lib/libmbedtls/mbedtls/library/bignum.c:438
    819c:	51000ae0 	sub	w0, w23, #0x2
    81a0:	7100381f 	cmp	w0, #0xe
    81a4:	54000149 	b.ls	81cc <mbedtls_mpi_read_string+0x68>  // b.plast
/home/build/bsp/optee_os/lib/libmbedtls/mbedtls/library/bignum.c:439
    81a8:	12800073 	mov	w19, #0xfffffffc            	// #-4
/home/build/bsp/optee_os/lib/libmbedtls/mbedtls/library/bignum.c:489
    81ac:	d0000040 	adrp	x0, 12000 <_DYNAMIC>
    81b0:	f9409800 	ldr	x0, [x0, #304]
    81b4:	f94047e2 	ldr	x2, [sp, #136]
    81b8:	f9400001 	ldr	x1, [x0]
    81bc:	eb010042 	subs	x2, x2, x1
    81c0:	d2800001 	mov	x1, #0x0                   	// #0
    81c4:	54000c60 	b.eq	8350 <mbedtls_mpi_read_string+0x1ec>  // b.none
    81c8:	97ffe13a 	bl	6b0 <__stack_chk_fail>
    81cc:	aa0203f6 	mov	x22, x2
/home/build/bsp/optee_os/lib/libmbedtls/mbedtls/library/bignum.c:442
    81d0:	9101a3f8 	add	x24, sp, #0x68
    81d4:	aa1803e0 	mov	x0, x24
    81d8:	97fffbe0 	bl	7158 <mbedtls_mpi_init_mempool>
/home/build/bsp/optee_os/lib/libmbedtls/mbedtls/library/bignum.c:444
    81dc:	394002c0 	ldrb	w0, [x22]
    81e0:	350000a0 	cbnz	w0, 81f4 <mbedtls_mpi_read_string+0x90>
/home/build/bsp/optee_os/lib/libmbedtls/mbedtls/library/bignum.c:445
    81e4:	aa1403e0 	mov	x0, x20
/home/build/bsp/optee_os/lib/libmbedtls/mbedtls/library/bignum.c:446
    81e8:	52800013 	mov	w19, #0x0                   	// #0
/home/build/bsp/optee_os/lib/libmbedtls/mbedtls/library/bignum.c:445
    81ec:	97fffbe5 	bl	7180 <mbedtls_mpi_free>
/home/build/bsp/optee_os/lib/libmbedtls/mbedtls/library/bignum.c:446
    81f0:	17ffffef 	b	81ac <mbedtls_mpi_read_string+0x48>
/home/build/bsp/optee_os/lib/libmbedtls/mbedtls/library/bignum.c:449
    81f4:	7100b41f 	cmp	w0, #0x2d
    81f8:	540004a1 	b.ne	828c <mbedtls_mpi_read_string+0x128>  // b.any
/home/build/bsp/optee_os/lib/libmbedtls/mbedtls/library/bignum.c:450
    81fc:	910006d6 	add	x22, x22, #0x1
/home/build/bsp/optee_os/lib/libmbedtls/mbedtls/library/bignum.c:451
    8200:	1280001a 	mov	w26, #0xffffffff            	// #-1
/home/build/bsp/optee_os/lib/libmbedtls/mbedtls/library/bignum.c:454
    8204:	aa1603e0 	mov	x0, x22
    8208:	97ffe4c0 	bl	1508 <strlen>
    820c:	aa0003f5 	mov	x21, x0
/home/build/bsp/optee_os/lib/libmbedtls/mbedtls/library/bignum.c:456
    8210:	710042ff 	cmp	w23, #0x10
    8214:	54000641 	b.ne	82dc <mbedtls_mpi_read_string+0x178>  // b.any
/home/build/bsp/optee_os/lib/libmbedtls/mbedtls/library/bignum.c:457
    8218:	92f80000 	mov	x0, #0x3fffffffffffffff    	// #4611686018427387903
    821c:	eb0002bf 	cmp	x21, x0
    8220:	54fffc48 	b.hi	81a8 <mbedtls_mpi_read_string+0x44>  // b.pmore
/home/build/bsp/optee_os/lib/libmbedtls/mbedtls/library/bignum.c:461
    8224:	d37e0aa0 	ubfiz	x0, x21, #2, #3
    8228:	d343f6a1 	ubfx	x1, x21, #3, #59
    822c:	f100001f 	cmp	x0, #0x0
/home/build/bsp/optee_os/lib/libmbedtls/mbedtls/library/bignum.c:463
    8230:	aa1403e0 	mov	x0, x20
    8234:	9a810421 	cinc	x1, x1, ne  // ne = any
    8238:	97fffbed 	bl	71ec <mbedtls_mpi_grow>
    823c:	2a0003f3 	mov	w19, w0
    8240:	35000200 	cbnz	w0, 8280 <mbedtls_mpi_read_string+0x11c>
/home/build/bsp/optee_os/lib/libmbedtls/mbedtls/library/bignum.c:464 (discriminator 2)
    8244:	aa1403e0 	mov	x0, x20
    8248:	52800001 	mov	w1, #0x0                   	// #0
    824c:	97fffcd9 	bl	75b0 <mbedtls_mpi_lset>
    8250:	2a0003f3 	mov	w19, w0
    8254:	35000160 	cbnz	w0, 8280 <mbedtls_mpi_read_string+0x11c>
/home/build/bsp/optee_os/lib/libmbedtls/mbedtls/library/bignum.c:467
    8258:	910193e6 	add	x6, sp, #0x64
/home/build/bsp/optee_os/lib/libmbedtls/mbedtls/library/bignum.c:466
    825c:	d2800005 	mov	x5, #0x0                   	// #0
/home/build/bsp/optee_os/lib/libmbedtls/mbedtls/library/bignum.c:466 (discriminator 2)
    8260:	b50001b5 	cbnz	x21, 8294 <mbedtls_mpi_read_string+0x130>
/home/build/bsp/optee_os/lib/libmbedtls/mbedtls/library/bignum.c:480
    8264:	3100075f 	cmn	w26, #0x1
    8268:	540000a1 	b.ne	827c <mbedtls_mpi_read_string+0x118>  // b.any
/home/build/bsp/optee_os/lib/libmbedtls/mbedtls/library/bignum.c:480 (discriminator 1)
    826c:	aa1403e0 	mov	x0, x20
    8270:	97fffd2d 	bl	7724 <mbedtls_mpi_bitlen>
    8274:	b4000040 	cbz	x0, 827c <mbedtls_mpi_read_string+0x118>
/home/build/bsp/optee_os/lib/libmbedtls/mbedtls/library/bignum.c:481
    8278:	b900029a 	str	w26, [x20]
    827c:	52800013 	mov	w19, #0x0                   	// #0
/home/build/bsp/optee_os/lib/libmbedtls/mbedtls/library/bignum.c:486
    8280:	aa1803e0 	mov	x0, x24
    8284:	97fffbbf 	bl	7180 <mbedtls_mpi_free>
/home/build/bsp/optee_os/lib/libmbedtls/mbedtls/library/bignum.c:488
    8288:	17ffffc9 	b	81ac <mbedtls_mpi_read_string+0x48>
/home/build/bsp/optee_os/lib/libmbedtls/mbedtls/library/bignum.c:432
    828c:	5280003a 	mov	w26, #0x1                   	// #1
    8290:	17ffffdd 	b	8204 <mbedtls_mpi_read_string+0xa0>
/home/build/bsp/optee_os/lib/libmbedtls/mbedtls/library/bignum.c:467
    8294:	d10006b5 	sub	x21, x21, #0x1
    8298:	aa0603e0 	mov	x0, x6
    829c:	52800201 	mov	w1, #0x10                  	// #16
    82a0:	38756ac2 	ldrb	w2, [x22, x21]
    82a4:	97fffb50 	bl	6fe4 <mpi_get_digit>
    82a8:	2a0003f3 	mov	w19, w0
    82ac:	35fffea0 	cbnz	w0, 8280 <mbedtls_mpi_read_string+0x11c>
/home/build/bsp/optee_os/lib/libmbedtls/mbedtls/library/bignum.c:468 (discriminator 2)
    82b0:	d343fca0 	lsr	x0, x5, #3
    82b4:	b94067e2 	ldr	w2, [sp, #100]
    82b8:	f9400a83 	ldr	x3, [x20, #16]
    82bc:	d37ef400 	lsl	x0, x0, #2
    82c0:	531e08a1 	ubfiz	w1, w5, #2, #3
/home/build/bsp/optee_os/lib/libmbedtls/mbedtls/library/bignum.c:466 (discriminator 2)
    82c4:	910004a5 	add	x5, x5, #0x1
/home/build/bsp/optee_os/lib/libmbedtls/mbedtls/library/bignum.c:468 (discriminator 2)
    82c8:	1ac12042 	lsl	w2, w2, w1
    82cc:	b8606861 	ldr	w1, [x3, x0]
    82d0:	2a020021 	orr	w1, w1, w2
    82d4:	b8206861 	str	w1, [x3, x0]
/home/build/bsp/optee_os/lib/libmbedtls/mbedtls/library/bignum.c:466 (discriminator 2)
    82d8:	17ffffe2 	b	8260 <mbedtls_mpi_read_string+0xfc>
/home/build/bsp/optee_os/lib/libmbedtls/mbedtls/library/bignum.c:471
    82dc:	aa1403e0 	mov	x0, x20
    82e0:	52800001 	mov	w1, #0x0                   	// #0
    82e4:	97fffcb3 	bl	75b0 <mbedtls_mpi_lset>
    82e8:	2a0003f3 	mov	w19, w0
    82ec:	35fffca0 	cbnz	w0, 8280 <mbedtls_mpi_read_string+0x11c>
/home/build/bsp/optee_os/lib/libmbedtls/mbedtls/library/bignum.c:474
    82f0:	910193fb 	add	x27, sp, #0x64
/home/build/bsp/optee_os/lib/libmbedtls/mbedtls/library/bignum.c:473
    82f4:	d2800019 	mov	x25, #0x0                   	// #0
/home/build/bsp/optee_os/lib/libmbedtls/mbedtls/library/bignum.c:473 (discriminator 2)
    82f8:	eb15033f 	cmp	x25, x21
    82fc:	54fffb40 	b.eq	8264 <mbedtls_mpi_read_string+0x100>  // b.none
/home/build/bsp/optee_os/lib/libmbedtls/mbedtls/library/bignum.c:474
    8300:	38796ac2 	ldrb	w2, [x22, x25]
    8304:	2a1703e1 	mov	w1, w23
    8308:	aa1b03e0 	mov	x0, x27
    830c:	97fffb36 	bl	6fe4 <mpi_get_digit>
    8310:	2a0003f3 	mov	w19, w0
    8314:	35fffb60 	cbnz	w0, 8280 <mbedtls_mpi_read_string+0x11c>
/home/build/bsp/optee_os/lib/libmbedtls/mbedtls/library/bignum.c:475 (discriminator 2)
    8318:	2a1703e2 	mov	w2, w23
    831c:	aa1403e1 	mov	x1, x20
    8320:	aa1803e0 	mov	x0, x24
    8324:	97ffff63 	bl	80b0 <mbedtls_mpi_mul_int>
    8328:	2a0003f3 	mov	w19, w0
    832c:	35fffaa0 	cbnz	w0, 8280 <mbedtls_mpi_read_string+0x11c>
/home/build/bsp/optee_os/lib/libmbedtls/mbedtls/library/bignum.c:476 (discriminator 2)
    8330:	b94067e2 	ldr	w2, [sp, #100]
    8334:	aa1803e1 	mov	x1, x24
    8338:	aa1403e0 	mov	x0, x20
    833c:	97fffeb2 	bl	7e04 <mbedtls_mpi_add_int>
    8340:	2a0003f3 	mov	w19, w0
    8344:	35fff9e0 	cbnz	w0, 8280 <mbedtls_mpi_read_string+0x11c>
/home/build/bsp/optee_os/lib/libmbedtls/mbedtls/library/bignum.c:473 (discriminator 2)
    8348:	91000739 	add	x25, x25, #0x1
    834c:	17ffffeb 	b	82f8 <mbedtls_mpi_read_string+0x194>
/home/build/bsp/optee_os/lib/libmbedtls/mbedtls/library/bignum.c:489
    8350:	2a1303e0 	mov	w0, w19
    8354:	a94153f3 	ldp	x19, x20, [sp, #16]
    8358:	a9425bf5 	ldp	x21, x22, [sp, #32]
    835c:	a94363f7 	ldp	x23, x24, [sp, #48]
    8360:	a9446bf9 	ldp	x25, x26, [sp, #64]
    8364:	f9402bfb 	ldr	x27, [sp, #80]
    8368:	a8c97bfd 	ldp	x29, x30, [sp], #144
    836c:	d65f03c0 	ret

0000000000008370 <mbedtls_mpi_div_mpi>:
mbedtls_mpi_div_mpi():
/home/build/bsp/optee_os/lib/libmbedtls/mbedtls/library/bignum.c:1380
    8370:	a9aa7bfd 	stp	x29, x30, [sp, #-352]!
    8374:	910003fd 	mov	x29, sp
    8378:	a9046bf9 	stp	x25, x26, [sp, #64]
    837c:	aa0003f9 	mov	x25, x0
    8380:	d0000040 	adrp	x0, 12000 <_DYNAMIC>
    8384:	a90153f3 	stp	x19, x20, [sp, #16]
    8388:	f9409800 	ldr	x0, [x0, #304]
    838c:	a9025bf5 	stp	x21, x22, [sp, #32]
    8390:	a90363f7 	stp	x23, x24, [sp, #48]
    8394:	aa0103f8 	mov	x24, x1
    8398:	aa0203f7 	mov	x23, x2
    839c:	a90573fb 	stp	x27, x28, [sp, #80]
    83a0:	f9003be3 	str	x3, [sp, #112]
    83a4:	f9400001 	ldr	x1, [x0]
    83a8:	f900afe1 	str	x1, [sp, #344]
    83ac:	d2800001 	mov	x1, #0x0                   	// #0
/home/build/bsp/optee_os/lib/libmbedtls/mbedtls/library/bignum.c:1388
    83b0:	aa0303e0 	mov	x0, x3
    83b4:	97fffdc6 	bl	7acc <mbedtls_mpi_cmp_int>
    83b8:	34002580 	cbz	w0, 8868 <mbedtls_mpi_div_mpi+0x4f8>
/home/build/bsp/optee_os/lib/libmbedtls/mbedtls/library/bignum.c:1392
    83bc:	9102a3f3 	add	x19, sp, #0xa8
    83c0:	910323f6 	add	x22, sp, #0xc8
    83c4:	aa1303e0 	mov	x0, x19
    83c8:	97fffb64 	bl	7158 <mbedtls_mpi_init_mempool>
    83cc:	aa1603e0 	mov	x0, x22
/home/build/bsp/optee_os/lib/libmbedtls/mbedtls/library/bignum.c:1393
    83d0:	9103a3fc 	add	x28, sp, #0xe8
/home/build/bsp/optee_os/lib/libmbedtls/mbedtls/library/bignum.c:1392
    83d4:	97fffb61 	bl	7158 <mbedtls_mpi_init_mempool>
/home/build/bsp/optee_os/lib/libmbedtls/mbedtls/library/bignum.c:1393
    83d8:	910423f5 	add	x21, sp, #0x108
    83dc:	aa1c03e0 	mov	x0, x28
    83e0:	97fffb5e 	bl	7158 <mbedtls_mpi_init_mempool>
    83e4:	aa1503e0 	mov	x0, x21
    83e8:	97fffb5c 	bl	7158 <mbedtls_mpi_init_mempool>
/home/build/bsp/optee_os/lib/libmbedtls/mbedtls/library/bignum.c:1405
    83ec:	f9403be1 	ldr	x1, [sp, #112]
/home/build/bsp/optee_os/lib/libmbedtls/mbedtls/library/bignum.c:1402
    83f0:	d2800060 	mov	x0, #0x3                   	// #3
    83f4:	f9009be0 	str	x0, [sp, #304]
/home/build/bsp/optee_os/lib/libmbedtls/mbedtls/library/bignum.c:1403
    83f8:	910523e0 	add	x0, sp, #0x148
/home/build/bsp/optee_os/lib/libmbedtls/mbedtls/library/bignum.c:1401
    83fc:	52800034 	mov	w20, #0x1                   	// #1
/home/build/bsp/optee_os/lib/libmbedtls/mbedtls/library/bignum.c:1403
    8400:	f90047e0 	str	x0, [sp, #136]
/home/build/bsp/optee_os/lib/libmbedtls/mbedtls/library/bignum.c:1401
    8404:	b9012bf4 	str	w20, [sp, #296]
/home/build/bsp/optee_os/lib/libmbedtls/mbedtls/library/bignum.c:1403
    8408:	f9009fe0 	str	x0, [sp, #312]
/home/build/bsp/optee_os/lib/libmbedtls/mbedtls/library/bignum.c:1405
    840c:	aa1703e0 	mov	x0, x23
    8410:	97fffd54 	bl	7960 <mbedtls_mpi_cmp_abs>
    8414:	36f80460 	tbz	w0, #31, 84a0 <mbedtls_mpi_div_mpi+0x130>
/home/build/bsp/optee_os/lib/libmbedtls/mbedtls/library/bignum.c:1406
    8418:	b5000179 	cbnz	x25, 8444 <mbedtls_mpi_div_mpi+0xd4>
/home/build/bsp/optee_os/lib/libmbedtls/mbedtls/library/bignum.c:1409
    841c:	b5000378 	cbnz	x24, 8488 <mbedtls_mpi_div_mpi+0x118>
/home/build/bsp/optee_os/lib/libmbedtls/mbedtls/library/bignum.c:1412
    8420:	5280001b 	mov	w27, #0x0                   	// #0
/home/build/bsp/optee_os/lib/libmbedtls/mbedtls/library/bignum.c:1498
    8424:	d0000040 	adrp	x0, 12000 <_DYNAMIC>
    8428:	f9409800 	ldr	x0, [x0, #304]
    842c:	f940afe2 	ldr	x2, [sp, #344]
    8430:	f9400001 	ldr	x1, [x0]
    8434:	eb010042 	subs	x2, x2, x1
    8438:	d2800001 	mov	x1, #0x0                   	// #0
    843c:	540021a0 	b.eq	8870 <mbedtls_mpi_div_mpi+0x500>  // b.none
    8440:	97ffe09c 	bl	6b0 <__stack_chk_fail>
/home/build/bsp/optee_os/lib/libmbedtls/mbedtls/library/bignum.c:1407
    8444:	aa1903e0 	mov	x0, x25
    8448:	52800001 	mov	w1, #0x0                   	// #0
    844c:	97fffc59 	bl	75b0 <mbedtls_mpi_lset>
    8450:	2a0003fb 	mov	w27, w0
    8454:	34fffe40 	cbz	w0, 841c <mbedtls_mpi_div_mpi+0xac>
/home/build/bsp/optee_os/lib/libmbedtls/mbedtls/library/bignum.c:1493
    8458:	aa1303e0 	mov	x0, x19
    845c:	97fffb49 	bl	7180 <mbedtls_mpi_free>
    8460:	aa1603e0 	mov	x0, x22
    8464:	97fffb47 	bl	7180 <mbedtls_mpi_free>
    8468:	aa1c03e0 	mov	x0, x28
    846c:	97fffb45 	bl	7180 <mbedtls_mpi_free>
/home/build/bsp/optee_os/lib/libmbedtls/mbedtls/library/bignum.c:1494
    8470:	aa1503e0 	mov	x0, x21
    8474:	97fffb43 	bl	7180 <mbedtls_mpi_free>
/home/build/bsp/optee_os/lib/libmbedtls/mbedtls/library/bignum.c:1495
    8478:	f94047e0 	ldr	x0, [sp, #136]
    847c:	d2800181 	mov	x1, #0xc                   	// #12
    8480:	94000e78 	bl	be60 <mbedtls_platform_zeroize>
/home/build/bsp/optee_os/lib/libmbedtls/mbedtls/library/bignum.c:1497
    8484:	17ffffe8 	b	8424 <mbedtls_mpi_div_mpi+0xb4>
/home/build/bsp/optee_os/lib/libmbedtls/mbedtls/library/bignum.c:1410
    8488:	aa1703e1 	mov	x1, x23
    848c:	aa1803e0 	mov	x0, x24
    8490:	97fffbf2 	bl	7458 <mbedtls_mpi_copy>
    8494:	2a0003fb 	mov	w27, w0
    8498:	35fffe00 	cbnz	w0, 8458 <mbedtls_mpi_div_mpi+0xe8>
    849c:	17ffffe1 	b	8420 <mbedtls_mpi_div_mpi+0xb0>
/home/build/bsp/optee_os/lib/libmbedtls/mbedtls/library/bignum.c:1415
    84a0:	aa1703e1 	mov	x1, x23
    84a4:	aa1303e0 	mov	x0, x19
    84a8:	97fffbec 	bl	7458 <mbedtls_mpi_copy>
    84ac:	2a0003fb 	mov	w27, w0
    84b0:	35fffd40 	cbnz	w0, 8458 <mbedtls_mpi_div_mpi+0xe8>
/home/build/bsp/optee_os/lib/libmbedtls/mbedtls/library/bignum.c:1416 (discriminator 2)
    84b4:	f9403be1 	ldr	x1, [sp, #112]
    84b8:	aa1603e0 	mov	x0, x22
    84bc:	97fffbe7 	bl	7458 <mbedtls_mpi_copy>
    84c0:	2a0003fb 	mov	w27, w0
    84c4:	35fffca0 	cbnz	w0, 8458 <mbedtls_mpi_div_mpi+0xe8>
/home/build/bsp/optee_os/lib/libmbedtls/mbedtls/library/bignum.c:1419 (discriminator 2)
    84c8:	f94006e1 	ldr	x1, [x23, #8]
    84cc:	aa1c03e0 	mov	x0, x28
/home/build/bsp/optee_os/lib/libmbedtls/mbedtls/library/bignum.c:1417 (discriminator 2)
    84d0:	b900abf4 	str	w20, [sp, #168]
/home/build/bsp/optee_os/lib/libmbedtls/mbedtls/library/bignum.c:1419 (discriminator 2)
    84d4:	91000821 	add	x1, x1, #0x2
/home/build/bsp/optee_os/lib/libmbedtls/mbedtls/library/bignum.c:1417 (discriminator 2)
    84d8:	b900cbf4 	str	w20, [sp, #200]
/home/build/bsp/optee_os/lib/libmbedtls/mbedtls/library/bignum.c:1419 (discriminator 2)
    84dc:	97fffb44 	bl	71ec <mbedtls_mpi_grow>
    84e0:	2a0003fb 	mov	w27, w0
    84e4:	35fffba0 	cbnz	w0, 8458 <mbedtls_mpi_div_mpi+0xe8>
/home/build/bsp/optee_os/lib/libmbedtls/mbedtls/library/bignum.c:1420 (discriminator 2)
    84e8:	aa1c03e0 	mov	x0, x28
    84ec:	52800001 	mov	w1, #0x0                   	// #0
    84f0:	97fffc30 	bl	75b0 <mbedtls_mpi_lset>
    84f4:	2a0003fb 	mov	w27, w0
    84f8:	35fffb00 	cbnz	w0, 8458 <mbedtls_mpi_div_mpi+0xe8>
/home/build/bsp/optee_os/lib/libmbedtls/mbedtls/library/bignum.c:1421 (discriminator 2)
    84fc:	f94006e1 	ldr	x1, [x23, #8]
    8500:	aa1503e0 	mov	x0, x21
    8504:	91000821 	add	x1, x1, #0x2
    8508:	97fffb39 	bl	71ec <mbedtls_mpi_grow>
    850c:	2a0003fb 	mov	w27, w0
    8510:	35fffa40 	cbnz	w0, 8458 <mbedtls_mpi_div_mpi+0xe8>
/home/build/bsp/optee_os/lib/libmbedtls/mbedtls/library/bignum.c:1423 (discriminator 2)
    8514:	aa1603e0 	mov	x0, x22
    8518:	97fffc83 	bl	7724 <mbedtls_mpi_bitlen>
    851c:	92401000 	and	x0, x0, #0x1f
/home/build/bsp/optee_os/lib/libmbedtls/mbedtls/library/bignum.c:1424 (discriminator 2)
    8520:	f1007c1f 	cmp	x0, #0x1f
    8524:	54000a20 	b.eq	8668 <mbedtls_mpi_div_mpi+0x2f8>  // b.none
/home/build/bsp/optee_os/lib/libmbedtls/mbedtls/library/bignum.c:1425
    8528:	d28003fa 	mov	x26, #0x1f                  	// #31
    852c:	cb00035a 	sub	x26, x26, x0
/home/build/bsp/optee_os/lib/libmbedtls/mbedtls/library/bignum.c:1426
    8530:	aa1a03e1 	mov	x1, x26
    8534:	aa1303e0 	mov	x0, x19
    8538:	97fffcba 	bl	7820 <mbedtls_mpi_shift_l>
    853c:	2a0003fb 	mov	w27, w0
    8540:	35fff8c0 	cbnz	w0, 8458 <mbedtls_mpi_div_mpi+0xe8>
/home/build/bsp/optee_os/lib/libmbedtls/mbedtls/library/bignum.c:1427 (discriminator 2)
    8544:	aa1a03e1 	mov	x1, x26
    8548:	aa1603e0 	mov	x0, x22
    854c:	97fffcb5 	bl	7820 <mbedtls_mpi_shift_l>
    8550:	2a0003fb 	mov	w27, w0
    8554:	35fff820 	cbnz	w0, 8458 <mbedtls_mpi_div_mpi+0xe8>
/home/build/bsp/optee_os/lib/libmbedtls/mbedtls/library/bignum.c:1432
    8558:	f9405be0 	ldr	x0, [sp, #176]
    855c:	f90037e0 	str	x0, [sp, #104]
/home/build/bsp/optee_os/lib/libmbedtls/mbedtls/library/bignum.c:1433
    8560:	f9406be0 	ldr	x0, [sp, #208]
    8564:	f9003fe0 	str	x0, [sp, #120]
/home/build/bsp/optee_os/lib/libmbedtls/mbedtls/library/bignum.c:1434
    8568:	f94037e0 	ldr	x0, [sp, #104]
    856c:	f9403fe1 	ldr	x1, [sp, #120]
    8570:	cb010014 	sub	x20, x0, x1
    8574:	d37bea80 	lsl	x0, x20, #5
    8578:	f90043e0 	str	x0, [sp, #128]
    857c:	aa0003e1 	mov	x1, x0
    8580:	aa1603e0 	mov	x0, x22
    8584:	97fffca7 	bl	7820 <mbedtls_mpi_shift_l>
    8588:	2a0003fb 	mov	w27, w0
    858c:	35fff660 	cbnz	w0, 8458 <mbedtls_mpi_div_mpi+0xe8>
/home/build/bsp/optee_os/lib/libmbedtls/mbedtls/library/bignum.c:1437
    8590:	d37ef694 	lsl	x20, x20, #2
/home/build/bsp/optee_os/lib/libmbedtls/mbedtls/library/bignum.c:1436 (discriminator 2)
    8594:	aa1603e1 	mov	x1, x22
    8598:	aa1303e0 	mov	x0, x19
    859c:	97fffd18 	bl	79fc <mbedtls_mpi_cmp_mpi>
    85a0:	36f80680 	tbz	w0, #31, 8670 <mbedtls_mpi_div_mpi+0x300>
/home/build/bsp/optee_os/lib/libmbedtls/mbedtls/library/bignum.c:1440
    85a4:	f94043e1 	ldr	x1, [sp, #128]
    85a8:	aa1603e0 	mov	x0, x22
    85ac:	97fffce1 	bl	7930 <mbedtls_mpi_shift_r>
    85b0:	2a0003fb 	mov	w27, w0
    85b4:	35fff520 	cbnz	w0, 8458 <mbedtls_mpi_div_mpi+0xe8>
/home/build/bsp/optee_os/lib/libmbedtls/mbedtls/library/bignum.c:1432
    85b8:	f94037e0 	ldr	x0, [sp, #104]
    85bc:	d1001294 	sub	x20, x20, #0x4
    85c0:	d1000400 	sub	x0, x0, #0x1
    85c4:	f90037e0 	str	x0, [sp, #104]
/home/build/bsp/optee_os/lib/libmbedtls/mbedtls/library/bignum.c:1433
    85c8:	f9403fe0 	ldr	x0, [sp, #120]
    85cc:	d1000400 	sub	x0, x0, #0x1
    85d0:	f90043e0 	str	x0, [sp, #128]
/home/build/bsp/optee_os/lib/libmbedtls/mbedtls/library/bignum.c:1443
    85d4:	d37ef400 	lsl	x0, x0, #2
    85d8:	f9003fe0 	str	x0, [sp, #120]
/home/build/bsp/optee_os/lib/libmbedtls/mbedtls/library/bignum.c:1462
    85dc:	9104a3e0 	add	x0, sp, #0x128
    85e0:	f9004be0 	str	x0, [sp, #144]
/home/build/bsp/optee_os/lib/libmbedtls/mbedtls/library/bignum.c:1442 (discriminator 1)
    85e4:	f94037e0 	ldr	x0, [sp, #104]
    85e8:	f94043e1 	ldr	x1, [sp, #128]
    85ec:	eb01001f 	cmp	x0, x1
    85f0:	54000568 	b.hi	869c <mbedtls_mpi_div_mpi+0x32c>  // b.pmore
/home/build/bsp/optee_os/lib/libmbedtls/mbedtls/library/bignum.c:1476
    85f4:	b4000159 	cbz	x25, 861c <mbedtls_mpi_div_mpi+0x2ac>
/home/build/bsp/optee_os/lib/libmbedtls/mbedtls/library/bignum.c:1477
    85f8:	aa1c03e1 	mov	x1, x28
    85fc:	aa1903e0 	mov	x0, x25
    8600:	97fffb96 	bl	7458 <mbedtls_mpi_copy>
    8604:	350012e0 	cbnz	w0, 8860 <mbedtls_mpi_div_mpi+0x4f0>
/home/build/bsp/optee_os/lib/libmbedtls/mbedtls/library/bignum.c:1478 (discriminator 2)
    8608:	f9403be1 	ldr	x1, [sp, #112]
    860c:	b94002e0 	ldr	w0, [x23]
    8610:	b9400021 	ldr	w1, [x1]
    8614:	1b017c00 	mul	w0, w0, w1
    8618:	b9000320 	str	w0, [x25]
/home/build/bsp/optee_os/lib/libmbedtls/mbedtls/library/bignum.c:1481
    861c:	b4fff1f8 	cbz	x24, 8458 <mbedtls_mpi_div_mpi+0xe8>
/home/build/bsp/optee_os/lib/libmbedtls/mbedtls/library/bignum.c:1482
    8620:	aa1a03e1 	mov	x1, x26
    8624:	aa1303e0 	mov	x0, x19
    8628:	97fffcc2 	bl	7930 <mbedtls_mpi_shift_r>
    862c:	350011a0 	cbnz	w0, 8860 <mbedtls_mpi_div_mpi+0x4f0>
/home/build/bsp/optee_os/lib/libmbedtls/mbedtls/library/bignum.c:1483 (discriminator 2)
    8630:	b94002e0 	ldr	w0, [x23]
/home/build/bsp/optee_os/lib/libmbedtls/mbedtls/library/bignum.c:1484 (discriminator 2)
    8634:	aa1303e1 	mov	x1, x19
/home/build/bsp/optee_os/lib/libmbedtls/mbedtls/library/bignum.c:1483 (discriminator 2)
    8638:	b900abe0 	str	w0, [sp, #168]
/home/build/bsp/optee_os/lib/libmbedtls/mbedtls/library/bignum.c:1484 (discriminator 2)
    863c:	aa1803e0 	mov	x0, x24
    8640:	97fffb86 	bl	7458 <mbedtls_mpi_copy>
    8644:	350010e0 	cbnz	w0, 8860 <mbedtls_mpi_div_mpi+0x4f0>
/home/build/bsp/optee_os/lib/libmbedtls/mbedtls/library/bignum.c:1486 (discriminator 2)
    8648:	aa1803e0 	mov	x0, x24
    864c:	52800001 	mov	w1, #0x0                   	// #0
    8650:	97fffd1f 	bl	7acc <mbedtls_mpi_cmp_int>
    8654:	35fff020 	cbnz	w0, 8458 <mbedtls_mpi_div_mpi+0xe8>
/home/build/bsp/optee_os/lib/libmbedtls/mbedtls/library/bignum.c:1487
    8658:	52800020 	mov	w0, #0x1                   	// #1
/home/build/bsp/optee_os/lib/libmbedtls/mbedtls/library/bignum.c:1484
    865c:	5280001b 	mov	w27, #0x0                   	// #0
/home/build/bsp/optee_os/lib/libmbedtls/mbedtls/library/bignum.c:1487
    8660:	b9000300 	str	w0, [x24]
    8664:	17ffff7d 	b	8458 <mbedtls_mpi_div_mpi+0xe8>
/home/build/bsp/optee_os/lib/libmbedtls/mbedtls/library/bignum.c:1429
    8668:	d280001a 	mov	x26, #0x0                   	// #0
    866c:	17ffffbb 	b	8558 <mbedtls_mpi_div_mpi+0x1e8>
/home/build/bsp/optee_os/lib/libmbedtls/mbedtls/library/bignum.c:1437
    8670:	f9407fe1 	ldr	x1, [sp, #248]
/home/build/bsp/optee_os/lib/libmbedtls/mbedtls/library/bignum.c:1438
    8674:	aa1603e2 	mov	x2, x22
/home/build/bsp/optee_os/lib/libmbedtls/mbedtls/library/bignum.c:1437
    8678:	b8746820 	ldr	w0, [x1, x20]
    867c:	11000400 	add	w0, w0, #0x1
    8680:	b8346820 	str	w0, [x1, x20]
/home/build/bsp/optee_os/lib/libmbedtls/mbedtls/library/bignum.c:1438
    8684:	aa1303e1 	mov	x1, x19
    8688:	aa1303e0 	mov	x0, x19
    868c:	97fffddc 	bl	7dfc <mbedtls_mpi_sub_mpi>
    8690:	2a0003fb 	mov	w27, w0
    8694:	34fff800 	cbz	w0, 8594 <mbedtls_mpi_div_mpi+0x224>
    8698:	17ffff70 	b	8458 <mbedtls_mpi_div_mpi+0xe8>
/home/build/bsp/optee_os/lib/libmbedtls/mbedtls/library/bignum.c:1443
    869c:	f94037e0 	ldr	x0, [sp, #104]
    86a0:	f9403fe3 	ldr	x3, [sp, #120]
    86a4:	f9406fe1 	ldr	x1, [sp, #216]
    86a8:	d37ef405 	lsl	x5, x0, #2
    86ac:	f9405fe2 	ldr	x2, [sp, #184]
/home/build/bsp/optee_os/lib/libmbedtls/mbedtls/library/bignum.c:1446
    86b0:	d10010a6 	sub	x6, x5, #0x4
/home/build/bsp/optee_os/lib/libmbedtls/mbedtls/library/bignum.c:1443
    86b4:	b8636824 	ldr	w4, [x1, x3]
/home/build/bsp/optee_os/lib/libmbedtls/mbedtls/library/bignum.c:1444
    86b8:	f9407fe1 	ldr	x1, [sp, #248]
/home/build/bsp/optee_os/lib/libmbedtls/mbedtls/library/bignum.c:1443
    86bc:	8b000847 	add	x7, x2, x0, lsl #2
    86c0:	b8656840 	ldr	w0, [x2, x5]
/home/build/bsp/optee_os/lib/libmbedtls/mbedtls/library/bignum.c:1444
    86c4:	8b140021 	add	x1, x1, x20
/home/build/bsp/optee_os/lib/libmbedtls/mbedtls/library/bignum.c:1443
    86c8:	6b04001f 	cmp	w0, w4
    86cc:	54000be2 	b.cs	8848 <mbedtls_mpi_div_mpi+0x4d8>  // b.hs, b.nlast
mbedtls_int_div_int():
/home/build/bsp/optee_os/lib/libmbedtls/mbedtls/library/bignum.c:1303
    86d0:	b8666848 	ldr	w8, [x2, x6]
/home/build/bsp/optee_os/lib/libmbedtls/mbedtls/library/bignum.c:1304
    86d4:	2a0403e4 	mov	w4, w4
/home/build/bsp/optee_os/lib/libmbedtls/mbedtls/library/bignum.c:1313
    86d8:	b2407fe3 	mov	x3, #0xffffffff            	// #4294967295
/home/build/bsp/optee_os/lib/libmbedtls/mbedtls/library/bignum.c:1303
    86dc:	aa008100 	orr	x0, x8, x0, lsl #32
/home/build/bsp/optee_os/lib/libmbedtls/mbedtls/library/bignum.c:1304
    86e0:	9ac40800 	udiv	x0, x0, x4
/home/build/bsp/optee_os/lib/libmbedtls/mbedtls/library/bignum.c:1313
    86e4:	eb03001f 	cmp	x0, x3
    86e8:	9a839000 	csel	x0, x0, x3, ls  // ls = plast
mbedtls_mpi_div_mpi():
/home/build/bsp/optee_os/lib/libmbedtls/mbedtls/library/bignum.c:1444
    86ec:	b9000020 	str	w0, [x1]
/home/build/bsp/optee_os/lib/libmbedtls/mbedtls/library/bignum.c:1450
    86f0:	f94037e0 	ldr	x0, [sp, #104]
    86f4:	f100041f 	cmp	x0, #0x1
    86f8:	54000ac0 	b.eq	8850 <mbedtls_mpi_div_mpi+0x4e0>  // b.none
/home/build/bsp/optee_os/lib/libmbedtls/mbedtls/library/bignum.c:1450 (discriminator 1)
    86fc:	b85f80e4 	ldur	w4, [x7, #-8]
/home/build/bsp/optee_os/lib/libmbedtls/mbedtls/library/bignum.c:1450 (discriminator 4)
    8700:	f9409fe0 	ldr	x0, [sp, #312]
    8704:	b9000004 	str	w4, [x0]
/home/build/bsp/optee_os/lib/libmbedtls/mbedtls/library/bignum.c:1451 (discriminator 4)
    8708:	b8666844 	ldr	w4, [x2, x6]
    870c:	b9000404 	str	w4, [x0, #4]
/home/build/bsp/optee_os/lib/libmbedtls/mbedtls/library/bignum.c:1452 (discriminator 4)
    8710:	b8656842 	ldr	w2, [x2, x5]
    8714:	b9000802 	str	w2, [x0, #8]
/home/build/bsp/optee_os/lib/libmbedtls/mbedtls/library/bignum.c:1454 (discriminator 4)
    8718:	b9400020 	ldr	w0, [x1]
    871c:	11000400 	add	w0, w0, #0x1
    8720:	b9000020 	str	w0, [x1]
/home/build/bsp/optee_os/lib/libmbedtls/mbedtls/library/bignum.c:1456
    8724:	f9407fe1 	ldr	x1, [sp, #248]
    8728:	b8746820 	ldr	w0, [x1, x20]
    872c:	51000400 	sub	w0, w0, #0x1
    8730:	b8346820 	str	w0, [x1, x20]
/home/build/bsp/optee_os/lib/libmbedtls/mbedtls/library/bignum.c:1458
    8734:	aa1503e0 	mov	x0, x21
    8738:	52800001 	mov	w1, #0x0                   	// #0
    873c:	97fffb9d 	bl	75b0 <mbedtls_mpi_lset>
    8740:	35000900 	cbnz	w0, 8860 <mbedtls_mpi_div_mpi+0x4f0>
/home/build/bsp/optee_os/lib/libmbedtls/mbedtls/library/bignum.c:1459 (discriminator 2)
    8744:	f94043e0 	ldr	x0, [sp, #128]
    8748:	f9406fe1 	ldr	x1, [sp, #216]
    874c:	b4000860 	cbz	x0, 8858 <mbedtls_mpi_div_mpi+0x4e8>
/home/build/bsp/optee_os/lib/libmbedtls/mbedtls/library/bignum.c:1459 (discriminator 1)
    8750:	f9403fe0 	ldr	x0, [sp, #120]
    8754:	8b000020 	add	x0, x1, x0
    8758:	b85fc002 	ldur	w2, [x0, #-4]
/home/build/bsp/optee_os/lib/libmbedtls/mbedtls/library/bignum.c:1459 (discriminator 4)
    875c:	f9408fe0 	ldr	x0, [sp, #280]
    8760:	b9000002 	str	w2, [x0]
/home/build/bsp/optee_os/lib/libmbedtls/mbedtls/library/bignum.c:1460 (discriminator 4)
    8764:	f9403fe2 	ldr	x2, [sp, #120]
    8768:	b8626821 	ldr	w1, [x1, x2]
    876c:	b9000401 	str	w1, [x0, #4]
/home/build/bsp/optee_os/lib/libmbedtls/mbedtls/library/bignum.c:1461 (discriminator 4)
    8770:	aa1503e1 	mov	x1, x21
    8774:	f9407fe0 	ldr	x0, [sp, #248]
    8778:	b8746802 	ldr	w2, [x0, x20]
    877c:	aa1503e0 	mov	x0, x21
    8780:	97fffe4c 	bl	80b0 <mbedtls_mpi_mul_int>
    8784:	350006e0 	cbnz	w0, 8860 <mbedtls_mpi_div_mpi+0x4f0>
/home/build/bsp/optee_os/lib/libmbedtls/mbedtls/library/bignum.c:1462 (discriminator 2)
    8788:	f9404be1 	ldr	x1, [sp, #144]
    878c:	aa1503e0 	mov	x0, x21
    8790:	97fffc9b 	bl	79fc <mbedtls_mpi_cmp_mpi>
    8794:	7100001f 	cmp	w0, #0x0
    8798:	54fffc6c 	b.gt	8724 <mbedtls_mpi_div_mpi+0x3b4>
/home/build/bsp/optee_os/lib/libmbedtls/mbedtls/library/bignum.c:1464
    879c:	f9407fe0 	ldr	x0, [sp, #248]
    87a0:	aa1603e1 	mov	x1, x22
    87a4:	b8746802 	ldr	w2, [x0, x20]
    87a8:	aa1503e0 	mov	x0, x21
    87ac:	97fffe41 	bl	80b0 <mbedtls_mpi_mul_int>
    87b0:	35000580 	cbnz	w0, 8860 <mbedtls_mpi_div_mpi+0x4f0>
/home/build/bsp/optee_os/lib/libmbedtls/mbedtls/library/bignum.c:1465 (discriminator 2)
    87b4:	d37df280 	lsl	x0, x20, #3
    87b8:	f9004fe0 	str	x0, [sp, #152]
    87bc:	aa0003e1 	mov	x1, x0
    87c0:	aa1503e0 	mov	x0, x21
    87c4:	97fffc17 	bl	7820 <mbedtls_mpi_shift_l>
    87c8:	350004c0 	cbnz	w0, 8860 <mbedtls_mpi_div_mpi+0x4f0>
/home/build/bsp/optee_os/lib/libmbedtls/mbedtls/library/bignum.c:1466 (discriminator 2)
    87cc:	aa1503e2 	mov	x2, x21
    87d0:	aa1303e1 	mov	x1, x19
    87d4:	aa1303e0 	mov	x0, x19
    87d8:	97fffd89 	bl	7dfc <mbedtls_mpi_sub_mpi>
    87dc:	35000420 	cbnz	w0, 8860 <mbedtls_mpi_div_mpi+0x4f0>
/home/build/bsp/optee_os/lib/libmbedtls/mbedtls/library/bignum.c:1468 (discriminator 2)
    87e0:	aa1303e0 	mov	x0, x19
    87e4:	52800001 	mov	w1, #0x0                   	// #0
    87e8:	97fffcb9 	bl	7acc <mbedtls_mpi_cmp_int>
    87ec:	36f80240 	tbz	w0, #31, 8834 <mbedtls_mpi_div_mpi+0x4c4>
/home/build/bsp/optee_os/lib/libmbedtls/mbedtls/library/bignum.c:1469
    87f0:	aa1603e1 	mov	x1, x22
    87f4:	aa1503e0 	mov	x0, x21
    87f8:	97fffb18 	bl	7458 <mbedtls_mpi_copy>
    87fc:	35000320 	cbnz	w0, 8860 <mbedtls_mpi_div_mpi+0x4f0>
/home/build/bsp/optee_os/lib/libmbedtls/mbedtls/library/bignum.c:1470 (discriminator 2)
    8800:	d37df281 	lsl	x1, x20, #3
    8804:	aa1503e0 	mov	x0, x21
    8808:	97fffc06 	bl	7820 <mbedtls_mpi_shift_l>
    880c:	350002a0 	cbnz	w0, 8860 <mbedtls_mpi_div_mpi+0x4f0>
/home/build/bsp/optee_os/lib/libmbedtls/mbedtls/library/bignum.c:1471 (discriminator 2)
    8810:	aa1503e2 	mov	x2, x21
    8814:	aa1303e1 	mov	x1, x19
    8818:	aa1303e0 	mov	x0, x19
    881c:	97fffd76 	bl	7df4 <mbedtls_mpi_add_mpi>
    8820:	35000200 	cbnz	w0, 8860 <mbedtls_mpi_div_mpi+0x4f0>
/home/build/bsp/optee_os/lib/libmbedtls/mbedtls/library/bignum.c:1472 (discriminator 2)
    8824:	f9407fe1 	ldr	x1, [sp, #248]
    8828:	b8746820 	ldr	w0, [x1, x20]
    882c:	51000400 	sub	w0, w0, #0x1
    8830:	b8346820 	str	w0, [x1, x20]
/home/build/bsp/optee_os/lib/libmbedtls/mbedtls/library/bignum.c:1442 (discriminator 2)
    8834:	f94037e0 	ldr	x0, [sp, #104]
    8838:	d1001294 	sub	x20, x20, #0x4
    883c:	d1000400 	sub	x0, x0, #0x1
    8840:	f90037e0 	str	x0, [sp, #104]
    8844:	17ffff68 	b	85e4 <mbedtls_mpi_div_mpi+0x274>
    8848:	12800000 	mov	w0, #0xffffffff            	// #-1
    884c:	17ffffa8 	b	86ec <mbedtls_mpi_div_mpi+0x37c>
/home/build/bsp/optee_os/lib/libmbedtls/mbedtls/library/bignum.c:1450
    8850:	52800004 	mov	w4, #0x0                   	// #0
    8854:	17ffffab 	b	8700 <mbedtls_mpi_div_mpi+0x390>
/home/build/bsp/optee_os/lib/libmbedtls/mbedtls/library/bignum.c:1459
    8858:	52800002 	mov	w2, #0x0                   	// #0
    885c:	17ffffc0 	b	875c <mbedtls_mpi_div_mpi+0x3ec>
    8860:	2a0003fb 	mov	w27, w0
    8864:	17fffefd 	b	8458 <mbedtls_mpi_div_mpi+0xe8>
/home/build/bsp/optee_os/lib/libmbedtls/mbedtls/library/bignum.c:1389
    8868:	1280017b 	mov	w27, #0xfffffff4            	// #-12
    886c:	17fffeee 	b	8424 <mbedtls_mpi_div_mpi+0xb4>
/home/build/bsp/optee_os/lib/libmbedtls/mbedtls/library/bignum.c:1498
    8870:	2a1b03e0 	mov	w0, w27
    8874:	a94153f3 	ldp	x19, x20, [sp, #16]
    8878:	a9425bf5 	ldp	x21, x22, [sp, #32]
    887c:	a94363f7 	ldp	x23, x24, [sp, #48]
    8880:	a9446bf9 	ldp	x25, x26, [sp, #64]
    8884:	a94573fb 	ldp	x27, x28, [sp, #80]
    8888:	a8d67bfd 	ldp	x29, x30, [sp], #352
    888c:	d65f03c0 	ret

0000000000008890 <mbedtls_mpi_div_int>:
mbedtls_mpi_div_int():
/home/build/bsp/optee_os/lib/libmbedtls/mbedtls/library/bignum.c:1506
    8890:	a9bb7bfd 	stp	x29, x30, [sp, #-80]!
mpi_sint_abs():
/home/build/bsp/optee_os/lib/libmbedtls/mbedtls/library/bignum.c:300
    8894:	7100007f 	cmp	w3, #0x0
    8898:	5a83a463 	cneg	w3, w3, lt  // lt = tstop
mbedtls_mpi_div_int():
/home/build/bsp/optee_os/lib/libmbedtls/mbedtls/library/bignum.c:1506
    889c:	910003fd 	mov	x29, sp
    88a0:	f9000bf3 	str	x19, [sp, #16]
    88a4:	d0000053 	adrp	x19, 12000 <_DYNAMIC>
    88a8:	f9409a64 	ldr	x4, [x19, #304]
    88ac:	f9400085 	ldr	x5, [x4]
    88b0:	f90027e5 	str	x5, [sp, #72]
    88b4:	d2800005 	mov	x5, #0x0                   	// #0
/home/build/bsp/optee_os/lib/libmbedtls/mbedtls/library/bignum.c:1511
    88b8:	b90043e3 	str	w3, [sp, #64]
/home/build/bsp/optee_os/lib/libmbedtls/mbedtls/library/bignum.c:1512
    88bc:	52800023 	mov	w3, #0x1                   	// #1
    88c0:	5a83a463 	cneg	w3, w3, lt  // lt = tstop
    88c4:	b90023e3 	str	w3, [sp, #32]
/home/build/bsp/optee_os/lib/libmbedtls/mbedtls/library/bignum.c:1513
    88c8:	d2800023 	mov	x3, #0x1                   	// #1
    88cc:	f90017e3 	str	x3, [sp, #40]
/home/build/bsp/optee_os/lib/libmbedtls/mbedtls/library/bignum.c:1514
    88d0:	910103e3 	add	x3, sp, #0x40
    88d4:	f9001be3 	str	x3, [sp, #48]
/home/build/bsp/optee_os/lib/libmbedtls/mbedtls/library/bignum.c:1516
    88d8:	910083e3 	add	x3, sp, #0x20
    88dc:	97fffea5 	bl	8370 <mbedtls_mpi_div_mpi>
/home/build/bsp/optee_os/lib/libmbedtls/mbedtls/library/bignum.c:1517
    88e0:	f9409a73 	ldr	x19, [x19, #304]
    88e4:	f94027e1 	ldr	x1, [sp, #72]
    88e8:	f9400262 	ldr	x2, [x19]
    88ec:	eb020021 	subs	x1, x1, x2
    88f0:	d2800002 	mov	x2, #0x0                   	// #0
    88f4:	54000040 	b.eq	88fc <mbedtls_mpi_div_int+0x6c>  // b.none
    88f8:	97ffdf6e 	bl	6b0 <__stack_chk_fail>
    88fc:	f9400bf3 	ldr	x19, [sp, #16]
    8900:	a8c57bfd 	ldp	x29, x30, [sp], #80
    8904:	d65f03c0 	ret

0000000000008908 <mbedtls_mpi_mod_mpi>:
mbedtls_mpi_mod_mpi():
/home/build/bsp/optee_os/lib/libmbedtls/mbedtls/library/bignum.c:1523
    8908:	a9bd7bfd 	stp	x29, x30, [sp, #-48]!
    890c:	910003fd 	mov	x29, sp
    8910:	a90153f3 	stp	x19, x20, [sp, #16]
    8914:	aa0003f3 	mov	x19, x0
    8918:	aa0103f4 	mov	x20, x1
/home/build/bsp/optee_os/lib/libmbedtls/mbedtls/library/bignum.c:1529
    891c:	aa0203e0 	mov	x0, x2
    8920:	52800001 	mov	w1, #0x0                   	// #0
/home/build/bsp/optee_os/lib/libmbedtls/mbedtls/library/bignum.c:1523
    8924:	f90013f5 	str	x21, [sp, #32]
    8928:	aa0203f5 	mov	x21, x2
/home/build/bsp/optee_os/lib/libmbedtls/mbedtls/library/bignum.c:1529
    892c:	97fffc68 	bl	7acc <mbedtls_mpi_cmp_int>
    8930:	37f80420 	tbnz	w0, #31, 89b4 <mbedtls_mpi_mod_mpi+0xac>
/home/build/bsp/optee_os/lib/libmbedtls/mbedtls/library/bignum.c:1533
    8934:	aa1403e2 	mov	x2, x20
    8938:	aa1503e3 	mov	x3, x21
    893c:	aa1303e1 	mov	x1, x19
    8940:	d2800000 	mov	x0, #0x0                   	// #0
    8944:	97fffe8b 	bl	8370 <mbedtls_mpi_div_mpi>
    8948:	2a0003f4 	mov	w20, w0
    894c:	34000160 	cbz	w0, 8978 <mbedtls_mpi_mod_mpi+0x70>
/home/build/bsp/optee_os/lib/libmbedtls/mbedtls/library/bignum.c:1546
    8950:	2a1403e0 	mov	w0, w20
    8954:	a94153f3 	ldp	x19, x20, [sp, #16]
    8958:	f94013f5 	ldr	x21, [sp, #32]
    895c:	a8c37bfd 	ldp	x29, x30, [sp], #48
    8960:	d65f03c0 	ret
/home/build/bsp/optee_os/lib/libmbedtls/mbedtls/library/bignum.c:1536
    8964:	aa1503e2 	mov	x2, x21
    8968:	aa1303e1 	mov	x1, x19
    896c:	aa1303e0 	mov	x0, x19
    8970:	97fffd21 	bl	7df4 <mbedtls_mpi_add_mpi>
    8974:	350001c0 	cbnz	w0, 89ac <mbedtls_mpi_mod_mpi+0xa4>
/home/build/bsp/optee_os/lib/libmbedtls/mbedtls/library/bignum.c:1535
    8978:	aa1303e0 	mov	x0, x19
    897c:	52800001 	mov	w1, #0x0                   	// #0
    8980:	97fffc53 	bl	7acc <mbedtls_mpi_cmp_int>
    8984:	37ffff00 	tbnz	w0, #31, 8964 <mbedtls_mpi_mod_mpi+0x5c>
/home/build/bsp/optee_os/lib/libmbedtls/mbedtls/library/bignum.c:1539
    8988:	aa1503e1 	mov	x1, x21
    898c:	aa1303e0 	mov	x0, x19
    8990:	97fffc1b 	bl	79fc <mbedtls_mpi_cmp_mpi>
    8994:	37fffde0 	tbnz	w0, #31, 8950 <mbedtls_mpi_mod_mpi+0x48>
/home/build/bsp/optee_os/lib/libmbedtls/mbedtls/library/bignum.c:1540
    8998:	aa1503e2 	mov	x2, x21
    899c:	aa1303e1 	mov	x1, x19
    89a0:	aa1303e0 	mov	x0, x19
    89a4:	97fffd16 	bl	7dfc <mbedtls_mpi_sub_mpi>
    89a8:	34ffff00 	cbz	w0, 8988 <mbedtls_mpi_mod_mpi+0x80>
    89ac:	2a0003f4 	mov	w20, w0
    89b0:	17ffffe8 	b	8950 <mbedtls_mpi_mod_mpi+0x48>
/home/build/bsp/optee_os/lib/libmbedtls/mbedtls/library/bignum.c:1530
    89b4:	12800134 	mov	w20, #0xfffffff6            	// #-10
    89b8:	17ffffe6 	b	8950 <mbedtls_mpi_mod_mpi+0x48>

00000000000089bc <mbedtls_mpi_mod_int>:
mbedtls_mpi_mod_int():
/home/build/bsp/optee_os/lib/libmbedtls/mbedtls/library/bignum.c:1558
    89bc:	7100005f 	cmp	w2, #0x0
    89c0:	34000442 	cbz	w2, 8a48 <mbedtls_mpi_mod_int+0x8c>
/home/build/bsp/optee_os/lib/libmbedtls/mbedtls/library/bignum.c:1562
    89c4:	5400046b 	b.lt	8a50 <mbedtls_mpi_mod_int+0x94>  // b.tstop
/home/build/bsp/optee_os/lib/libmbedtls/mbedtls/library/bignum.c:1569
    89c8:	7100045f 	cmp	w2, #0x1
    89cc:	54000060 	b.eq	89d8 <mbedtls_mpi_mod_int+0x1c>  // b.none
/home/build/bsp/optee_os/lib/libmbedtls/mbedtls/library/bignum.c:1569 (discriminator 1)
    89d0:	f9400424 	ldr	x4, [x1, #8]
    89d4:	b5000084 	cbnz	x4, 89e4 <mbedtls_mpi_mod_int+0x28>
/home/build/bsp/optee_os/lib/libmbedtls/mbedtls/library/bignum.c:1570
    89d8:	b900001f 	str	wzr, [x0]
/home/build/bsp/optee_os/lib/libmbedtls/mbedtls/library/bignum.c:1604
    89dc:	52800000 	mov	w0, #0x0                   	// #0
/home/build/bsp/optee_os/lib/libmbedtls/mbedtls/library/bignum.c:1605
    89e0:	d65f03c0 	ret
/home/build/bsp/optee_os/lib/libmbedtls/mbedtls/library/bignum.c:1575
    89e4:	f9400827 	ldr	x7, [x1, #16]
/home/build/bsp/optee_os/lib/libmbedtls/mbedtls/library/bignum.c:1574
    89e8:	7100085f 	cmp	w2, #0x2
    89ec:	540000a1 	b.ne	8a00 <mbedtls_mpi_mod_int+0x44>  // b.any
/home/build/bsp/optee_os/lib/libmbedtls/mbedtls/library/bignum.c:1575
    89f0:	b94000e1 	ldr	w1, [x7]
    89f4:	12000021 	and	w1, w1, #0x1
    89f8:	b9000001 	str	w1, [x0]
/home/build/bsp/optee_os/lib/libmbedtls/mbedtls/library/bignum.c:1576
    89fc:	17fffff8 	b	89dc <mbedtls_mpi_mod_int+0x20>
    8a00:	8b0408e4 	add	x4, x7, x4, lsl #2
/home/build/bsp/optee_os/lib/libmbedtls/mbedtls/library/bignum.c:1582
    8a04:	52800003 	mov	w3, #0x0                   	// #0
/home/build/bsp/optee_os/lib/libmbedtls/mbedtls/library/bignum.c:1583 (discriminator 3)
    8a08:	b85fcc86 	ldr	w6, [x4, #-4]!
/home/build/bsp/optee_os/lib/libmbedtls/mbedtls/library/bignum.c:1584 (discriminator 3)
    8a0c:	13864063 	extr	w3, w3, w6, #16
/home/build/bsp/optee_os/lib/libmbedtls/mbedtls/library/bignum.c:1589 (discriminator 3)
    8a10:	12003cc6 	and	w6, w6, #0xffff
    8a14:	1ac20865 	udiv	w5, w3, w2
    8a18:	1b028ca5 	msub	w5, w5, w2, w3
    8a1c:	2a0540c5 	orr	w5, w6, w5, lsl #16
    8a20:	1ac208a3 	udiv	w3, w5, w2
    8a24:	1b029463 	msub	w3, w3, w2, w5
/home/build/bsp/optee_os/lib/libmbedtls/mbedtls/library/bignum.c:1582 (discriminator 3)
    8a28:	eb0400ff 	cmp	x7, x4
    8a2c:	54fffee1 	b.ne	8a08 <mbedtls_mpi_mod_int+0x4c>  // b.any
/home/build/bsp/optee_os/lib/libmbedtls/mbedtls/library/bignum.c:1598
    8a30:	b9400021 	ldr	w1, [x1]
    8a34:	36f80061 	tbz	w1, #31, 8a40 <mbedtls_mpi_mod_int+0x84>
/home/build/bsp/optee_os/lib/libmbedtls/mbedtls/library/bignum.c:1598 (discriminator 1)
    8a38:	34000043 	cbz	w3, 8a40 <mbedtls_mpi_mod_int+0x84>
/home/build/bsp/optee_os/lib/libmbedtls/mbedtls/library/bignum.c:1599
    8a3c:	4b030043 	sub	w3, w2, w3
/home/build/bsp/optee_os/lib/libmbedtls/mbedtls/library/bignum.c:1602
    8a40:	b9000003 	str	w3, [x0]
    8a44:	17ffffe6 	b	89dc <mbedtls_mpi_mod_int+0x20>
/home/build/bsp/optee_os/lib/libmbedtls/mbedtls/library/bignum.c:1559
    8a48:	12800160 	mov	w0, #0xfffffff4            	// #-12
    8a4c:	17ffffe5 	b	89e0 <mbedtls_mpi_mod_int+0x24>
/home/build/bsp/optee_os/lib/libmbedtls/mbedtls/library/bignum.c:1563
    8a50:	12800120 	mov	w0, #0xfffffff6            	// #-10
    8a54:	17ffffe3 	b	89e0 <mbedtls_mpi_mod_int+0x24>

0000000000008a58 <mbedtls_mpi_write_string>:
mbedtls_mpi_write_string():
/home/build/bsp/optee_os/lib/libmbedtls/mbedtls/library/bignum.c:534
    8a58:	a9b77bfd 	stp	x29, x30, [sp, #-144]!
    8a5c:	910003fd 	mov	x29, sp
    8a60:	a90363f7 	stp	x23, x24, [sp, #48]
    8a64:	aa0203f7 	mov	x23, x2
    8a68:	d0000042 	adrp	x2, 12000 <_DYNAMIC>
    8a6c:	a90153f3 	stp	x19, x20, [sp, #16]
    8a70:	f9409842 	ldr	x2, [x2, #304]
    8a74:	a9025bf5 	stp	x21, x22, [sp, #32]
    8a78:	2a0103f5 	mov	w21, w1
    8a7c:	a9046bf9 	stp	x25, x26, [sp, #64]
    8a80:	a90573fb 	stp	x27, x28, [sp, #80]
    8a84:	f9400041 	ldr	x1, [x2]
    8a88:	f90047e1 	str	x1, [sp, #136]
    8a8c:	d2800001 	mov	x1, #0x0                   	// #0
/home/build/bsp/optee_os/lib/libmbedtls/mbedtls/library/bignum.c:543
    8a90:	51000aa1 	sub	w1, w21, #0x2
    8a94:	7100383f 	cmp	w1, #0xe
    8a98:	54001028 	b.hi	8c9c <mbedtls_mpi_write_string+0x244>  // b.pmore
    8a9c:	aa0003f4 	mov	x20, x0
    8aa0:	aa0303f8 	mov	x24, x3
    8aa4:	aa0403f6 	mov	x22, x4
/home/build/bsp/optee_os/lib/libmbedtls/mbedtls/library/bignum.c:547
    8aa8:	97fffb1f 	bl	7724 <mbedtls_mpi_bitlen>
/home/build/bsp/optee_os/lib/libmbedtls/mbedtls/library/bignum.c:548
    8aac:	71000ebf 	cmp	w21, #0x3
    8ab0:	5400004d 	b.le	8ab8 <mbedtls_mpi_write_string+0x60>
/home/build/bsp/optee_os/lib/libmbedtls/mbedtls/library/bignum.c:549
    8ab4:	d341fc00 	lsr	x0, x0, #1
/home/build/bsp/optee_os/lib/libmbedtls/mbedtls/library/bignum.c:554
    8ab8:	710042bf 	cmp	w21, #0x10
    8abc:	54000041 	b.ne	8ac4 <mbedtls_mpi_write_string+0x6c>  // b.any
/home/build/bsp/optee_os/lib/libmbedtls/mbedtls/library/bignum.c:555
    8ac0:	d341fc00 	lsr	x0, x0, #1
/home/build/bsp/optee_os/lib/libmbedtls/mbedtls/library/bignum.c:563
    8ac4:	91001002 	add	x2, x0, #0x4
    8ac8:	927ff842 	and	x2, x2, #0xfffffffffffffffe
/home/build/bsp/optee_os/lib/libmbedtls/mbedtls/library/bignum.c:566
    8acc:	eb18005f 	cmp	x2, x24
    8ad0:	54000169 	b.ls	8afc <mbedtls_mpi_write_string+0xa4>  // b.plast
/home/build/bsp/optee_os/lib/libmbedtls/mbedtls/library/bignum.c:568
    8ad4:	128000f4 	mov	w20, #0xfffffff8            	// #-8
/home/build/bsp/optee_os/lib/libmbedtls/mbedtls/library/bignum.c:567
    8ad8:	f90002c2 	str	x2, [x22]
/home/build/bsp/optee_os/lib/libmbedtls/mbedtls/library/bignum.c:614
    8adc:	d0000042 	adrp	x2, 12000 <_DYNAMIC>
    8ae0:	f9409842 	ldr	x2, [x2, #304]
    8ae4:	f94047e0 	ldr	x0, [sp, #136]
    8ae8:	f9400041 	ldr	x1, [x2]
    8aec:	eb010000 	subs	x0, x0, x1
    8af0:	d2800001 	mov	x1, #0x0                   	// #0
    8af4:	54000dc0 	b.eq	8cac <mbedtls_mpi_write_string+0x254>  // b.none
    8af8:	97ffdeee 	bl	6b0 <__stack_chk_fail>
/home/build/bsp/optee_os/lib/libmbedtls/mbedtls/library/bignum.c:572
    8afc:	9101a3fb 	add	x27, sp, #0x68
/home/build/bsp/optee_os/lib/libmbedtls/mbedtls/library/bignum.c:575
    8b00:	aa1703f3 	mov	x19, x23
/home/build/bsp/optee_os/lib/libmbedtls/mbedtls/library/bignum.c:572
    8b04:	aa1b03e0 	mov	x0, x27
    8b08:	97fff994 	bl	7158 <mbedtls_mpi_init_mempool>
/home/build/bsp/optee_os/lib/libmbedtls/mbedtls/library/bignum.c:574
    8b0c:	b9400280 	ldr	w0, [x20]
    8b10:	3100041f 	cmn	w0, #0x1
    8b14:	54000081 	b.ne	8b24 <mbedtls_mpi_write_string+0xcc>  // b.any
/home/build/bsp/optee_os/lib/libmbedtls/mbedtls/library/bignum.c:576
    8b18:	d1000718 	sub	x24, x24, #0x1
/home/build/bsp/optee_os/lib/libmbedtls/mbedtls/library/bignum.c:575
    8b1c:	528005a0 	mov	w0, #0x2d                  	// #45
    8b20:	38001660 	strb	w0, [x19], #1
/home/build/bsp/optee_os/lib/libmbedtls/mbedtls/library/bignum.c:579
    8b24:	710042bf 	cmp	w21, #0x10
    8b28:	54000581 	b.ne	8bd8 <mbedtls_mpi_write_string+0x180>  // b.any
/home/build/bsp/optee_os/lib/libmbedtls/mbedtls/library/bignum.c:583
    8b2c:	f9400680 	ldr	x0, [x20, #8]
/home/build/bsp/optee_os/lib/libmbedtls/mbedtls/library/bignum.c:591
    8b30:	90000043 	adrp	x3, 10000 <__func__.0+0x28>
    8b34:	912db063 	add	x3, x3, #0xb6c
/home/build/bsp/optee_os/lib/libmbedtls/mbedtls/library/bignum.c:583
    8b38:	d2800001 	mov	x1, #0x0                   	// #0
/home/build/bsp/optee_os/lib/libmbedtls/mbedtls/library/bignum.c:583 (discriminator 1)
    8b3c:	b5000100 	cbnz	x0, 8b5c <mbedtls_mpi_write_string+0x104>
/home/build/bsp/optee_os/lib/libmbedtls/mbedtls/library/bignum.c:606 (discriminator 2)
    8b40:	3800167f 	strb	wzr, [x19], #1
/home/build/bsp/optee_os/lib/libmbedtls/mbedtls/library/bignum.c:607 (discriminator 2)
    8b44:	52800014 	mov	w20, #0x0                   	// #0
    8b48:	cb170273 	sub	x19, x19, x23
    8b4c:	f90002d3 	str	x19, [x22]
/home/build/bsp/optee_os/lib/libmbedtls/mbedtls/library/bignum.c:611
    8b50:	aa1b03e0 	mov	x0, x27
    8b54:	97fff98b 	bl	7180 <mbedtls_mpi_free>
/home/build/bsp/optee_os/lib/libmbedtls/mbedtls/library/bignum.c:613
    8b58:	17ffffe1 	b	8adc <mbedtls_mpi_write_string+0x84>
/home/build/bsp/optee_os/lib/libmbedtls/mbedtls/library/bignum.c:585
    8b5c:	d37ef406 	lsl	x6, x0, #2
    8b60:	91001005 	add	x5, x0, #0x4
    8b64:	d10010c6 	sub	x6, x6, #0x4
    8b68:	52800304 	mov	w4, #0x18                  	// #24
    8b6c:	f9400a82 	ldr	x2, [x20, #16]
/home/build/bsp/optee_os/lib/libmbedtls/mbedtls/library/bignum.c:587
    8b70:	52000021 	eor	w1, w1, #0x1
/home/build/bsp/optee_os/lib/libmbedtls/mbedtls/library/bignum.c:585
    8b74:	b8666842 	ldr	w2, [x2, x6]
    8b78:	1ac42442 	lsr	w2, w2, w4
/home/build/bsp/optee_os/lib/libmbedtls/mbedtls/library/bignum.c:587
    8b7c:	72001c47 	ands	w7, w2, #0xff
    8b80:	1a9f17e8 	cset	w8, eq  // eq = none
    8b84:	6a01011f 	tst	w8, w1
    8b88:	54000060 	b.eq	8b94 <mbedtls_mpi_write_string+0x13c>  // b.none
/home/build/bsp/optee_os/lib/libmbedtls/mbedtls/library/bignum.c:587 (discriminator 1)
    8b8c:	f10008bf 	cmp	x5, #0x2
    8b90:	54000201 	b.ne	8bd0 <mbedtls_mpi_write_string+0x178>  // b.any
/home/build/bsp/optee_os/lib/libmbedtls/mbedtls/library/bignum.c:591
    8b94:	d3441ce1 	ubfx	x1, x7, #4, #4
/home/build/bsp/optee_os/lib/libmbedtls/mbedtls/library/bignum.c:592
    8b98:	92400c42 	and	x2, x2, #0xf
/home/build/bsp/optee_os/lib/libmbedtls/mbedtls/library/bignum.c:591
    8b9c:	38616867 	ldrb	w7, [x3, x1]
    8ba0:	aa1303e1 	mov	x1, x19
/home/build/bsp/optee_os/lib/libmbedtls/mbedtls/library/bignum.c:592
    8ba4:	38626862 	ldrb	w2, [x3, x2]
/home/build/bsp/optee_os/lib/libmbedtls/mbedtls/library/bignum.c:591
    8ba8:	38002427 	strb	w7, [x1], #2
/home/build/bsp/optee_os/lib/libmbedtls/mbedtls/library/bignum.c:592
    8bac:	39000662 	strb	w2, [x19, #1]
    8bb0:	aa0103f3 	mov	x19, x1
/home/build/bsp/optee_os/lib/libmbedtls/mbedtls/library/bignum.c:593
    8bb4:	d2800021 	mov	x1, #0x1                   	// #1
/home/build/bsp/optee_os/lib/libmbedtls/mbedtls/library/bignum.c:584 (discriminator 2)
    8bb8:	51002084 	sub	w4, w4, #0x8
    8bbc:	d10004a5 	sub	x5, x5, #0x1
    8bc0:	3100209f 	cmn	w4, #0x8
    8bc4:	54fffd41 	b.ne	8b6c <mbedtls_mpi_write_string+0x114>  // b.any
/home/build/bsp/optee_os/lib/libmbedtls/mbedtls/library/bignum.c:583 (discriminator 2)
    8bc8:	d1000400 	sub	x0, x0, #0x1
    8bcc:	17ffffdc 	b	8b3c <mbedtls_mpi_write_string+0xe4>
    8bd0:	d2800001 	mov	x1, #0x0                   	// #0
    8bd4:	17fffff9 	b	8bb8 <mbedtls_mpi_write_string+0x160>
/home/build/bsp/optee_os/lib/libmbedtls/mbedtls/library/bignum.c:597
    8bd8:	aa1403e1 	mov	x1, x20
    8bdc:	aa1b03e0 	mov	x0, x27
    8be0:	97fffa1e 	bl	7458 <mbedtls_mpi_copy>
    8be4:	2a0003f4 	mov	w20, w0
    8be8:	35fffb40 	cbnz	w0, 8b50 <mbedtls_mpi_write_string+0xf8>
/home/build/bsp/optee_os/lib/libmbedtls/mbedtls/library/bignum.c:599 (discriminator 2)
    8bec:	b9406be0 	ldr	w0, [sp, #104]
    8bf0:	3100041f 	cmn	w0, #0x1
    8bf4:	54000061 	b.ne	8c00 <mbedtls_mpi_write_string+0x1a8>  // b.any
/home/build/bsp/optee_os/lib/libmbedtls/mbedtls/library/bignum.c:600
    8bf8:	52800020 	mov	w0, #0x1                   	// #1
    8bfc:	b9006be0 	str	w0, [sp, #104]
mpi_write_hlp():
/home/build/bsp/optee_os/lib/libmbedtls/mbedtls/library/bignum.c:500
    8c00:	8b180279 	add	x25, x19, x24
/home/build/bsp/optee_os/lib/libmbedtls/mbedtls/library/bignum.c:507
    8c04:	910193fa 	add	x26, sp, #0x64
/home/build/bsp/optee_os/lib/libmbedtls/mbedtls/library/bignum.c:500
    8c08:	aa1903fc 	mov	x28, x25
/home/build/bsp/optee_os/lib/libmbedtls/mbedtls/library/bignum.c:503
    8c0c:	cb1c0320 	sub	x0, x25, x28
    8c10:	eb00031f 	cmp	x24, x0
    8c14:	54000489 	b.ls	8ca4 <mbedtls_mpi_write_string+0x24c>  // b.plast
/home/build/bsp/optee_os/lib/libmbedtls/mbedtls/library/bignum.c:507
    8c18:	2a1503e2 	mov	w2, w21
    8c1c:	aa1b03e1 	mov	x1, x27
    8c20:	aa1a03e0 	mov	x0, x26
    8c24:	97ffff66 	bl	89bc <mbedtls_mpi_mod_int>
    8c28:	2a0003f4 	mov	w20, w0
    8c2c:	35fff920 	cbnz	w0, 8b50 <mbedtls_mpi_write_string+0xf8>
/home/build/bsp/optee_os/lib/libmbedtls/mbedtls/library/bignum.c:508
    8c30:	2a1503e3 	mov	w3, w21
    8c34:	aa1b03e2 	mov	x2, x27
    8c38:	aa1b03e0 	mov	x0, x27
    8c3c:	d2800001 	mov	x1, #0x0                   	// #0
    8c40:	97ffff14 	bl	8890 <mbedtls_mpi_div_int>
    8c44:	2a0003f4 	mov	w20, w0
    8c48:	35fff840 	cbnz	w0, 8b50 <mbedtls_mpi_write_string+0xf8>
/home/build/bsp/optee_os/lib/libmbedtls/mbedtls/library/bignum.c:512
    8c4c:	b94067e2 	ldr	w2, [sp, #100]
/home/build/bsp/optee_os/lib/libmbedtls/mbedtls/library/bignum.c:513
    8c50:	12001c40 	and	w0, w2, #0xff
    8c54:	7100245f 	cmp	w2, #0x9
    8c58:	1100c001 	add	w1, w0, #0x30
    8c5c:	1100dc00 	add	w0, w0, #0x37
    8c60:	12001c21 	and	w1, w1, #0xff
    8c64:	12001c00 	and	w0, w0, #0xff
    8c68:	1a818000 	csel	w0, w0, w1, hi  // hi = pmore
    8c6c:	381fff80 	strb	w0, [x28, #-1]!
/home/build/bsp/optee_os/lib/libmbedtls/mbedtls/library/bignum.c:519
    8c70:	52800001 	mov	w1, #0x0                   	// #0
    8c74:	aa1b03e0 	mov	x0, x27
    8c78:	cb1c0334 	sub	x20, x25, x28
    8c7c:	97fffb94 	bl	7acc <mbedtls_mpi_cmp_int>
    8c80:	35fffc60 	cbnz	w0, 8c0c <mbedtls_mpi_write_string+0x1b4>
/home/build/bsp/optee_os/lib/libmbedtls/mbedtls/library/bignum.c:521
    8c84:	aa1303e0 	mov	x0, x19
    8c88:	aa1403e2 	mov	x2, x20
    8c8c:	aa1c03e1 	mov	x1, x28
/home/build/bsp/optee_os/lib/libmbedtls/mbedtls/library/bignum.c:522
    8c90:	8b140273 	add	x19, x19, x20
/home/build/bsp/optee_os/lib/libmbedtls/mbedtls/library/bignum.c:521
    8c94:	9400107e 	bl	ce8c <memmove>
/home/build/bsp/optee_os/lib/libmbedtls/mbedtls/library/bignum.c:522
    8c98:	17ffffaa 	b	8b40 <mbedtls_mpi_write_string+0xe8>
mbedtls_mpi_write_string():
/home/build/bsp/optee_os/lib/libmbedtls/mbedtls/library/bignum.c:544
    8c9c:	12800074 	mov	w20, #0xfffffffc            	// #-4
    8ca0:	17ffff8f 	b	8adc <mbedtls_mpi_write_string+0x84>
mpi_write_hlp():
/home/build/bsp/optee_os/lib/libmbedtls/mbedtls/library/bignum.c:504
    8ca4:	128000f4 	mov	w20, #0xfffffff8            	// #-8
    8ca8:	17ffffaa 	b	8b50 <mbedtls_mpi_write_string+0xf8>
mbedtls_mpi_write_string():
/home/build/bsp/optee_os/lib/libmbedtls/mbedtls/library/bignum.c:614
    8cac:	2a1403e0 	mov	w0, w20
    8cb0:	a94153f3 	ldp	x19, x20, [sp, #16]
    8cb4:	a9425bf5 	ldp	x21, x22, [sp, #32]
    8cb8:	a94363f7 	ldp	x23, x24, [sp, #48]
    8cbc:	a9446bf9 	ldp	x25, x26, [sp, #64]
    8cc0:	a94573fb 	ldp	x27, x28, [sp, #80]
    8cc4:	a8c97bfd 	ldp	x29, x30, [sp], #144
    8cc8:	d65f03c0 	ret

0000000000008ccc <mpi_check_small_factors>:
mpi_check_small_factors():
/home/build/bsp/optee_os/lib/libmbedtls/mbedtls/library/bignum.c:2303
    8ccc:	a9bc7bfd 	stp	x29, x30, [sp, #-64]!
    8cd0:	d0000042 	adrp	x2, 12000 <_DYNAMIC>
    8cd4:	910003fd 	mov	x29, sp
    8cd8:	f9409842 	ldr	x2, [x2, #304]
    8cdc:	a90153f3 	stp	x19, x20, [sp, #16]
    8ce0:	aa0003f4 	mov	x20, x0
    8ce4:	a9025bf5 	stp	x21, x22, [sp, #32]
    8ce8:	f9400040 	ldr	x0, [x2]
    8cec:	f9001fe0 	str	x0, [sp, #56]
    8cf0:	d2800000 	mov	x0, #0x0                   	// #0
/home/build/bsp/optee_os/lib/libmbedtls/mbedtls/library/bignum.c:2308
    8cf4:	f9400a80 	ldr	x0, [x20, #16]
    8cf8:	b9400000 	ldr	w0, [x0]
    8cfc:	360003a0 	tbz	w0, #0, 8d70 <mpi_check_small_factors+0xa4>
    8d00:	90000053 	adrp	x19, 10000 <__func__.0+0x28>
/home/build/bsp/optee_os/lib/libmbedtls/mbedtls/library/bignum.c:2317
    8d04:	9100d3f6 	add	x22, sp, #0x34
    8d08:	9104e273 	add	x19, x19, #0x138
/home/build/bsp/optee_os/lib/libmbedtls/mbedtls/library/bignum.c:2312
    8d0c:	b9400275 	ldr	w21, [x19]
    8d10:	710002bf 	cmp	w21, #0x0
    8d14:	5400014c 	b.gt	8d3c <mpi_check_small_factors+0x70>
/home/build/bsp/optee_os/lib/libmbedtls/mbedtls/library/bignum.c:2324
    8d18:	52800000 	mov	w0, #0x0                   	// #0
/home/build/bsp/optee_os/lib/libmbedtls/mbedtls/library/bignum.c:2326
    8d1c:	d0000042 	adrp	x2, 12000 <_DYNAMIC>
    8d20:	f9409842 	ldr	x2, [x2, #304]
    8d24:	f9401fe1 	ldr	x1, [sp, #56]
    8d28:	f9400043 	ldr	x3, [x2]
    8d2c:	eb030021 	subs	x1, x1, x3
    8d30:	d2800003 	mov	x3, #0x0                   	// #0
    8d34:	54000260 	b.eq	8d80 <mpi_check_small_factors+0xb4>  // b.none
    8d38:	97ffde5e 	bl	6b0 <__stack_chk_fail>
/home/build/bsp/optee_os/lib/libmbedtls/mbedtls/library/bignum.c:2313
    8d3c:	2a1503e1 	mov	w1, w21
    8d40:	aa1403e0 	mov	x0, x20
    8d44:	97fffb62 	bl	7acc <mbedtls_mpi_cmp_int>
    8d48:	7100001f 	cmp	w0, #0x0
    8d4c:	5400016d 	b.le	8d78 <mpi_check_small_factors+0xac>
/home/build/bsp/optee_os/lib/libmbedtls/mbedtls/library/bignum.c:2317
    8d50:	2a1503e2 	mov	w2, w21
    8d54:	aa1403e1 	mov	x1, x20
    8d58:	aa1603e0 	mov	x0, x22
    8d5c:	97ffff18 	bl	89bc <mbedtls_mpi_mod_int>
    8d60:	35fffde0 	cbnz	w0, 8d1c <mpi_check_small_factors+0x50>
/home/build/bsp/optee_os/lib/libmbedtls/mbedtls/library/bignum.c:2319
    8d64:	b94037e0 	ldr	w0, [sp, #52]
    8d68:	91001273 	add	x19, x19, #0x4
    8d6c:	35fffd00 	cbnz	w0, 8d0c <mpi_check_small_factors+0x40>
/home/build/bsp/optee_os/lib/libmbedtls/mbedtls/library/bignum.c:2309
    8d70:	128001a0 	mov	w0, #0xfffffff2            	// #-14
    8d74:	17ffffea 	b	8d1c <mpi_check_small_factors+0x50>
/home/build/bsp/optee_os/lib/libmbedtls/mbedtls/library/bignum.c:2314
    8d78:	52800020 	mov	w0, #0x1                   	// #1
    8d7c:	17ffffe8 	b	8d1c <mpi_check_small_factors+0x50>
/home/build/bsp/optee_os/lib/libmbedtls/mbedtls/library/bignum.c:2326
    8d80:	a94153f3 	ldp	x19, x20, [sp, #16]
    8d84:	a9425bf5 	ldp	x21, x22, [sp, #32]
    8d88:	a8c47bfd 	ldp	x29, x30, [sp], #64
    8d8c:	d65f03c0 	ret

0000000000008d90 <mbedtls_mpi_montg_init>:
mbedtls_mpi_montg_init():
/home/build/bsp/optee_os/lib/libmbedtls/mbedtls/library/bignum.c:1613
    8d90:	a9be7bfd 	stp	x29, x30, [sp, #-32]!
    8d94:	910003fd 	mov	x29, sp
    8d98:	f9000bf3 	str	x19, [sp, #16]
    8d9c:	aa0003f3 	mov	x19, x0
mpi_montg_init():
/home/build/bsp/optee_os/lib/libmbedtls/mbedtls/library/bignum.c:1609
    8da0:	f9400820 	ldr	x0, [x1, #16]
    8da4:	9400082a 	bl	ae4c <mbedtls_mpi_core_montmul_init>
    8da8:	b9000260 	str	w0, [x19]
mbedtls_mpi_montg_init():
/home/build/bsp/optee_os/lib/libmbedtls/mbedtls/library/bignum.c:1615
    8dac:	f9400bf3 	ldr	x19, [sp, #16]
    8db0:	a8c27bfd 	ldp	x29, x30, [sp], #32
    8db4:	d65f03c0 	ret

0000000000008db8 <mbedtls_mpi_montmul>:
mbedtls_mpi_montmul():
/home/build/bsp/optee_os/lib/libmbedtls/mbedtls/library/bignum.c:1649
    8db8:	f9400800 	ldr	x0, [x0, #16]
    8dbc:	f9400884 	ldr	x4, [x4, #16]
    8dc0:	17fff8bc 	b	70b0 <mpi_montmul.isra.0>

0000000000008dc4 <mbedtls_mpi_montred>:
mbedtls_mpi_montred():
/home/build/bsp/optee_os/lib/libmbedtls/mbedtls/library/bignum.c:1672
    8dc4:	17fff8c2 	b	70cc <mpi_montred>

0000000000008dc8 <mbedtls_mpi_exp_mod>:
mbedtls_mpi_exp_mod():
/home/build/bsp/optee_os/lib/libmbedtls/mbedtls/library/bignum.c:1710
    8dc8:	a9aa7bfd 	stp	x29, x30, [sp, #-352]!
    8dcc:	910003fd 	mov	x29, sp
    8dd0:	a90363f7 	stp	x23, x24, [sp, #48]
    8dd4:	d0000057 	adrp	x23, 12000 <_DYNAMIC>
    8dd8:	f90063e0 	str	x0, [sp, #192]
    8ddc:	f9409ae0 	ldr	x0, [x23, #304]
    8de0:	a90153f3 	stp	x19, x20, [sp, #16]
    8de4:	a9025bf5 	stp	x21, x22, [sp, #32]
    8de8:	aa0303f5 	mov	x21, x3
    8dec:	a9046bf9 	stp	x25, x26, [sp, #64]
    8df0:	aa0103f9 	mov	x25, x1
    8df4:	aa0203fa 	mov	x26, x2
    8df8:	a90573fb 	stp	x27, x28, [sp, #80]
    8dfc:	f9003be4 	str	x4, [sp, #112]
    8e00:	f9400001 	ldr	x1, [x0]
    8e04:	f900afe1 	str	x1, [sp, #344]
    8e08:	d2800001 	mov	x1, #0x0                   	// #0
/home/build/bsp/optee_os/lib/libmbedtls/mbedtls/library/bignum.c:1727
    8e0c:	aa0303e0 	mov	x0, x3
    8e10:	97fffb2f 	bl	7acc <mbedtls_mpi_cmp_int>
    8e14:	f90057f7 	str	x23, [sp, #168]
    8e18:	7100001f 	cmp	w0, #0x0
    8e1c:	5400014c 	b.gt	8e44 <mbedtls_mpi_exp_mod+0x7c>
/home/build/bsp/optee_os/lib/libmbedtls/mbedtls/library/bignum.c:1728
    8e20:	12800073 	mov	w19, #0xfffffffc            	// #-4
/home/build/bsp/optee_os/lib/libmbedtls/mbedtls/library/bignum.c:2009
    8e24:	f94057e0 	ldr	x0, [sp, #168]
    8e28:	f9409800 	ldr	x0, [x0, #304]
    8e2c:	f940afe2 	ldr	x2, [sp, #344]
    8e30:	f9400001 	ldr	x1, [x0]
    8e34:	eb010042 	subs	x2, x2, x1
    8e38:	d2800001 	mov	x1, #0x0                   	// #0
    8e3c:	54003020 	b.eq	9440 <mbedtls_mpi_exp_mod+0x678>  // b.none
    8e40:	97ffde1c 	bl	6b0 <__stack_chk_fail>
/home/build/bsp/optee_os/lib/libmbedtls/mbedtls/library/bignum.c:1727 (discriminator 1)
    8e44:	f9400aa0 	ldr	x0, [x21, #16]
    8e48:	b9400000 	ldr	w0, [x0]
    8e4c:	12000001 	and	w1, w0, #0x1
    8e50:	b900cbe1 	str	w1, [sp, #200]
    8e54:	3607fe60 	tbz	w0, #0, 8e20 <mbedtls_mpi_exp_mod+0x58>
/home/build/bsp/optee_os/lib/libmbedtls/mbedtls/library/bignum.c:1731
    8e58:	aa1a03e0 	mov	x0, x26
    8e5c:	52800001 	mov	w1, #0x0                   	// #0
    8e60:	97fffb1b 	bl	7acc <mbedtls_mpi_cmp_int>
    8e64:	37fffde0 	tbnz	w0, #31, 8e20 <mbedtls_mpi_exp_mod+0x58>
/home/build/bsp/optee_os/lib/libmbedtls/mbedtls/library/bignum.c:1735
    8e68:	aa1a03e0 	mov	x0, x26
    8e6c:	97fffa2e 	bl	7724 <mbedtls_mpi_bitlen>
    8e70:	f140081f 	cmp	x0, #0x2, lsl #12
    8e74:	54fffd68 	b.hi	8e20 <mbedtls_mpi_exp_mod+0x58>  // b.pmore
/home/build/bsp/optee_os/lib/libmbedtls/mbedtls/library/bignum.c:1736 (discriminator 1)
    8e78:	aa1503e0 	mov	x0, x21
    8e7c:	97fffa2a 	bl	7724 <mbedtls_mpi_bitlen>
/home/build/bsp/optee_os/lib/libmbedtls/mbedtls/library/bignum.c:1735 (discriminator 1)
    8e80:	f140081f 	cmp	x0, #0x2, lsl #12
    8e84:	54fffce8 	b.hi	8e20 <mbedtls_mpi_exp_mod+0x58>  // b.pmore
mpi_montg_init():
/home/build/bsp/optee_os/lib/libmbedtls/mbedtls/library/bignum.c:1609
    8e88:	f9400aa0 	ldr	x0, [x21, #16]
mbedtls_mpi_exp_mod():
/home/build/bsp/optee_os/lib/libmbedtls/mbedtls/library/bignum.c:1744
    8e8c:	910363f8 	add	x24, sp, #0xd8
/home/build/bsp/optee_os/lib/libmbedtls/mbedtls/library/bignum.c:1746
    8e90:	910463f6 	add	x22, sp, #0x118
mpi_montg_init():
/home/build/bsp/optee_os/lib/libmbedtls/mbedtls/library/bignum.c:1609
    8e94:	940007ee 	bl	ae4c <mbedtls_mpi_core_montmul_init>
    8e98:	2a0003f7 	mov	w23, w0
mbedtls_mpi_exp_mod():
/home/build/bsp/optee_os/lib/libmbedtls/mbedtls/library/bignum.c:1744
    8e9c:	aa1803e0 	mov	x0, x24
    8ea0:	97fff8ae 	bl	7158 <mbedtls_mpi_init_mempool>
    8ea4:	9103e3e0 	add	x0, sp, #0xf8
    8ea8:	f90047e0 	str	x0, [sp, #136]
    8eac:	97fff8a6 	bl	7144 <mbedtls_mpi_init>
/home/build/bsp/optee_os/lib/libmbedtls/mbedtls/library/bignum.c:1745
    8eb0:	9104e3e0 	add	x0, sp, #0x138
    8eb4:	f9004fe0 	str	x0, [sp, #152]
    8eb8:	97fff8a8 	bl	7158 <mbedtls_mpi_init_mempool>
/home/build/bsp/optee_os/lib/libmbedtls/mbedtls/library/bignum.c:1746
    8ebc:	aa1603e0 	mov	x0, x22
    8ec0:	97fff8a6 	bl	7158 <mbedtls_mpi_init_mempool>
/home/build/bsp/optee_os/lib/libmbedtls/mbedtls/library/bignum.c:1748
    8ec4:	aa1a03e0 	mov	x0, x26
    8ec8:	97fffa17 	bl	7724 <mbedtls_mpi_bitlen>
/home/build/bsp/optee_os/lib/libmbedtls/mbedtls/library/bignum.c:1750
    8ecc:	f1005c1f 	cmp	x0, #0x17
/home/build/bsp/optee_os/lib/libmbedtls/mbedtls/library/bignum.c:1761
    8ed0:	d2802001 	mov	x1, #0x100                 	// #256
/home/build/bsp/optee_os/lib/libmbedtls/mbedtls/library/bignum.c:1750
    8ed4:	9a9f97e0 	cset	x0, hi  // hi = pmore
    8ed8:	91000400 	add	x0, x0, #0x1
    8edc:	f9003fe0 	str	x0, [sp, #120]
/home/build/bsp/optee_os/lib/libmbedtls/mbedtls/library/bignum.c:1761
    8ee0:	f94057e0 	ldr	x0, [sp, #168]
    8ee4:	f940ec00 	ldr	x0, [x0, #472]
    8ee8:	f9400000 	ldr	x0, [x0]
    8eec:	9400104f 	bl	d028 <mempool_alloc>
    8ef0:	aa0003f4 	mov	x20, x0
/home/build/bsp/optee_os/lib/libmbedtls/mbedtls/library/bignum.c:1763
    8ef4:	b4002a20 	cbz	x0, 9438 <mbedtls_mpi_exp_mod+0x670>
    8ef8:	aa1403f3 	mov	x19, x20
    8efc:	91040000 	add	x0, x0, #0x100
    8f00:	f9004bf4 	str	x20, [sp, #144]
    8f04:	f9005fe0 	str	x0, [sp, #184]
/home/build/bsp/optee_os/lib/libmbedtls/mbedtls/library/bignum.c:1768 (discriminator 3)
    8f08:	aa1303e0 	mov	x0, x19
    8f0c:	97fff893 	bl	7158 <mbedtls_mpi_init_mempool>
/home/build/bsp/optee_os/lib/libmbedtls/mbedtls/library/bignum.c:1767 (discriminator 3)
    8f10:	f9405fe0 	ldr	x0, [sp, #184]
    8f14:	91008273 	add	x19, x19, #0x20
    8f18:	eb00027f 	cmp	x19, x0
    8f1c:	54ffff61 	b.ne	8f08 <mbedtls_mpi_exp_mod+0x140>  // b.any
/home/build/bsp/optee_os/lib/libmbedtls/mbedtls/library/bignum.c:1802
    8f20:	f94063e1 	ldr	x1, [sp, #192]
    8f24:	aa1403e0 	mov	x0, x20
    8f28:	97fff94c 	bl	7458 <mbedtls_mpi_copy>
/home/build/bsp/optee_os/lib/libmbedtls/mbedtls/library/bignum.c:1804
    8f2c:	f94006bc 	ldr	x28, [x21, #8]
/home/build/bsp/optee_os/lib/libmbedtls/mbedtls/library/bignum.c:1810
    8f30:	aa1403e0 	mov	x0, x20
/home/build/bsp/optee_os/lib/libmbedtls/mbedtls/library/bignum.c:1804
    8f34:	9100079c 	add	x28, x28, #0x1
/home/build/bsp/optee_os/lib/libmbedtls/mbedtls/library/bignum.c:1810
    8f38:	aa1c03e1 	mov	x1, x28
    8f3c:	97fff8ac 	bl	71ec <mbedtls_mpi_grow>
    8f40:	2a0003f3 	mov	w19, w0
    8f44:	350022a0 	cbnz	w0, 9398 <mbedtls_mpi_exp_mod+0x5d0>
/home/build/bsp/optee_os/lib/libmbedtls/mbedtls/library/bignum.c:1812 (discriminator 2)
    8f48:	f94047e0 	ldr	x0, [sp, #136]
    8f4c:	d37ffb81 	lsl	x1, x28, #1
    8f50:	97fff8a7 	bl	71ec <mbedtls_mpi_grow>
    8f54:	2a0003f3 	mov	w19, w0
    8f58:	35002200 	cbnz	w0, 9398 <mbedtls_mpi_exp_mod+0x5d0>
/home/build/bsp/optee_os/lib/libmbedtls/mbedtls/library/bignum.c:1817 (discriminator 2)
    8f5c:	b9400320 	ldr	w0, [x25]
    8f60:	b900a7e0 	str	w0, [sp, #164]
/home/build/bsp/optee_os/lib/libmbedtls/mbedtls/library/bignum.c:1818 (discriminator 2)
    8f64:	2a0003e0 	mov	w0, w0
    8f68:	3100041f 	cmn	w0, #0x1
    8f6c:	54000121 	b.ne	8f90 <mbedtls_mpi_exp_mod+0x1c8>  // b.any
/home/build/bsp/optee_os/lib/libmbedtls/mbedtls/library/bignum.c:1819
    8f70:	f9404fe0 	ldr	x0, [sp, #152]
    8f74:	aa1903e1 	mov	x1, x25
    8f78:	97fff938 	bl	7458 <mbedtls_mpi_copy>
    8f7c:	2a0003f3 	mov	w19, w0
    8f80:	350020c0 	cbnz	w0, 9398 <mbedtls_mpi_exp_mod+0x5d0>
/home/build/bsp/optee_os/lib/libmbedtls/mbedtls/library/bignum.c:1821 (discriminator 2)
    8f84:	f9404ff9 	ldr	x25, [sp, #152]
/home/build/bsp/optee_os/lib/libmbedtls/mbedtls/library/bignum.c:1820 (discriminator 2)
    8f88:	52800020 	mov	w0, #0x1                   	// #1
    8f8c:	b9013be0 	str	w0, [sp, #312]
/home/build/bsp/optee_os/lib/libmbedtls/mbedtls/library/bignum.c:1827
    8f90:	f9403be0 	ldr	x0, [sp, #112]
    8f94:	b4000060 	cbz	x0, 8fa0 <mbedtls_mpi_exp_mod+0x1d8>
/home/build/bsp/optee_os/lib/libmbedtls/mbedtls/library/bignum.c:1827 (discriminator 1)
    8f98:	f9400800 	ldr	x0, [x0, #16]
    8f9c:	b5000da0 	cbnz	x0, 9150 <mbedtls_mpi_exp_mod+0x388>
/home/build/bsp/optee_os/lib/libmbedtls/mbedtls/library/bignum.c:1828
    8fa0:	aa1803e0 	mov	x0, x24
    8fa4:	52800021 	mov	w1, #0x1                   	// #1
    8fa8:	97fff982 	bl	75b0 <mbedtls_mpi_lset>
    8fac:	2a0003f3 	mov	w19, w0
    8fb0:	35001f40 	cbnz	w0, 9398 <mbedtls_mpi_exp_mod+0x5d0>
/home/build/bsp/optee_os/lib/libmbedtls/mbedtls/library/bignum.c:1829 (discriminator 2)
    8fb4:	f94006a1 	ldr	x1, [x21, #8]
    8fb8:	aa1803e0 	mov	x0, x24
    8fbc:	d37ae421 	lsl	x1, x1, #6
    8fc0:	97fffa18 	bl	7820 <mbedtls_mpi_shift_l>
    8fc4:	2a0003f3 	mov	w19, w0
    8fc8:	35001e80 	cbnz	w0, 9398 <mbedtls_mpi_exp_mod+0x5d0>
/home/build/bsp/optee_os/lib/libmbedtls/mbedtls/library/bignum.c:1830 (discriminator 2)
    8fcc:	aa1503e2 	mov	x2, x21
    8fd0:	aa1803e1 	mov	x1, x24
    8fd4:	aa1803e0 	mov	x0, x24
    8fd8:	97fffe4c 	bl	8908 <mbedtls_mpi_mod_mpi>
    8fdc:	2a0003f3 	mov	w19, w0
    8fe0:	35001dc0 	cbnz	w0, 9398 <mbedtls_mpi_exp_mod+0x5d0>
/home/build/bsp/optee_os/lib/libmbedtls/mbedtls/library/bignum.c:1832 (discriminator 2)
    8fe4:	f9403be0 	ldr	x0, [sp, #112]
    8fe8:	b4000080 	cbz	x0, 8ff8 <mbedtls_mpi_exp_mod+0x230>
/home/build/bsp/optee_os/lib/libmbedtls/mbedtls/library/bignum.c:1833
    8fec:	aa1803e1 	mov	x1, x24
    8ff0:	d2800402 	mov	x2, #0x20                  	// #32
/home/build/bsp/optee_os/lib/libmbedtls/mbedtls/library/bignum.c:1836
    8ff4:	97ffdc03 	bl	0 <memcpy>
/home/build/bsp/optee_os/lib/libmbedtls/mbedtls/library/bignum.c:1839
    8ff8:	9100829b 	add	x27, x20, #0x20
    8ffc:	aa1c03e1 	mov	x1, x28
    9000:	aa1b03e0 	mov	x0, x27
    9004:	97fff87a 	bl	71ec <mbedtls_mpi_grow>
    9008:	2a0003f3 	mov	w19, w0
    900c:	35001c60 	cbnz	w0, 9398 <mbedtls_mpi_exp_mod+0x5d0>
/home/build/bsp/optee_os/lib/libmbedtls/mbedtls/library/bignum.c:1844 (discriminator 2)
    9010:	aa1503e1 	mov	x1, x21
    9014:	aa1903e0 	mov	x0, x25
    9018:	97fffa79 	bl	79fc <mbedtls_mpi_cmp_mpi>
    901c:	37f80a20 	tbnz	w0, #31, 9160 <mbedtls_mpi_exp_mod+0x398>
/home/build/bsp/optee_os/lib/libmbedtls/mbedtls/library/bignum.c:1845
    9020:	aa1503e2 	mov	x2, x21
    9024:	aa1903e1 	mov	x1, x25
    9028:	aa1b03e0 	mov	x0, x27
    902c:	97fffe37 	bl	8908 <mbedtls_mpi_mod_mpi>
    9030:	2a0003f3 	mov	w19, w0
    9034:	35001b20 	cbnz	w0, 9398 <mbedtls_mpi_exp_mod+0x5d0>
/home/build/bsp/optee_os/lib/libmbedtls/mbedtls/library/bignum.c:1849 (discriminator 2)
    9038:	f94006a1 	ldr	x1, [x21, #8]
    903c:	aa1b03e0 	mov	x0, x27
    9040:	91000421 	add	x1, x1, #0x1
    9044:	97fff86a 	bl	71ec <mbedtls_mpi_grow>
    9048:	2a0003f3 	mov	w19, w0
    904c:	35001a60 	cbnz	w0, 9398 <mbedtls_mpi_exp_mod+0x5d0>
/home/build/bsp/optee_os/lib/libmbedtls/mbedtls/library/bignum.c:1856
    9050:	f9401a80 	ldr	x0, [x20, #48]
    9054:	2a1703e3 	mov	w3, w23
    9058:	f94087e4 	ldr	x4, [sp, #264]
    905c:	aa1503e2 	mov	x2, x21
    9060:	aa1803e1 	mov	x1, x24
    9064:	97fff813 	bl	70b0 <mpi_montmul.isra.0>
/home/build/bsp/optee_os/lib/libmbedtls/mbedtls/library/bignum.c:1861
    9068:	aa1803e1 	mov	x1, x24
    906c:	aa1403e0 	mov	x0, x20
    9070:	97fff8fa 	bl	7458 <mbedtls_mpi_copy>
    9074:	2a0003f3 	mov	w19, w0
    9078:	35001900 	cbnz	w0, 9398 <mbedtls_mpi_exp_mod+0x5d0>
/home/build/bsp/optee_os/lib/libmbedtls/mbedtls/library/bignum.c:1759 (discriminator 2)
    907c:	b9407be0 	ldr	w0, [sp, #120]
    9080:	d2800039 	mov	x25, #0x1                   	// #1
/home/build/bsp/optee_os/lib/libmbedtls/mbedtls/library/bignum.c:1862 (discriminator 2)
    9084:	f94047e3 	ldr	x3, [sp, #136]
/home/build/bsp/optee_os/lib/libmbedtls/mbedtls/library/bignum.c:1759 (discriminator 2)
    9088:	b900cfe0 	str	w0, [sp, #204]
    908c:	3941e3e0 	ldrb	w0, [sp, #120]
/home/build/bsp/optee_os/lib/libmbedtls/mbedtls/library/bignum.c:1862 (discriminator 2)
    9090:	2a1703e2 	mov	w2, w23
    9094:	aa1503e1 	mov	x1, x21
/home/build/bsp/optee_os/lib/libmbedtls/mbedtls/library/bignum.c:1759 (discriminator 2)
    9098:	9ac02339 	lsl	x25, x25, x0
/home/build/bsp/optee_os/lib/libmbedtls/mbedtls/library/bignum.c:1862 (discriminator 2)
    909c:	aa1403e0 	mov	x0, x20
    90a0:	97fff80b 	bl	70cc <mpi_montred>
/home/build/bsp/optee_os/lib/libmbedtls/mbedtls/library/bignum.c:1865 (discriminator 2)
    90a4:	f9403fe0 	ldr	x0, [sp, #120]
    90a8:	f100081f 	cmp	x0, #0x2
    90ac:	54000620 	b.eq	9170 <mbedtls_mpi_exp_mod+0x3a8>  // b.none
/home/build/bsp/optee_os/lib/libmbedtls/mbedtls/library/bignum.c:1896
    90b0:	f940075c 	ldr	x28, [x26, #8]
/home/build/bsp/optee_os/lib/libmbedtls/mbedtls/library/bignum.c:1899
    90b4:	52800002 	mov	w2, #0x0                   	// #0
/home/build/bsp/optee_os/lib/libmbedtls/mbedtls/library/bignum.c:1715
    90b8:	d280001b 	mov	x27, #0x0                   	// #0
/home/build/bsp/optee_os/lib/libmbedtls/mbedtls/library/bignum.c:1898
    90bc:	f90037ff 	str	xzr, [sp, #104]
/home/build/bsp/optee_os/lib/libmbedtls/mbedtls/library/bignum.c:1897
    90c0:	f90043ff 	str	xzr, [sp, #128]
/home/build/bsp/optee_os/lib/libmbedtls/mbedtls/library/bignum.c:1902
    90c4:	f94043e0 	ldr	x0, [sp, #128]
    90c8:	b50000a0 	cbnz	x0, 90dc <mbedtls_mpi_exp_mod+0x314>
/home/build/bsp/optee_os/lib/libmbedtls/mbedtls/library/bignum.c:1903
    90cc:	b40014bc 	cbz	x28, 9360 <mbedtls_mpi_exp_mod+0x598>
/home/build/bsp/optee_os/lib/libmbedtls/mbedtls/library/bignum.c:1907
    90d0:	d100079c 	sub	x28, x28, #0x1
/home/build/bsp/optee_os/lib/libmbedtls/mbedtls/library/bignum.c:1909
    90d4:	d2800400 	mov	x0, #0x20                  	// #32
    90d8:	f90043e0 	str	x0, [sp, #128]
/home/build/bsp/optee_os/lib/libmbedtls/mbedtls/library/bignum.c:1912
    90dc:	f94043e0 	ldr	x0, [sp, #128]
    90e0:	d1000400 	sub	x0, x0, #0x1
    90e4:	f90043e0 	str	x0, [sp, #128]
/home/build/bsp/optee_os/lib/libmbedtls/mbedtls/library/bignum.c:1914
    90e8:	f9400b40 	ldr	x0, [x26, #16]
    90ec:	394203e1 	ldrb	w1, [sp, #128]
    90f0:	b87c7800 	ldr	w0, [x0, x28, lsl #2]
    90f4:	1ac12400 	lsr	w0, w0, w1
    90f8:	12000000 	and	w0, w0, #0x1
/home/build/bsp/optee_os/lib/libmbedtls/mbedtls/library/bignum.c:1919
    90fc:	2a000041 	orr	w1, w2, w0
    9100:	34000941 	cbz	w1, 9228 <mbedtls_mpi_exp_mod+0x460>
/home/build/bsp/optee_os/lib/libmbedtls/mbedtls/library/bignum.c:1923
    9104:	7100045f 	cmp	w2, #0x1
    9108:	52000001 	eor	w1, w0, #0x1
    910c:	1a9f17e2 	cset	w2, eq  // eq = none
    9110:	6a01005f 	tst	w2, w1
    9114:	540008e0 	b.eq	9230 <mbedtls_mpi_exp_mod+0x468>  // b.none
/home/build/bsp/optee_os/lib/libmbedtls/mbedtls/library/bignum.c:1927
    9118:	aa1903e2 	mov	x2, x25
    911c:	aa1403e1 	mov	x1, x20
    9120:	aa1603e0 	mov	x0, x22
    9124:	d2800003 	mov	x3, #0x0                   	// #0
    9128:	97fff7c8 	bl	7048 <mpi_select>
    912c:	35001820 	cbnz	w0, 9430 <mbedtls_mpi_exp_mod+0x668>
/home/build/bsp/optee_os/lib/libmbedtls/mbedtls/library/bignum.c:1928 (discriminator 2)
    9130:	f9400a80 	ldr	x0, [x20, #16]
    9134:	aa1603e1 	mov	x1, x22
    9138:	f94087e4 	ldr	x4, [sp, #264]
    913c:	2a1703e3 	mov	w3, w23
    9140:	aa1503e2 	mov	x2, x21
    9144:	97fff7db 	bl	70b0 <mpi_montmul.isra.0>
/home/build/bsp/optee_os/lib/libmbedtls/mbedtls/library/bignum.c:1929 (discriminator 2)
    9148:	b940cbe1 	ldr	w1, [sp, #200]
    914c:	14000037 	b	9228 <mbedtls_mpi_exp_mod+0x460>
/home/build/bsp/optee_os/lib/libmbedtls/mbedtls/library/bignum.c:1836
    9150:	aa1803e0 	mov	x0, x24
    9154:	d2800402 	mov	x2, #0x20                  	// #32
    9158:	f9403be1 	ldr	x1, [sp, #112]
    915c:	17ffffa6 	b	8ff4 <mbedtls_mpi_exp_mod+0x22c>
/home/build/bsp/optee_os/lib/libmbedtls/mbedtls/library/bignum.c:1851
    9160:	aa1903e1 	mov	x1, x25
    9164:	aa1b03e0 	mov	x0, x27
    9168:	97fff8bc 	bl	7458 <mbedtls_mpi_copy>
    916c:	17ffffb7 	b	9048 <mbedtls_mpi_exp_mod+0x280>
/home/build/bsp/optee_os/lib/libmbedtls/mbedtls/library/bignum.c:1876
    9170:	d341ff20 	lsr	x0, x25, #1
    9174:	f90037e0 	str	x0, [sp, #104]
/home/build/bsp/optee_os/lib/libmbedtls/mbedtls/library/bignum.c:1878
    9178:	f94006a1 	ldr	x1, [x21, #8]
    917c:	8b00169c 	add	x28, x20, x0, lsl #5
    9180:	aa1c03e0 	mov	x0, x28
    9184:	91000421 	add	x1, x1, #0x1
    9188:	97fff819 	bl	71ec <mbedtls_mpi_grow>
    918c:	35001520 	cbnz	w0, 9430 <mbedtls_mpi_exp_mod+0x668>
/home/build/bsp/optee_os/lib/libmbedtls/mbedtls/library/bignum.c:1879 (discriminator 2)
    9190:	aa1b03e1 	mov	x1, x27
    9194:	aa1c03e0 	mov	x0, x28
    9198:	97fff8b0 	bl	7458 <mbedtls_mpi_copy>
    919c:	350014a0 	cbnz	w0, 9430 <mbedtls_mpi_exp_mod+0x668>
/home/build/bsp/optee_os/lib/libmbedtls/mbedtls/library/bignum.c:1882 (discriminator 1)
    91a0:	f9400b80 	ldr	x0, [x28, #16]
    91a4:	2a1703e3 	mov	w3, w23
    91a8:	f94087e4 	ldr	x4, [sp, #264]
    91ac:	aa1503e2 	mov	x2, x21
    91b0:	aa1c03e1 	mov	x1, x28
    91b4:	97fff7bf 	bl	70b0 <mpi_montmul.isra.0>
/home/build/bsp/optee_os/lib/libmbedtls/mbedtls/library/bignum.c:1888 (discriminator 1)
    91b8:	d341ff20 	lsr	x0, x25, #1
/home/build/bsp/optee_os/lib/libmbedtls/mbedtls/library/bignum.c:1888 (discriminator 2)
    91bc:	91000400 	add	x0, x0, #0x1
    91c0:	f90037e0 	str	x0, [sp, #104]
    91c4:	aa1c03e5 	mov	x5, x28
    91c8:	f94037e0 	ldr	x0, [sp, #104]
    91cc:	eb19001f 	cmp	x0, x25
    91d0:	54fff702 	b.cs	90b0 <mbedtls_mpi_exp_mod+0x2e8>  // b.hs, b.nlast
/home/build/bsp/optee_os/lib/libmbedtls/mbedtls/library/bignum.c:1889
    91d4:	f94006a1 	ldr	x1, [x21, #8]
    91d8:	910080bc 	add	x28, x5, #0x20
    91dc:	aa1c03e0 	mov	x0, x28
    91e0:	f90043e5 	str	x5, [sp, #128]
    91e4:	91000421 	add	x1, x1, #0x1
    91e8:	97fff801 	bl	71ec <mbedtls_mpi_grow>
    91ec:	35001220 	cbnz	w0, 9430 <mbedtls_mpi_exp_mod+0x668>
/home/build/bsp/optee_os/lib/libmbedtls/mbedtls/library/bignum.c:1890 (discriminator 2)
    91f0:	f94043e5 	ldr	x5, [sp, #128]
    91f4:	aa1c03e0 	mov	x0, x28
    91f8:	aa0503e1 	mov	x1, x5
    91fc:	97fff897 	bl	7458 <mbedtls_mpi_copy>
    9200:	35001180 	cbnz	w0, 9430 <mbedtls_mpi_exp_mod+0x668>
/home/build/bsp/optee_os/lib/libmbedtls/mbedtls/library/bignum.c:1892 (discriminator 2)
    9204:	f9400b80 	ldr	x0, [x28, #16]
    9208:	2a1703e3 	mov	w3, w23
    920c:	f94087e4 	ldr	x4, [sp, #264]
    9210:	aa1503e2 	mov	x2, x21
    9214:	aa1b03e1 	mov	x1, x27
    9218:	97fff7a6 	bl	70b0 <mpi_montmul.isra.0>
/home/build/bsp/optee_os/lib/libmbedtls/mbedtls/library/bignum.c:1888 (discriminator 2)
    921c:	f94037e0 	ldr	x0, [sp, #104]
    9220:	17ffffe7 	b	91bc <mbedtls_mpi_exp_mod+0x3f4>
/home/build/bsp/optee_os/lib/libmbedtls/mbedtls/library/bignum.c:1935
    9224:	52800041 	mov	w1, #0x2                   	// #2
/home/build/bsp/optee_os/lib/libmbedtls/mbedtls/library/bignum.c:1958
    9228:	2a0103e2 	mov	w2, w1
    922c:	17ffffa6 	b	90c4 <mbedtls_mpi_exp_mod+0x2fc>
/home/build/bsp/optee_os/lib/libmbedtls/mbedtls/library/bignum.c:1937
    9230:	f94037e1 	ldr	x1, [sp, #104]
    9234:	91000421 	add	x1, x1, #0x1
    9238:	f90037e1 	str	x1, [sp, #104]
/home/build/bsp/optee_os/lib/libmbedtls/mbedtls/library/bignum.c:1938
    923c:	b940cfe1 	ldr	w1, [sp, #204]
    9240:	b9406be2 	ldr	w2, [sp, #104]
    9244:	4b020021 	sub	w1, w1, w2
    9248:	1ac12000 	lsl	w0, w0, w1
    924c:	aa00037b 	orr	x27, x27, x0
/home/build/bsp/optee_os/lib/libmbedtls/mbedtls/library/bignum.c:1940
    9250:	f94037e1 	ldr	x1, [sp, #104]
    9254:	f9403fe0 	ldr	x0, [sp, #120]
    9258:	eb01001f 	cmp	x0, x1
    925c:	54fffe41 	b.ne	9224 <mbedtls_mpi_exp_mod+0x45c>  // b.any
/home/build/bsp/optee_os/lib/libmbedtls/mbedtls/library/bignum.c:1944
    9260:	f9005bff 	str	xzr, [sp, #176]
/home/build/bsp/optee_os/lib/libmbedtls/mbedtls/library/bignum.c:1945
    9264:	aa1903e2 	mov	x2, x25
    9268:	aa1403e1 	mov	x1, x20
    926c:	aa1603e0 	mov	x0, x22
    9270:	d2800003 	mov	x3, #0x0                   	// #0
    9274:	97fff775 	bl	7048 <mpi_select>
    9278:	35000dc0 	cbnz	w0, 9430 <mbedtls_mpi_exp_mod+0x668>
/home/build/bsp/optee_os/lib/libmbedtls/mbedtls/library/bignum.c:1947 (discriminator 2)
    927c:	f9400a80 	ldr	x0, [x20, #16]
    9280:	aa1603e1 	mov	x1, x22
    9284:	f94087e4 	ldr	x4, [sp, #264]
    9288:	2a1703e3 	mov	w3, w23
    928c:	aa1503e2 	mov	x2, x21
    9290:	97fff788 	bl	70b0 <mpi_montmul.isra.0>
/home/build/bsp/optee_os/lib/libmbedtls/mbedtls/library/bignum.c:1944 (discriminator 2)
    9294:	d2800021 	mov	x1, #0x1                   	// #1
    9298:	f9405be0 	ldr	x0, [sp, #176]
    929c:	f9005be1 	str	x1, [sp, #176]
    92a0:	f94037e1 	ldr	x1, [sp, #104]
    92a4:	91000400 	add	x0, x0, #0x1
    92a8:	eb00003f 	cmp	x1, x0
    92ac:	54fffdc8 	b.hi	9264 <mbedtls_mpi_exp_mod+0x49c>  // b.pmore
/home/build/bsp/optee_os/lib/libmbedtls/mbedtls/library/bignum.c:1953
    92b0:	aa1b03e3 	mov	x3, x27
    92b4:	aa1903e2 	mov	x2, x25
    92b8:	aa1403e1 	mov	x1, x20
    92bc:	aa1603e0 	mov	x0, x22
    92c0:	97fff762 	bl	7048 <mpi_select>
    92c4:	35000b60 	cbnz	w0, 9430 <mbedtls_mpi_exp_mod+0x668>
/home/build/bsp/optee_os/lib/libmbedtls/mbedtls/library/bignum.c:1955 (discriminator 2)
    92c8:	f9400a80 	ldr	x0, [x20, #16]
    92cc:	aa1603e1 	mov	x1, x22
    92d0:	f94087e4 	ldr	x4, [sp, #264]
    92d4:	2a1703e3 	mov	w3, w23
    92d8:	aa1503e2 	mov	x2, x21
/home/build/bsp/optee_os/lib/libmbedtls/mbedtls/library/bignum.c:1959 (discriminator 2)
    92dc:	d280001b 	mov	x27, #0x0                   	// #0
/home/build/bsp/optee_os/lib/libmbedtls/mbedtls/library/bignum.c:1955 (discriminator 2)
    92e0:	97fff774 	bl	70b0 <mpi_montmul.isra.0>
/home/build/bsp/optee_os/lib/libmbedtls/mbedtls/library/bignum.c:1958 (discriminator 2)
    92e4:	f90037ff 	str	xzr, [sp, #104]
/home/build/bsp/optee_os/lib/libmbedtls/mbedtls/library/bignum.c:1957 (discriminator 2)
    92e8:	b940cbe1 	ldr	w1, [sp, #200]
    92ec:	17ffffcf 	b	9228 <mbedtls_mpi_exp_mod+0x460>
/home/build/bsp/optee_os/lib/libmbedtls/mbedtls/library/bignum.c:1967
    92f0:	aa1903e2 	mov	x2, x25
    92f4:	aa1403e1 	mov	x1, x20
    92f8:	aa1603e0 	mov	x0, x22
    92fc:	d2800003 	mov	x3, #0x0                   	// #0
    9300:	97fff752 	bl	7048 <mpi_select>
    9304:	35000960 	cbnz	w0, 9430 <mbedtls_mpi_exp_mod+0x668>
/home/build/bsp/optee_os/lib/libmbedtls/mbedtls/library/bignum.c:1968 (discriminator 2)
    9308:	f9400a80 	ldr	x0, [x20, #16]
/home/build/bsp/optee_os/lib/libmbedtls/mbedtls/library/bignum.c:1970 (discriminator 2)
    930c:	d37ffb7b 	lsl	x27, x27, #1
/home/build/bsp/optee_os/lib/libmbedtls/mbedtls/library/bignum.c:1968 (discriminator 2)
    9310:	f94087e4 	ldr	x4, [sp, #264]
    9314:	2a1703e3 	mov	w3, w23
    9318:	aa1503e2 	mov	x2, x21
    931c:	aa1603e1 	mov	x1, x22
    9320:	97fff764 	bl	70b0 <mpi_montmul.isra.0>
/home/build/bsp/optee_os/lib/libmbedtls/mbedtls/library/bignum.c:1972 (discriminator 2)
    9324:	ea1b033f 	tst	x25, x27
    9328:	540001a0 	b.eq	935c <mbedtls_mpi_exp_mod+0x594>  // b.none
/home/build/bsp/optee_os/lib/libmbedtls/mbedtls/library/bignum.c:1973
    932c:	aa1903e2 	mov	x2, x25
    9330:	aa1403e1 	mov	x1, x20
    9334:	aa1603e0 	mov	x0, x22
    9338:	d2800023 	mov	x3, #0x1                   	// #1
    933c:	97fff743 	bl	7048 <mpi_select>
    9340:	35000780 	cbnz	w0, 9430 <mbedtls_mpi_exp_mod+0x668>
/home/build/bsp/optee_os/lib/libmbedtls/mbedtls/library/bignum.c:1974 (discriminator 2)
    9344:	f9400a80 	ldr	x0, [x20, #16]
    9348:	2a1703e3 	mov	w3, w23
    934c:	f94087e4 	ldr	x4, [sp, #264]
    9350:	aa1503e2 	mov	x2, x21
    9354:	aa1603e1 	mov	x1, x22
    9358:	97fff756 	bl	70b0 <mpi_montmul.isra.0>
/home/build/bsp/optee_os/lib/libmbedtls/mbedtls/library/bignum.c:1966 (discriminator 2)
    935c:	9100079c 	add	x28, x28, #0x1
/home/build/bsp/optee_os/lib/libmbedtls/mbedtls/library/bignum.c:1966 (discriminator 1)
    9360:	f94037e0 	ldr	x0, [sp, #104]
    9364:	eb00039f 	cmp	x28, x0
    9368:	54fffc41 	b.ne	92f0 <mbedtls_mpi_exp_mod+0x528>  // b.any
/home/build/bsp/optee_os/lib/libmbedtls/mbedtls/library/bignum.c:1981
    936c:	f94047e3 	ldr	x3, [sp, #136]
    9370:	aa1403e0 	mov	x0, x20
    9374:	2a1703e2 	mov	w2, w23
    9378:	aa1503e1 	mov	x1, x21
    937c:	97fff754 	bl	70cc <mpi_montred>
/home/build/bsp/optee_os/lib/libmbedtls/mbedtls/library/bignum.c:1983
    9380:	b940a7e0 	ldr	w0, [sp, #164]
    9384:	3100041f 	cmn	w0, #0x1
    9388:	540003c0 	b.eq	9400 <mbedtls_mpi_exp_mod+0x638>  // b.none
/home/build/bsp/optee_os/lib/libmbedtls/mbedtls/library/bignum.c:1991
    938c:	f94063e0 	ldr	x0, [sp, #192]
    9390:	aa1403e1 	mov	x1, x20
    9394:	97fff831 	bl	7458 <mbedtls_mpi_copy>
/home/build/bsp/optee_os/lib/libmbedtls/mbedtls/library/bignum.c:1997 (discriminator 3)
    9398:	f9404be0 	ldr	x0, [sp, #144]
    939c:	97fff779 	bl	7180 <mbedtls_mpi_free>
/home/build/bsp/optee_os/lib/libmbedtls/mbedtls/library/bignum.c:1996 (discriminator 3)
    93a0:	f9404be0 	ldr	x0, [sp, #144]
    93a4:	f9405fe1 	ldr	x1, [sp, #184]
    93a8:	91008000 	add	x0, x0, #0x20
    93ac:	f9004be0 	str	x0, [sp, #144]
    93b0:	eb01001f 	cmp	x0, x1
    93b4:	54ffff21 	b.ne	9398 <mbedtls_mpi_exp_mod+0x5d0>  // b.any
/home/build/bsp/optee_os/lib/libmbedtls/mbedtls/library/bignum.c:1998
    93b8:	f94057e0 	ldr	x0, [sp, #168]
    93bc:	aa1403e1 	mov	x1, x20
    93c0:	f940ec00 	ldr	x0, [x0, #472]
    93c4:	f9400000 	ldr	x0, [x0]
    93c8:	94000f45 	bl	d0dc <mempool_free>
/home/build/bsp/optee_os/lib/libmbedtls/mbedtls/library/bignum.c:2000
    93cc:	f94047e0 	ldr	x0, [sp, #136]
    93d0:	97fff76c 	bl	7180 <mbedtls_mpi_free>
/home/build/bsp/optee_os/lib/libmbedtls/mbedtls/library/bignum.c:2001
    93d4:	f9404fe0 	ldr	x0, [sp, #152]
    93d8:	97fff76a 	bl	7180 <mbedtls_mpi_free>
/home/build/bsp/optee_os/lib/libmbedtls/mbedtls/library/bignum.c:2002
    93dc:	aa1603e0 	mov	x0, x22
    93e0:	97fff768 	bl	7180 <mbedtls_mpi_free>
/home/build/bsp/optee_os/lib/libmbedtls/mbedtls/library/bignum.c:2004
    93e4:	f9403be0 	ldr	x0, [sp, #112]
    93e8:	b4000060 	cbz	x0, 93f4 <mbedtls_mpi_exp_mod+0x62c>
/home/build/bsp/optee_os/lib/libmbedtls/mbedtls/library/bignum.c:2004 (discriminator 1)
    93ec:	f9400800 	ldr	x0, [x0, #16]
    93f0:	b5ffd1a0 	cbnz	x0, 8e24 <mbedtls_mpi_exp_mod+0x5c>
/home/build/bsp/optee_os/lib/libmbedtls/mbedtls/library/bignum.c:2005
    93f4:	aa1803e0 	mov	x0, x24
    93f8:	97fff762 	bl	7180 <mbedtls_mpi_free>
    93fc:	17fffe8a 	b	8e24 <mbedtls_mpi_exp_mod+0x5c>
/home/build/bsp/optee_os/lib/libmbedtls/mbedtls/library/bignum.c:1983 (discriminator 1)
    9400:	f9400740 	ldr	x0, [x26, #8]
    9404:	b4fffc40 	cbz	x0, 938c <mbedtls_mpi_exp_mod+0x5c4>
/home/build/bsp/optee_os/lib/libmbedtls/mbedtls/library/bignum.c:1983 (discriminator 2)
    9408:	f9400b40 	ldr	x0, [x26, #16]
    940c:	b9400000 	ldr	w0, [x0]
    9410:	3607fbe0 	tbz	w0, #0, 938c <mbedtls_mpi_exp_mod+0x5c4>
/home/build/bsp/optee_os/lib/libmbedtls/mbedtls/library/bignum.c:1984
    9414:	b940a7e0 	ldr	w0, [sp, #164]
/home/build/bsp/optee_os/lib/libmbedtls/mbedtls/library/bignum.c:1985
    9418:	aa1403e2 	mov	x2, x20
/home/build/bsp/optee_os/lib/libmbedtls/mbedtls/library/bignum.c:1984
    941c:	b9000280 	str	w0, [x20]
/home/build/bsp/optee_os/lib/libmbedtls/mbedtls/library/bignum.c:1985
    9420:	aa1503e1 	mov	x1, x21
    9424:	aa1403e0 	mov	x0, x20
    9428:	97fffa73 	bl	7df4 <mbedtls_mpi_add_mpi>
    942c:	34fffb00 	cbz	w0, 938c <mbedtls_mpi_exp_mod+0x5c4>
    9430:	2a0003f3 	mov	w19, w0
/home/build/bsp/optee_os/lib/libmbedtls/mbedtls/library/bignum.c:1996
    9434:	17ffffd9 	b	9398 <mbedtls_mpi_exp_mod+0x5d0>
/home/build/bsp/optee_os/lib/libmbedtls/mbedtls/library/bignum.c:1764
    9438:	128001f3 	mov	w19, #0xfffffff0            	// #-16
    943c:	17ffffdf 	b	93b8 <mbedtls_mpi_exp_mod+0x5f0>
/home/build/bsp/optee_os/lib/libmbedtls/mbedtls/library/bignum.c:2009
    9440:	2a1303e0 	mov	w0, w19
    9444:	a94153f3 	ldp	x19, x20, [sp, #16]
    9448:	a9425bf5 	ldp	x21, x22, [sp, #32]
    944c:	a94363f7 	ldp	x23, x24, [sp, #48]
    9450:	a9446bf9 	ldp	x25, x26, [sp, #64]
    9454:	a94573fb 	ldp	x27, x28, [sp, #80]
    9458:	a8d67bfd 	ldp	x29, x30, [sp], #352
    945c:	d65f03c0 	ret

0000000000009460 <mbedtls_mpi_gcd>:
mbedtls_mpi_gcd():
/home/build/bsp/optee_os/lib/libmbedtls/mbedtls/library/bignum.c:2015
    9460:	a9b67bfd 	stp	x29, x30, [sp, #-160]!
    9464:	910003fd 	mov	x29, sp
    9468:	a90363f7 	stp	x23, x24, [sp, #48]
    946c:	aa0003f7 	mov	x23, x0
    9470:	b0000040 	adrp	x0, 12000 <_DYNAMIC>
    9474:	a90153f3 	stp	x19, x20, [sp, #16]
/home/build/bsp/optee_os/lib/libmbedtls/mbedtls/library/bignum.c:2024
    9478:	9101e3f4 	add	x20, sp, #0x78
/home/build/bsp/optee_os/lib/libmbedtls/mbedtls/library/bignum.c:2015
    947c:	f9409800 	ldr	x0, [x0, #304]
    9480:	a9025bf5 	stp	x21, x22, [sp, #32]
/home/build/bsp/optee_os/lib/libmbedtls/mbedtls/library/bignum.c:2024
    9484:	910163f5 	add	x21, sp, #0x58
/home/build/bsp/optee_os/lib/libmbedtls/mbedtls/library/bignum.c:2015
    9488:	f90023f9 	str	x25, [sp, #64]
    948c:	aa0103f9 	mov	x25, x1
    9490:	aa0203f6 	mov	x22, x2
    9494:	f9400001 	ldr	x1, [x0]
    9498:	f9004fe1 	str	x1, [sp, #152]
    949c:	d2800001 	mov	x1, #0x0                   	// #0
/home/build/bsp/optee_os/lib/libmbedtls/mbedtls/library/bignum.c:2024
    94a0:	aa1503e0 	mov	x0, x21
    94a4:	97fff72d 	bl	7158 <mbedtls_mpi_init_mempool>
    94a8:	aa1403e0 	mov	x0, x20
    94ac:	97fff72b 	bl	7158 <mbedtls_mpi_init_mempool>
/home/build/bsp/optee_os/lib/libmbedtls/mbedtls/library/bignum.c:2026
    94b0:	aa1903e1 	mov	x1, x25
    94b4:	aa1503e0 	mov	x0, x21
    94b8:	97fff7e8 	bl	7458 <mbedtls_mpi_copy>
    94bc:	2a0003f3 	mov	w19, w0
    94c0:	35000840 	cbnz	w0, 95c8 <mbedtls_mpi_gcd+0x168>
/home/build/bsp/optee_os/lib/libmbedtls/mbedtls/library/bignum.c:2027 (discriminator 2)
    94c4:	aa1603e1 	mov	x1, x22
    94c8:	aa1403e0 	mov	x0, x20
    94cc:	97fff7e3 	bl	7458 <mbedtls_mpi_copy>
    94d0:	2a0003f3 	mov	w19, w0
    94d4:	350007a0 	cbnz	w0, 95c8 <mbedtls_mpi_gcd+0x168>
/home/build/bsp/optee_os/lib/libmbedtls/mbedtls/library/bignum.c:2029 (discriminator 2)
    94d8:	aa1503e0 	mov	x0, x21
    94dc:	97fff87d 	bl	76d0 <mbedtls_mpi_lsb>
    94e0:	aa0003f8 	mov	x24, x0
/home/build/bsp/optee_os/lib/libmbedtls/mbedtls/library/bignum.c:2030 (discriminator 2)
    94e4:	aa1403e0 	mov	x0, x20
    94e8:	97fff87a 	bl	76d0 <mbedtls_mpi_lsb>
    94ec:	aa0003f6 	mov	x22, x0
/home/build/bsp/optee_os/lib/libmbedtls/mbedtls/library/bignum.c:2036 (discriminator 2)
    94f0:	b5000140 	cbnz	x0, 9518 <mbedtls_mpi_gcd+0xb8>
/home/build/bsp/optee_os/lib/libmbedtls/mbedtls/library/bignum.c:2036 (discriminator 1)
    94f4:	aa1403e0 	mov	x0, x20
    94f8:	d2800001 	mov	x1, #0x0                   	// #0
    94fc:	97fff847 	bl	7618 <mbedtls_mpi_get_bit>
    9500:	350000c0 	cbnz	w0, 9518 <mbedtls_mpi_gcd+0xb8>
/home/build/bsp/optee_os/lib/libmbedtls/mbedtls/library/bignum.c:2037
    9504:	aa1903e1 	mov	x1, x25
/home/build/bsp/optee_os/lib/libmbedtls/mbedtls/library/bignum.c:2112 (discriminator 2)
    9508:	aa1703e0 	mov	x0, x23
    950c:	97fff7d3 	bl	7458 <mbedtls_mpi_copy>
    9510:	2a0003f3 	mov	w19, w0
    9514:	1400002d 	b	95c8 <mbedtls_mpi_gcd+0x168>
/home/build/bsp/optee_os/lib/libmbedtls/mbedtls/library/bignum.c:2045
    9518:	52800020 	mov	w0, #0x1                   	// #1
    951c:	b9005be0 	str	w0, [sp, #88]
    9520:	b9007be0 	str	w0, [sp, #120]
/home/build/bsp/optee_os/lib/libmbedtls/mbedtls/library/bignum.c:2080 (discriminator 2)
    9524:	aa1503e0 	mov	x0, x21
    9528:	52800001 	mov	w1, #0x0                   	// #0
    952c:	97fff968 	bl	7acc <mbedtls_mpi_cmp_int>
    9530:	35000120 	cbnz	w0, 9554 <mbedtls_mpi_gcd+0xf4>
/home/build/bsp/optee_os/lib/libmbedtls/mbedtls/library/bignum.c:2111
    9534:	eb16031f 	cmp	x24, x22
    9538:	aa1403e0 	mov	x0, x20
    953c:	9a969301 	csel	x1, x24, x22, ls  // ls = plast
    9540:	97fff8b8 	bl	7820 <mbedtls_mpi_shift_l>
    9544:	2a0003f3 	mov	w19, w0
    9548:	35000400 	cbnz	w0, 95c8 <mbedtls_mpi_gcd+0x168>
/home/build/bsp/optee_os/lib/libmbedtls/mbedtls/library/bignum.c:2112 (discriminator 2)
    954c:	aa1403e1 	mov	x1, x20
    9550:	17ffffee 	b	9508 <mbedtls_mpi_gcd+0xa8>
/home/build/bsp/optee_os/lib/libmbedtls/mbedtls/library/bignum.c:2082
    9554:	aa1503e0 	mov	x0, x21
    9558:	97fff85e 	bl	76d0 <mbedtls_mpi_lsb>
    955c:	aa0003e1 	mov	x1, x0
    9560:	aa1503e0 	mov	x0, x21
    9564:	97fff8f3 	bl	7930 <mbedtls_mpi_shift_r>
    9568:	2a0003f3 	mov	w19, w0
    956c:	350002e0 	cbnz	w0, 95c8 <mbedtls_mpi_gcd+0x168>
/home/build/bsp/optee_os/lib/libmbedtls/mbedtls/library/bignum.c:2083 (discriminator 2)
    9570:	aa1403e0 	mov	x0, x20
    9574:	97fff857 	bl	76d0 <mbedtls_mpi_lsb>
    9578:	aa0003e1 	mov	x1, x0
    957c:	aa1403e0 	mov	x0, x20
    9580:	97fff8ec 	bl	7930 <mbedtls_mpi_shift_r>
    9584:	2a0003f3 	mov	w19, w0
    9588:	35000200 	cbnz	w0, 95c8 <mbedtls_mpi_gcd+0x168>
/home/build/bsp/optee_os/lib/libmbedtls/mbedtls/library/bignum.c:2092 (discriminator 2)
    958c:	aa1403e1 	mov	x1, x20
    9590:	aa1503e0 	mov	x0, x21
    9594:	97fff91a 	bl	79fc <mbedtls_mpi_cmp_mpi>
    9598:	37f80300 	tbnz	w0, #31, 95f8 <mbedtls_mpi_gcd+0x198>
/home/build/bsp/optee_os/lib/libmbedtls/mbedtls/library/bignum.c:2093
    959c:	aa1403e2 	mov	x2, x20
    95a0:	aa1503e1 	mov	x1, x21
    95a4:	aa1503e0 	mov	x0, x21
    95a8:	97fff9a5 	bl	7c3c <mbedtls_mpi_sub_abs>
    95ac:	2a0003f3 	mov	w19, w0
    95b0:	350000c0 	cbnz	w0, 95c8 <mbedtls_mpi_gcd+0x168>
/home/build/bsp/optee_os/lib/libmbedtls/mbedtls/library/bignum.c:2094 (discriminator 2)
    95b4:	aa1503e0 	mov	x0, x21
    95b8:	d2800021 	mov	x1, #0x1                   	// #1
/home/build/bsp/optee_os/lib/libmbedtls/mbedtls/library/bignum.c:2097 (discriminator 2)
    95bc:	97fff8dd 	bl	7930 <mbedtls_mpi_shift_r>
    95c0:	2a0003f3 	mov	w19, w0
    95c4:	34fffb00 	cbz	w0, 9524 <mbedtls_mpi_gcd+0xc4>
/home/build/bsp/optee_os/lib/libmbedtls/mbedtls/library/bignum.c:2116 (discriminator 3)
    95c8:	aa1503e0 	mov	x0, x21
    95cc:	97fff6ed 	bl	7180 <mbedtls_mpi_free>
    95d0:	aa1403e0 	mov	x0, x20
    95d4:	97fff6eb 	bl	7180 <mbedtls_mpi_free>
/home/build/bsp/optee_os/lib/libmbedtls/mbedtls/library/bignum.c:2119 (discriminator 3)
    95d8:	b0000040 	adrp	x0, 12000 <_DYNAMIC>
    95dc:	f9409800 	ldr	x0, [x0, #304]
    95e0:	f9404fe2 	ldr	x2, [sp, #152]
    95e4:	f9400001 	ldr	x1, [x0]
    95e8:	eb010042 	subs	x2, x2, x1
    95ec:	d2800001 	mov	x1, #0x0                   	// #0
    95f0:	54000160 	b.eq	961c <mbedtls_mpi_gcd+0x1bc>  // b.none
/home/build/bsp/optee_os/lib/libmbedtls/mbedtls/library/bignum.c:2119
    95f4:	97ffdc2f 	bl	6b0 <__stack_chk_fail>
/home/build/bsp/optee_os/lib/libmbedtls/mbedtls/library/bignum.c:2096
    95f8:	aa1503e2 	mov	x2, x21
    95fc:	aa1403e1 	mov	x1, x20
    9600:	aa1403e0 	mov	x0, x20
    9604:	97fff98e 	bl	7c3c <mbedtls_mpi_sub_abs>
    9608:	2a0003f3 	mov	w19, w0
    960c:	35fffde0 	cbnz	w0, 95c8 <mbedtls_mpi_gcd+0x168>
/home/build/bsp/optee_os/lib/libmbedtls/mbedtls/library/bignum.c:2097 (discriminator 2)
    9610:	aa1403e0 	mov	x0, x20
    9614:	d2800021 	mov	x1, #0x1                   	// #1
    9618:	17ffffe9 	b	95bc <mbedtls_mpi_gcd+0x15c>
/home/build/bsp/optee_os/lib/libmbedtls/mbedtls/library/bignum.c:2119
    961c:	2a1303e0 	mov	w0, w19
    9620:	a94153f3 	ldp	x19, x20, [sp, #16]
    9624:	a9425bf5 	ldp	x21, x22, [sp, #32]
    9628:	a94363f7 	ldp	x23, x24, [sp, #48]
    962c:	f94023f9 	ldr	x25, [sp, #64]
    9630:	a8ca7bfd 	ldp	x29, x30, [sp], #160
    9634:	d65f03c0 	ret

0000000000009638 <mbedtls_mpi_fill_random>:
mbedtls_mpi_fill_random():
/home/build/bsp/optee_os/lib/libmbedtls/mbedtls/library/bignum.c:2130
    9638:	a9bd7bfd 	stp	x29, x30, [sp, #-48]!
/home/build/bsp/optee_os/lib/libmbedtls/mbedtls/library/bignum.c:2132
    963c:	f240043f 	tst	x1, #0x3
/home/build/bsp/optee_os/lib/libmbedtls/mbedtls/library/bignum.c:2130
    9640:	910003fd 	mov	x29, sp
    9644:	a90153f3 	stp	x19, x20, [sp, #16]
    9648:	aa0103f3 	mov	x19, x1
/home/build/bsp/optee_os/lib/libmbedtls/mbedtls/library/bignum.c:2132
    964c:	d342fc21 	lsr	x1, x1, #2
/home/build/bsp/optee_os/lib/libmbedtls/mbedtls/library/bignum.c:2130
    9650:	aa0003f4 	mov	x20, x0
/home/build/bsp/optee_os/lib/libmbedtls/mbedtls/library/bignum.c:2138
    9654:	9a810421 	cinc	x1, x1, ne  // ne = any
/home/build/bsp/optee_os/lib/libmbedtls/mbedtls/library/bignum.c:2130
    9658:	a9025bf5 	stp	x21, x22, [sp, #32]
    965c:	aa0203f5 	mov	x21, x2
    9660:	aa0303f6 	mov	x22, x3
/home/build/bsp/optee_os/lib/libmbedtls/mbedtls/library/bignum.c:2138
    9664:	97fff71c 	bl	72d4 <mbedtls_mpi_resize_clear>
    9668:	35000140 	cbnz	w0, 9690 <mbedtls_mpi_fill_random+0x58>
/home/build/bsp/optee_os/lib/libmbedtls/mbedtls/library/bignum.c:2139 (discriminator 2)
    966c:	b4000133 	cbz	x19, 9690 <mbedtls_mpi_fill_random+0x58>
/home/build/bsp/optee_os/lib/libmbedtls/mbedtls/library/bignum.c:2143
    9670:	aa1603e4 	mov	x4, x22
    9674:	aa1503e3 	mov	x3, x21
    9678:	aa1303e2 	mov	x2, x19
    967c:	a9408281 	ldp	x1, x0, [x20, #8]
/home/build/bsp/optee_os/lib/libmbedtls/mbedtls/library/bignum.c:2147
    9680:	a94153f3 	ldp	x19, x20, [sp, #16]
    9684:	a9425bf5 	ldp	x21, x22, [sp, #32]
    9688:	a8c37bfd 	ldp	x29, x30, [sp], #48
/home/build/bsp/optee_os/lib/libmbedtls/mbedtls/library/bignum.c:2143
    968c:	14000655 	b	afe0 <mbedtls_mpi_core_fill_random>
/home/build/bsp/optee_os/lib/libmbedtls/mbedtls/library/bignum.c:2147
    9690:	a94153f3 	ldp	x19, x20, [sp, #16]
    9694:	a9425bf5 	ldp	x21, x22, [sp, #32]
    9698:	a8c37bfd 	ldp	x29, x30, [sp], #48
    969c:	d65f03c0 	ret

00000000000096a0 <mpi_miller_rabin>:
mpi_miller_rabin():
/home/build/bsp/optee_os/lib/libmbedtls/mbedtls/library/bignum.c:2334
    96a0:	a9ad7bfd 	stp	x29, x30, [sp, #-304]!
    96a4:	910003fd 	mov	x29, sp
    96a8:	a9025bf5 	stp	x21, x22, [sp, #32]
    96ac:	aa0003f6 	mov	x22, x0
    96b0:	b0000040 	adrp	x0, 12000 <_DYNAMIC>
    96b4:	a90153f3 	stp	x19, x20, [sp, #16]
/home/build/bsp/optee_os/lib/libmbedtls/mbedtls/library/bignum.c:2342
    96b8:	910223f5 	add	x21, sp, #0x88
/home/build/bsp/optee_os/lib/libmbedtls/mbedtls/library/bignum.c:2343
    96bc:	9103a3f4 	add	x20, sp, #0xe8
/home/build/bsp/optee_os/lib/libmbedtls/mbedtls/library/bignum.c:2334
    96c0:	f9409800 	ldr	x0, [x0, #304]
    96c4:	a90363f7 	stp	x23, x24, [sp, #48]
/home/build/bsp/optee_os/lib/libmbedtls/mbedtls/library/bignum.c:2342
    96c8:	9102a3f7 	add	x23, sp, #0xa8
/home/build/bsp/optee_os/lib/libmbedtls/mbedtls/library/bignum.c:2334
    96cc:	a9046bf9 	stp	x25, x26, [sp, #64]
/home/build/bsp/optee_os/lib/libmbedtls/mbedtls/library/bignum.c:2343
    96d0:	910323f8 	add	x24, sp, #0xc8
/home/build/bsp/optee_os/lib/libmbedtls/mbedtls/library/bignum.c:2344
    96d4:	910423fa 	add	x26, sp, #0x108
/home/build/bsp/optee_os/lib/libmbedtls/mbedtls/library/bignum.c:2334
    96d8:	a90573fb 	stp	x27, x28, [sp, #80]
    96dc:	a9060be1 	stp	x1, x2, [sp, #96]
    96e0:	f9003be3 	str	x3, [sp, #112]
    96e4:	f9400001 	ldr	x1, [x0]
    96e8:	f90097e1 	str	x1, [sp, #296]
    96ec:	d2800001 	mov	x1, #0x0                   	// #0
/home/build/bsp/optee_os/lib/libmbedtls/mbedtls/library/bignum.c:2342
    96f0:	aa1503e0 	mov	x0, x21
    96f4:	97fff699 	bl	7158 <mbedtls_mpi_init_mempool>
    96f8:	aa1703e0 	mov	x0, x23
    96fc:	97fff697 	bl	7158 <mbedtls_mpi_init_mempool>
/home/build/bsp/optee_os/lib/libmbedtls/mbedtls/library/bignum.c:2343
    9700:	aa1803e0 	mov	x0, x24
    9704:	97fff695 	bl	7158 <mbedtls_mpi_init_mempool>
    9708:	aa1403e0 	mov	x0, x20
    970c:	97fff693 	bl	7158 <mbedtls_mpi_init_mempool>
/home/build/bsp/optee_os/lib/libmbedtls/mbedtls/library/bignum.c:2344
    9710:	aa1a03e0 	mov	x0, x26
    9714:	97fff691 	bl	7158 <mbedtls_mpi_init_mempool>
/home/build/bsp/optee_os/lib/libmbedtls/mbedtls/library/bignum.c:2350
    9718:	aa1603e1 	mov	x1, x22
    971c:	aa1503e0 	mov	x0, x21
    9720:	52800022 	mov	w2, #0x1                   	// #1
    9724:	97fff9d6 	bl	7e7c <mbedtls_mpi_sub_int>
    9728:	2a0003f3 	mov	w19, w0
    972c:	35000600 	cbnz	w0, 97ec <mpi_miller_rabin+0x14c>
/home/build/bsp/optee_os/lib/libmbedtls/mbedtls/library/bignum.c:2351 (discriminator 2)
    9730:	aa1503e0 	mov	x0, x21
    9734:	97fff7e7 	bl	76d0 <mbedtls_mpi_lsb>
/home/build/bsp/optee_os/lib/libmbedtls/mbedtls/library/bignum.c:2352 (discriminator 2)
    9738:	aa1503e1 	mov	x1, x21
/home/build/bsp/optee_os/lib/libmbedtls/mbedtls/library/bignum.c:2351 (discriminator 2)
    973c:	aa0003f9 	mov	x25, x0
/home/build/bsp/optee_os/lib/libmbedtls/mbedtls/library/bignum.c:2352 (discriminator 2)
    9740:	aa1703e0 	mov	x0, x23
    9744:	97fff745 	bl	7458 <mbedtls_mpi_copy>
    9748:	2a0003f3 	mov	w19, w0
    974c:	35000500 	cbnz	w0, 97ec <mpi_miller_rabin+0x14c>
/home/build/bsp/optee_os/lib/libmbedtls/mbedtls/library/bignum.c:2353 (discriminator 2)
    9750:	aa1903e1 	mov	x1, x25
    9754:	aa1703e0 	mov	x0, x23
    9758:	97fff876 	bl	7930 <mbedtls_mpi_shift_r>
    975c:	2a0003f3 	mov	w19, w0
    9760:	35000460 	cbnz	w0, 97ec <mpi_miller_rabin+0x14c>
/home/build/bsp/optee_os/lib/libmbedtls/mbedtls/library/bignum.c:2355
    9764:	d280001b 	mov	x27, #0x0                   	// #0
/home/build/bsp/optee_os/lib/libmbedtls/mbedtls/library/bignum.c:2355 (discriminator 1)
    9768:	f94033e0 	ldr	x0, [sp, #96]
    976c:	eb00037f 	cmp	x27, x0
    9770:	540003e0 	b.eq	97ec <mpi_miller_rabin+0x14c>  // b.none
    9774:	528025dc 	mov	w28, #0x12e                 	// #302
/home/build/bsp/optee_os/lib/libmbedtls/mbedtls/library/bignum.c:2361
    9778:	a9468fe2 	ldp	x2, x3, [sp, #104]
    977c:	aa1403e0 	mov	x0, x20
    9780:	f94006c1 	ldr	x1, [x22, #8]
    9784:	d37ef421 	lsl	x1, x1, #2
    9788:	97ffffac 	bl	9638 <mbedtls_mpi_fill_random>
    978c:	35000c80 	cbnz	w0, 991c <mpi_miller_rabin+0x27c>
/home/build/bsp/optee_os/lib/libmbedtls/mbedtls/library/bignum.c:2363 (discriminator 2)
    9790:	aa1403e0 	mov	x0, x20
    9794:	97fff7e4 	bl	7724 <mbedtls_mpi_bitlen>
    9798:	aa0003e1 	mov	x1, x0
/home/build/bsp/optee_os/lib/libmbedtls/mbedtls/library/bignum.c:2364 (discriminator 2)
    979c:	aa1503e0 	mov	x0, x21
/home/build/bsp/optee_os/lib/libmbedtls/mbedtls/library/bignum.c:2363 (discriminator 2)
    97a0:	f9003fe1 	str	x1, [sp, #120]
/home/build/bsp/optee_os/lib/libmbedtls/mbedtls/library/bignum.c:2364 (discriminator 2)
    97a4:	97fff7e0 	bl	7724 <mbedtls_mpi_bitlen>
/home/build/bsp/optee_os/lib/libmbedtls/mbedtls/library/bignum.c:2365 (discriminator 2)
    97a8:	f9403fe1 	ldr	x1, [sp, #120]
    97ac:	eb00003f 	cmp	x1, x0
    97b0:	54000189 	b.ls	97e0 <mpi_miller_rabin+0x140>  // b.plast
/home/build/bsp/optee_os/lib/libmbedtls/mbedtls/library/bignum.c:2366
    97b4:	a94f0fe1 	ldp	x1, x3, [sp, #240]
    97b8:	d37ef422 	lsl	x2, x1, #2
    97bc:	d1000421 	sub	x1, x1, #0x1
    97c0:	d1001042 	sub	x2, x2, #0x4
    97c4:	4b011400 	sub	w0, w0, w1, lsl #5
    97c8:	12800001 	mov	w1, #0xffffffff            	// #-1
    97cc:	51000400 	sub	w0, w0, #0x1
    97d0:	1ac02020 	lsl	w0, w1, w0
    97d4:	b8626861 	ldr	w1, [x3, x2]
    97d8:	0a200020 	bic	w0, w1, w0
    97dc:	b8226860 	str	w0, [x3, x2]
/home/build/bsp/optee_os/lib/libmbedtls/mbedtls/library/bignum.c:2369
    97e0:	7100079c 	subs	w28, w28, #0x1
    97e4:	54000281 	b.ne	9834 <mpi_miller_rabin+0x194>  // b.any
/home/build/bsp/optee_os/lib/libmbedtls/mbedtls/library/bignum.c:2370
    97e8:	128001b3 	mov	w19, #0xfffffff2            	// #-14
/home/build/bsp/optee_os/lib/libmbedtls/mbedtls/library/bignum.c:2413
    97ec:	aa1503e0 	mov	x0, x21
    97f0:	97fff664 	bl	7180 <mbedtls_mpi_free>
    97f4:	aa1703e0 	mov	x0, x23
    97f8:	97fff662 	bl	7180 <mbedtls_mpi_free>
/home/build/bsp/optee_os/lib/libmbedtls/mbedtls/library/bignum.c:2414
    97fc:	aa1803e0 	mov	x0, x24
    9800:	97fff660 	bl	7180 <mbedtls_mpi_free>
    9804:	aa1403e0 	mov	x0, x20
    9808:	97fff65e 	bl	7180 <mbedtls_mpi_free>
/home/build/bsp/optee_os/lib/libmbedtls/mbedtls/library/bignum.c:2415
    980c:	aa1a03e0 	mov	x0, x26
    9810:	97fff65c 	bl	7180 <mbedtls_mpi_free>
/home/build/bsp/optee_os/lib/libmbedtls/mbedtls/library/bignum.c:2418
    9814:	b0000040 	adrp	x0, 12000 <_DYNAMIC>
    9818:	f9409800 	ldr	x0, [x0, #304]
    981c:	f94097e2 	ldr	x2, [sp, #296]
    9820:	f9400001 	ldr	x1, [x0]
    9824:	eb010042 	subs	x2, x2, x1
    9828:	d2800001 	mov	x1, #0x0                   	// #0
    982c:	540007c0 	b.eq	9924 <mpi_miller_rabin+0x284>  // b.none
    9830:	97ffdba0 	bl	6b0 <__stack_chk_fail>
/home/build/bsp/optee_os/lib/libmbedtls/mbedtls/library/bignum.c:2374
    9834:	aa1503e1 	mov	x1, x21
    9838:	aa1403e0 	mov	x0, x20
    983c:	97fff870 	bl	79fc <mbedtls_mpi_cmp_mpi>
    9840:	36fff9c0 	tbz	w0, #31, 9778 <mpi_miller_rabin+0xd8>
/home/build/bsp/optee_os/lib/libmbedtls/mbedtls/library/bignum.c:2375 (discriminator 1)
    9844:	aa1403e0 	mov	x0, x20
    9848:	52800021 	mov	w1, #0x1                   	// #1
    984c:	97fff8a0 	bl	7acc <mbedtls_mpi_cmp_int>
/home/build/bsp/optee_os/lib/libmbedtls/mbedtls/library/bignum.c:2374 (discriminator 1)
    9850:	7100001f 	cmp	w0, #0x0
    9854:	54fff92d 	b.le	9778 <mpi_miller_rabin+0xd8>
/home/build/bsp/optee_os/lib/libmbedtls/mbedtls/library/bignum.c:2380
    9858:	aa1a03e4 	mov	x4, x26
    985c:	aa1603e3 	mov	x3, x22
    9860:	aa1703e2 	mov	x2, x23
    9864:	aa1403e1 	mov	x1, x20
    9868:	aa1403e0 	mov	x0, x20
    986c:	97fffd57 	bl	8dc8 <mbedtls_mpi_exp_mod>
    9870:	35000560 	cbnz	w0, 991c <mpi_miller_rabin+0x27c>
/home/build/bsp/optee_os/lib/libmbedtls/mbedtls/library/bignum.c:2382 (discriminator 2)
    9874:	aa1503e1 	mov	x1, x21
    9878:	aa1403e0 	mov	x0, x20
    987c:	97fff860 	bl	79fc <mbedtls_mpi_cmp_mpi>
    9880:	35000060 	cbnz	w0, 988c <mpi_miller_rabin+0x1ec>
/home/build/bsp/optee_os/lib/libmbedtls/mbedtls/library/bignum.c:2355
    9884:	9100077b 	add	x27, x27, #0x1
    9888:	17ffffb8 	b	9768 <mpi_miller_rabin+0xc8>
/home/build/bsp/optee_os/lib/libmbedtls/mbedtls/library/bignum.c:2383 (discriminator 2)
    988c:	aa1403e0 	mov	x0, x20
    9890:	52800021 	mov	w1, #0x1                   	// #1
    9894:	97fff88e 	bl	7acc <mbedtls_mpi_cmp_int>
/home/build/bsp/optee_os/lib/libmbedtls/mbedtls/library/bignum.c:2382 (discriminator 2)
    9898:	34ffff60 	cbz	w0, 9884 <mpi_miller_rabin+0x1e4>
/home/build/bsp/optee_os/lib/libmbedtls/mbedtls/library/bignum.c:2387
    989c:	d280003c 	mov	x28, #0x1                   	// #1
/home/build/bsp/optee_os/lib/libmbedtls/mbedtls/library/bignum.c:2388
    98a0:	eb19039f 	cmp	x28, x25
    98a4:	54000262 	b.cs	98f0 <mpi_miller_rabin+0x250>  // b.hs, b.nlast
/home/build/bsp/optee_os/lib/libmbedtls/mbedtls/library/bignum.c:2388 (discriminator 1)
    98a8:	aa1503e1 	mov	x1, x21
    98ac:	aa1403e0 	mov	x0, x20
    98b0:	97fff853 	bl	79fc <mbedtls_mpi_cmp_mpi>
    98b4:	340001e0 	cbz	w0, 98f0 <mpi_miller_rabin+0x250>
/home/build/bsp/optee_os/lib/libmbedtls/mbedtls/library/bignum.c:2392
    98b8:	aa1403e2 	mov	x2, x20
    98bc:	aa1403e1 	mov	x1, x20
    98c0:	aa1803e0 	mov	x0, x24
    98c4:	97fff98c 	bl	7ef4 <mbedtls_mpi_mul_mpi>
    98c8:	350002a0 	cbnz	w0, 991c <mpi_miller_rabin+0x27c>
/home/build/bsp/optee_os/lib/libmbedtls/mbedtls/library/bignum.c:2393 (discriminator 2)
    98cc:	aa1603e2 	mov	x2, x22
    98d0:	aa1803e1 	mov	x1, x24
    98d4:	aa1403e0 	mov	x0, x20
    98d8:	97fffc0c 	bl	8908 <mbedtls_mpi_mod_mpi>
    98dc:	35000200 	cbnz	w0, 991c <mpi_miller_rabin+0x27c>
/home/build/bsp/optee_os/lib/libmbedtls/mbedtls/library/bignum.c:2395 (discriminator 2)
    98e0:	aa1403e0 	mov	x0, x20
    98e4:	52800021 	mov	w1, #0x1                   	// #1
    98e8:	97fff879 	bl	7acc <mbedtls_mpi_cmp_int>
    98ec:	35000140 	cbnz	w0, 9914 <mpi_miller_rabin+0x274>
/home/build/bsp/optee_os/lib/libmbedtls/mbedtls/library/bignum.c:2405
    98f0:	aa1503e1 	mov	x1, x21
    98f4:	aa1403e0 	mov	x0, x20
    98f8:	97fff841 	bl	79fc <mbedtls_mpi_cmp_mpi>
    98fc:	35fff760 	cbnz	w0, 97e8 <mpi_miller_rabin+0x148>
/home/build/bsp/optee_os/lib/libmbedtls/mbedtls/library/bignum.c:2406 (discriminator 1)
    9900:	aa1403e0 	mov	x0, x20
    9904:	52800021 	mov	w1, #0x1                   	// #1
    9908:	97fff871 	bl	7acc <mbedtls_mpi_cmp_int>
/home/build/bsp/optee_os/lib/libmbedtls/mbedtls/library/bignum.c:2405 (discriminator 1)
    990c:	35fffbc0 	cbnz	w0, 9884 <mpi_miller_rabin+0x1e4>
    9910:	17ffffb6 	b	97e8 <mpi_miller_rabin+0x148>
/home/build/bsp/optee_os/lib/libmbedtls/mbedtls/library/bignum.c:2399
    9914:	9100079c 	add	x28, x28, #0x1
    9918:	17ffffe2 	b	98a0 <mpi_miller_rabin+0x200>
    991c:	2a0003f3 	mov	w19, w0
    9920:	17ffffb3 	b	97ec <mpi_miller_rabin+0x14c>
/home/build/bsp/optee_os/lib/libmbedtls/mbedtls/library/bignum.c:2418
    9924:	2a1303e0 	mov	w0, w19
    9928:	a94153f3 	ldp	x19, x20, [sp, #16]
    992c:	a9425bf5 	ldp	x21, x22, [sp, #32]
    9930:	a94363f7 	ldp	x23, x24, [sp, #48]
    9934:	a9446bf9 	ldp	x25, x26, [sp, #64]
    9938:	a94573fb 	ldp	x27, x28, [sp, #80]
    993c:	a8d37bfd 	ldp	x29, x30, [sp], #304
    9940:	d65f03c0 	ret

0000000000009944 <mbedtls_mpi_random>:
mbedtls_mpi_random():
/home/build/bsp/optee_os/lib/libmbedtls/mbedtls/library/bignum.c:2155
    9944:	36f80121 	tbz	w1, #31, 9968 <mbedtls_mpi_random+0x24>
/home/build/bsp/optee_os/lib/libmbedtls/mbedtls/library/bignum.c:2156
    9948:	12800060 	mov	w0, #0xfffffffc            	// #-4
/home/build/bsp/optee_os/lib/libmbedtls/mbedtls/library/bignum.c:2171
    994c:	d65f03c0 	ret
/home/build/bsp/optee_os/lib/libmbedtls/mbedtls/library/bignum.c:2156
    9950:	12800060 	mov	w0, #0xfffffffc            	// #-4
/home/build/bsp/optee_os/lib/libmbedtls/mbedtls/library/bignum.c:2171
    9954:	a94153f3 	ldp	x19, x20, [sp, #16]
    9958:	a9425bf5 	ldp	x21, x22, [sp, #32]
    995c:	f9401bf7 	ldr	x23, [sp, #48]
    9960:	a8c47bfd 	ldp	x29, x30, [sp], #64
    9964:	d65f03c0 	ret
/home/build/bsp/optee_os/lib/libmbedtls/mbedtls/library/bignum.c:2154
    9968:	a9bc7bfd 	stp	x29, x30, [sp, #-64]!
    996c:	910003fd 	mov	x29, sp
    9970:	a90153f3 	stp	x19, x20, [sp, #16]
    9974:	aa0003f3 	mov	x19, x0
    9978:	aa0203f4 	mov	x20, x2
/home/build/bsp/optee_os/lib/libmbedtls/mbedtls/library/bignum.c:2158
    997c:	aa0203e0 	mov	x0, x2
/home/build/bsp/optee_os/lib/libmbedtls/mbedtls/library/bignum.c:2154
    9980:	a9025bf5 	stp	x21, x22, [sp, #32]
    9984:	2a0103f5 	mov	w21, w1
    9988:	aa0303f6 	mov	x22, x3
    998c:	f9001bf7 	str	x23, [sp, #48]
    9990:	aa0403f7 	mov	x23, x4
/home/build/bsp/optee_os/lib/libmbedtls/mbedtls/library/bignum.c:2158
    9994:	97fff84e 	bl	7acc <mbedtls_mpi_cmp_int>
    9998:	7100001f 	cmp	w0, #0x0
    999c:	54fffdad 	b.le	9950 <mbedtls_mpi_random+0xc>
/home/build/bsp/optee_os/lib/libmbedtls/mbedtls/library/bignum.c:2165
    99a0:	f9400681 	ldr	x1, [x20, #8]
    99a4:	aa1303e0 	mov	x0, x19
    99a8:	97fff64b 	bl	72d4 <mbedtls_mpi_resize_clear>
/home/build/bsp/optee_os/lib/libmbedtls/mbedtls/library/bignum.c:2166
    99ac:	35fffd40 	cbnz	w0, 9954 <mbedtls_mpi_random+0x10>
/home/build/bsp/optee_os/lib/libmbedtls/mbedtls/library/bignum.c:2170
    99b0:	aa1703e5 	mov	x5, x23
    99b4:	aa1603e4 	mov	x4, x22
    99b8:	2a1503e1 	mov	w1, w21
    99bc:	a9408263 	ldp	x3, x0, [x19, #8]
    99c0:	f9400a82 	ldr	x2, [x20, #16]
/home/build/bsp/optee_os/lib/libmbedtls/mbedtls/library/bignum.c:2171
    99c4:	a94153f3 	ldp	x19, x20, [sp, #16]
    99c8:	a9425bf5 	ldp	x21, x22, [sp, #32]
    99cc:	f9401bf7 	ldr	x23, [sp, #48]
    99d0:	a8c47bfd 	ldp	x29, x30, [sp], #64
/home/build/bsp/optee_os/lib/libmbedtls/mbedtls/library/bignum.c:2170
    99d4:	140005af 	b	b090 <mbedtls_mpi_core_random>

00000000000099d8 <mbedtls_mpi_inv_mod>:
mbedtls_mpi_inv_mod():
/home/build/bsp/optee_os/lib/libmbedtls/mbedtls/library/bignum.c:2177
    99d8:	a9a67bfd 	stp	x29, x30, [sp, #-416]!
    99dc:	910003fd 	mov	x29, sp
    99e0:	a90603e1 	stp	x1, x0, [sp, #96]
    99e4:	b0000040 	adrp	x0, 12000 <_DYNAMIC>
    99e8:	f9409800 	ldr	x0, [x0, #304]
    99ec:	a90153f3 	stp	x19, x20, [sp, #16]
    99f0:	aa0203f4 	mov	x20, x2
    99f4:	a9025bf5 	stp	x21, x22, [sp, #32]
    99f8:	a90363f7 	stp	x23, x24, [sp, #48]
    99fc:	a9046bf9 	stp	x25, x26, [sp, #64]
    9a00:	a90573fb 	stp	x27, x28, [sp, #80]
    9a04:	f9400001 	ldr	x1, [x0]
    9a08:	f900cfe1 	str	x1, [sp, #408]
    9a0c:	d2800001 	mov	x1, #0x0                   	// #0
/home/build/bsp/optee_os/lib/libmbedtls/mbedtls/library/bignum.c:2184
    9a10:	aa0203e0 	mov	x0, x2
    9a14:	52800021 	mov	w1, #0x1                   	// #1
    9a18:	97fff82d 	bl	7acc <mbedtls_mpi_cmp_int>
    9a1c:	7100001f 	cmp	w0, #0x0
    9a20:	54001f4d 	b.le	9e08 <mbedtls_mpi_inv_mod+0x430>
/home/build/bsp/optee_os/lib/libmbedtls/mbedtls/library/bignum.c:2188
    9a24:	910263fa 	add	x26, sp, #0x98
    9a28:	9102e3f8 	add	x24, sp, #0xb8
    9a2c:	aa1a03e0 	mov	x0, x26
    9a30:	97fff5ca 	bl	7158 <mbedtls_mpi_init_mempool>
    9a34:	aa1803e0 	mov	x0, x24
/home/build/bsp/optee_os/lib/libmbedtls/mbedtls/library/bignum.c:2189
    9a38:	910363f7 	add	x23, sp, #0xd8
/home/build/bsp/optee_os/lib/libmbedtls/mbedtls/library/bignum.c:2188
    9a3c:	97fff5c7 	bl	7158 <mbedtls_mpi_init_mempool>
/home/build/bsp/optee_os/lib/libmbedtls/mbedtls/library/bignum.c:2189
    9a40:	9103e3f6 	add	x22, sp, #0xf8
    9a44:	aa1703e0 	mov	x0, x23
    9a48:	97fff5c4 	bl	7158 <mbedtls_mpi_init_mempool>
    9a4c:	aa1603e0 	mov	x0, x22
/home/build/bsp/optee_os/lib/libmbedtls/mbedtls/library/bignum.c:2190
    9a50:	9101e3fc 	add	x28, sp, #0x78
/home/build/bsp/optee_os/lib/libmbedtls/mbedtls/library/bignum.c:2189
    9a54:	97fff5c1 	bl	7158 <mbedtls_mpi_init_mempool>
/home/build/bsp/optee_os/lib/libmbedtls/mbedtls/library/bignum.c:2190
    9a58:	910463fb 	add	x27, sp, #0x118
    9a5c:	aa1c03e0 	mov	x0, x28
    9a60:	97fff5be 	bl	7158 <mbedtls_mpi_init_mempool>
    9a64:	aa1b03e0 	mov	x0, x27
/home/build/bsp/optee_os/lib/libmbedtls/mbedtls/library/bignum.c:2191
    9a68:	9104e3f9 	add	x25, sp, #0x138
/home/build/bsp/optee_os/lib/libmbedtls/mbedtls/library/bignum.c:2190
    9a6c:	97fff5bb 	bl	7158 <mbedtls_mpi_init_mempool>
/home/build/bsp/optee_os/lib/libmbedtls/mbedtls/library/bignum.c:2191
    9a70:	910563f3 	add	x19, sp, #0x158
    9a74:	aa1903e0 	mov	x0, x25
    9a78:	97fff5b8 	bl	7158 <mbedtls_mpi_init_mempool>
    9a7c:	aa1303e0 	mov	x0, x19
/home/build/bsp/optee_os/lib/libmbedtls/mbedtls/library/bignum.c:2192
    9a80:	9105e3f5 	add	x21, sp, #0x178
/home/build/bsp/optee_os/lib/libmbedtls/mbedtls/library/bignum.c:2191
    9a84:	97fff5b5 	bl	7158 <mbedtls_mpi_init_mempool>
/home/build/bsp/optee_os/lib/libmbedtls/mbedtls/library/bignum.c:2192
    9a88:	aa1503e0 	mov	x0, x21
    9a8c:	97fff5b3 	bl	7158 <mbedtls_mpi_init_mempool>
/home/build/bsp/optee_os/lib/libmbedtls/mbedtls/library/bignum.c:2194
    9a90:	f94033e1 	ldr	x1, [sp, #96]
    9a94:	aa1403e2 	mov	x2, x20
    9a98:	aa1c03e0 	mov	x0, x28
    9a9c:	97fffe71 	bl	9460 <mbedtls_mpi_gcd>
    9aa0:	2a0003e1 	mov	w1, w0
    9aa4:	35000d20 	cbnz	w0, 9c48 <mbedtls_mpi_inv_mod+0x270>
/home/build/bsp/optee_os/lib/libmbedtls/mbedtls/library/bignum.c:2196 (discriminator 2)
    9aa8:	aa1c03e0 	mov	x0, x28
    9aac:	52800021 	mov	w1, #0x1                   	// #1
    9ab0:	97fff807 	bl	7acc <mbedtls_mpi_cmp_int>
    9ab4:	35001a60 	cbnz	w0, 9e00 <mbedtls_mpi_inv_mod+0x428>
/home/build/bsp/optee_os/lib/libmbedtls/mbedtls/library/bignum.c:2201
    9ab8:	f94033e1 	ldr	x1, [sp, #96]
    9abc:	aa1403e2 	mov	x2, x20
    9ac0:	aa1a03e0 	mov	x0, x26
    9ac4:	97fffb91 	bl	8908 <mbedtls_mpi_mod_mpi>
    9ac8:	2a0003e1 	mov	w1, w0
    9acc:	35000be0 	cbnz	w0, 9c48 <mbedtls_mpi_inv_mod+0x270>
/home/build/bsp/optee_os/lib/libmbedtls/mbedtls/library/bignum.c:2202 (discriminator 2)
    9ad0:	aa1a03e1 	mov	x1, x26
    9ad4:	aa1803e0 	mov	x0, x24
    9ad8:	97fff660 	bl	7458 <mbedtls_mpi_copy>
    9adc:	2a0003e1 	mov	w1, w0
    9ae0:	35000b40 	cbnz	w0, 9c48 <mbedtls_mpi_inv_mod+0x270>
/home/build/bsp/optee_os/lib/libmbedtls/mbedtls/library/bignum.c:2203 (discriminator 2)
    9ae4:	aa1403e1 	mov	x1, x20
    9ae8:	aa1b03e0 	mov	x0, x27
    9aec:	97fff65b 	bl	7458 <mbedtls_mpi_copy>
    9af0:	2a0003e1 	mov	w1, w0
    9af4:	35000aa0 	cbnz	w0, 9c48 <mbedtls_mpi_inv_mod+0x270>
/home/build/bsp/optee_os/lib/libmbedtls/mbedtls/library/bignum.c:2204 (discriminator 2)
    9af8:	aa1403e1 	mov	x1, x20
    9afc:	aa1903e0 	mov	x0, x25
    9b00:	97fff656 	bl	7458 <mbedtls_mpi_copy>
    9b04:	2a0003e1 	mov	w1, w0
    9b08:	35000a00 	cbnz	w0, 9c48 <mbedtls_mpi_inv_mod+0x270>
/home/build/bsp/optee_os/lib/libmbedtls/mbedtls/library/bignum.c:2206 (discriminator 2)
    9b0c:	52800021 	mov	w1, #0x1                   	// #1
    9b10:	aa1703e0 	mov	x0, x23
    9b14:	97fff6a7 	bl	75b0 <mbedtls_mpi_lset>
    9b18:	2a0003e1 	mov	w1, w0
    9b1c:	35000960 	cbnz	w0, 9c48 <mbedtls_mpi_inv_mod+0x270>
/home/build/bsp/optee_os/lib/libmbedtls/mbedtls/library/bignum.c:2207 (discriminator 2)
    9b20:	aa1603e0 	mov	x0, x22
    9b24:	97fff6a3 	bl	75b0 <mbedtls_mpi_lset>
    9b28:	2a0003e1 	mov	w1, w0
    9b2c:	350008e0 	cbnz	w0, 9c48 <mbedtls_mpi_inv_mod+0x270>
/home/build/bsp/optee_os/lib/libmbedtls/mbedtls/library/bignum.c:2208 (discriminator 2)
    9b30:	aa1303e0 	mov	x0, x19
    9b34:	97fff69f 	bl	75b0 <mbedtls_mpi_lset>
    9b38:	2a0003e1 	mov	w1, w0
    9b3c:	35000860 	cbnz	w0, 9c48 <mbedtls_mpi_inv_mod+0x270>
/home/build/bsp/optee_os/lib/libmbedtls/mbedtls/library/bignum.c:2209 (discriminator 2)
    9b40:	aa1503e0 	mov	x0, x21
    9b44:	52800021 	mov	w1, #0x1                   	// #1
    9b48:	97fff69a 	bl	75b0 <mbedtls_mpi_lset>
/home/build/bsp/optee_os/lib/libmbedtls/mbedtls/library/bignum.c:2221 (discriminator 2)
    9b4c:	2a0003e1 	mov	w1, w0
    9b50:	350007c0 	cbnz	w0, 9c48 <mbedtls_mpi_inv_mod+0x270>
/home/build/bsp/optee_os/lib/libmbedtls/mbedtls/library/bignum.c:2212 (discriminator 2)
    9b54:	f94067e0 	ldr	x0, [sp, #200]
    9b58:	b9400000 	ldr	w0, [x0]
    9b5c:	36000560 	tbz	w0, #0, 9c08 <mbedtls_mpi_inv_mod+0x230>
/home/build/bsp/optee_os/lib/libmbedtls/mbedtls/library/bignum.c:2224 (discriminator 2)
    9b60:	f940a7e0 	ldr	x0, [sp, #328]
    9b64:	b9400000 	ldr	w0, [x0]
    9b68:	36000ca0 	tbz	w0, #0, 9cfc <mbedtls_mpi_inv_mod+0x324>
/home/build/bsp/optee_os/lib/libmbedtls/mbedtls/library/bignum.c:2236
    9b6c:	aa1903e1 	mov	x1, x25
    9b70:	aa1803e0 	mov	x0, x24
    9b74:	97fff7a2 	bl	79fc <mbedtls_mpi_cmp_mpi>
    9b78:	37f81080 	tbnz	w0, #31, 9d88 <mbedtls_mpi_inv_mod+0x3b0>
/home/build/bsp/optee_os/lib/libmbedtls/mbedtls/library/bignum.c:2237
    9b7c:	aa1803e1 	mov	x1, x24
    9b80:	aa1903e2 	mov	x2, x25
    9b84:	aa1803e0 	mov	x0, x24
    9b88:	97fff89d 	bl	7dfc <mbedtls_mpi_sub_mpi>
    9b8c:	2a0003e1 	mov	w1, w0
    9b90:	350005c0 	cbnz	w0, 9c48 <mbedtls_mpi_inv_mod+0x270>
/home/build/bsp/optee_os/lib/libmbedtls/mbedtls/library/bignum.c:2238 (discriminator 2)
    9b94:	aa1703e1 	mov	x1, x23
    9b98:	aa1303e2 	mov	x2, x19
    9b9c:	aa1703e0 	mov	x0, x23
    9ba0:	97fff897 	bl	7dfc <mbedtls_mpi_sub_mpi>
    9ba4:	2a0003e1 	mov	w1, w0
    9ba8:	35000500 	cbnz	w0, 9c48 <mbedtls_mpi_inv_mod+0x270>
/home/build/bsp/optee_os/lib/libmbedtls/mbedtls/library/bignum.c:2239 (discriminator 2)
    9bac:	aa1503e2 	mov	x2, x21
    9bb0:	aa1603e1 	mov	x1, x22
    9bb4:	aa1603e0 	mov	x0, x22
    9bb8:	97fff891 	bl	7dfc <mbedtls_mpi_sub_mpi>
    9bbc:	2a0003e1 	mov	w1, w0
    9bc0:	35000440 	cbnz	w0, 9c48 <mbedtls_mpi_inv_mod+0x270>
/home/build/bsp/optee_os/lib/libmbedtls/mbedtls/library/bignum.c:2245
    9bc4:	aa1803e0 	mov	x0, x24
    9bc8:	52800001 	mov	w1, #0x0                   	// #0
    9bcc:	97fff7c0 	bl	7acc <mbedtls_mpi_cmp_int>
    9bd0:	35fffc20 	cbnz	w0, 9b54 <mbedtls_mpi_inv_mod+0x17c>
/home/build/bsp/optee_os/lib/libmbedtls/mbedtls/library/bignum.c:2247 (discriminator 2)
    9bd4:	aa1303e0 	mov	x0, x19
    9bd8:	52800001 	mov	w1, #0x0                   	// #0
    9bdc:	97fff7bc 	bl	7acc <mbedtls_mpi_cmp_int>
    9be0:	37f80f40 	tbnz	w0, #31, 9dc8 <mbedtls_mpi_inv_mod+0x3f0>
/home/build/bsp/optee_os/lib/libmbedtls/mbedtls/library/bignum.c:2251 (discriminator 2)
    9be4:	aa1403e1 	mov	x1, x20
    9be8:	aa1303e0 	mov	x0, x19
    9bec:	97fff784 	bl	79fc <mbedtls_mpi_cmp_mpi>
    9bf0:	36f80fa0 	tbz	w0, #31, 9de4 <mbedtls_mpi_inv_mod+0x40c>
/home/build/bsp/optee_os/lib/libmbedtls/mbedtls/library/bignum.c:2255
    9bf4:	f94037e0 	ldr	x0, [sp, #104]
    9bf8:	aa1303e1 	mov	x1, x19
    9bfc:	97fff617 	bl	7458 <mbedtls_mpi_copy>
    9c00:	2a0003e1 	mov	w1, w0
    9c04:	14000011 	b	9c48 <mbedtls_mpi_inv_mod+0x270>
/home/build/bsp/optee_os/lib/libmbedtls/mbedtls/library/bignum.c:2213
    9c08:	d2800021 	mov	x1, #0x1                   	// #1
    9c0c:	aa1803e0 	mov	x0, x24
    9c10:	97fff748 	bl	7930 <mbedtls_mpi_shift_r>
    9c14:	2a0003e1 	mov	w1, w0
    9c18:	35000180 	cbnz	w0, 9c48 <mbedtls_mpi_inv_mod+0x270>
/home/build/bsp/optee_os/lib/libmbedtls/mbedtls/library/bignum.c:2215 (discriminator 2)
    9c1c:	f94077e0 	ldr	x0, [sp, #232]
    9c20:	b9400000 	ldr	w0, [x0]
    9c24:	370004a0 	tbnz	w0, #0, 9cb8 <mbedtls_mpi_inv_mod+0x2e0>
/home/build/bsp/optee_os/lib/libmbedtls/mbedtls/library/bignum.c:2215 (discriminator 1)
    9c28:	f94087e0 	ldr	x0, [sp, #264]
    9c2c:	b9400000 	ldr	w0, [x0]
    9c30:	37000440 	tbnz	w0, #0, 9cb8 <mbedtls_mpi_inv_mod+0x2e0>
/home/build/bsp/optee_os/lib/libmbedtls/mbedtls/library/bignum.c:2220
    9c34:	d2800021 	mov	x1, #0x1                   	// #1
    9c38:	aa1703e0 	mov	x0, x23
    9c3c:	97fff73d 	bl	7930 <mbedtls_mpi_shift_r>
    9c40:	2a0003e1 	mov	w1, w0
    9c44:	34000540 	cbz	w0, 9cec <mbedtls_mpi_inv_mod+0x314>
/home/build/bsp/optee_os/lib/libmbedtls/mbedtls/library/bignum.c:2259 (discriminator 3)
    9c48:	aa1a03e0 	mov	x0, x26
    9c4c:	b90063e1 	str	w1, [sp, #96]
    9c50:	97fff54c 	bl	7180 <mbedtls_mpi_free>
    9c54:	aa1803e0 	mov	x0, x24
    9c58:	97fff54a 	bl	7180 <mbedtls_mpi_free>
    9c5c:	aa1703e0 	mov	x0, x23
    9c60:	97fff548 	bl	7180 <mbedtls_mpi_free>
    9c64:	aa1603e0 	mov	x0, x22
    9c68:	97fff546 	bl	7180 <mbedtls_mpi_free>
/home/build/bsp/optee_os/lib/libmbedtls/mbedtls/library/bignum.c:2260 (discriminator 3)
    9c6c:	aa1c03e0 	mov	x0, x28
    9c70:	97fff544 	bl	7180 <mbedtls_mpi_free>
    9c74:	aa1b03e0 	mov	x0, x27
    9c78:	97fff542 	bl	7180 <mbedtls_mpi_free>
    9c7c:	aa1903e0 	mov	x0, x25
    9c80:	97fff540 	bl	7180 <mbedtls_mpi_free>
/home/build/bsp/optee_os/lib/libmbedtls/mbedtls/library/bignum.c:2261 (discriminator 3)
    9c84:	aa1303e0 	mov	x0, x19
    9c88:	97fff53e 	bl	7180 <mbedtls_mpi_free>
    9c8c:	aa1503e0 	mov	x0, x21
    9c90:	97fff53c 	bl	7180 <mbedtls_mpi_free>
/home/build/bsp/optee_os/lib/libmbedtls/mbedtls/library/bignum.c:2263 (discriminator 3)
    9c94:	b94063e1 	ldr	w1, [sp, #96]
/home/build/bsp/optee_os/lib/libmbedtls/mbedtls/library/bignum.c:2264
    9c98:	b0000040 	adrp	x0, 12000 <_DYNAMIC>
    9c9c:	f9409800 	ldr	x0, [x0, #304]
    9ca0:	f940cfe3 	ldr	x3, [sp, #408]
    9ca4:	f9400002 	ldr	x2, [x0]
    9ca8:	eb020063 	subs	x3, x3, x2
    9cac:	d2800002 	mov	x2, #0x0                   	// #0
    9cb0:	54000b00 	b.eq	9e10 <mbedtls_mpi_inv_mod+0x438>  // b.none
    9cb4:	97ffda7f 	bl	6b0 <__stack_chk_fail>
/home/build/bsp/optee_os/lib/libmbedtls/mbedtls/library/bignum.c:2216
    9cb8:	aa1703e1 	mov	x1, x23
    9cbc:	aa1b03e2 	mov	x2, x27
    9cc0:	aa1703e0 	mov	x0, x23
    9cc4:	97fff84c 	bl	7df4 <mbedtls_mpi_add_mpi>
    9cc8:	2a0003e1 	mov	w1, w0
    9ccc:	35fffbe0 	cbnz	w0, 9c48 <mbedtls_mpi_inv_mod+0x270>
/home/build/bsp/optee_os/lib/libmbedtls/mbedtls/library/bignum.c:2217 (discriminator 2)
    9cd0:	aa1603e1 	mov	x1, x22
    9cd4:	aa1a03e2 	mov	x2, x26
    9cd8:	aa1603e0 	mov	x0, x22
    9cdc:	97fff848 	bl	7dfc <mbedtls_mpi_sub_mpi>
    9ce0:	2a0003e1 	mov	w1, w0
    9ce4:	34fffa80 	cbz	w0, 9c34 <mbedtls_mpi_inv_mod+0x25c>
    9ce8:	17ffffd8 	b	9c48 <mbedtls_mpi_inv_mod+0x270>
/home/build/bsp/optee_os/lib/libmbedtls/mbedtls/library/bignum.c:2221 (discriminator 2)
    9cec:	aa1603e0 	mov	x0, x22
    9cf0:	d2800021 	mov	x1, #0x1                   	// #1
    9cf4:	97fff70f 	bl	7930 <mbedtls_mpi_shift_r>
    9cf8:	17ffff95 	b	9b4c <mbedtls_mpi_inv_mod+0x174>
/home/build/bsp/optee_os/lib/libmbedtls/mbedtls/library/bignum.c:2225
    9cfc:	d2800021 	mov	x1, #0x1                   	// #1
    9d00:	aa1903e0 	mov	x0, x25
    9d04:	97fff70b 	bl	7930 <mbedtls_mpi_shift_r>
    9d08:	2a0003e1 	mov	w1, w0
    9d0c:	35fff9e0 	cbnz	w0, 9c48 <mbedtls_mpi_inv_mod+0x270>
/home/build/bsp/optee_os/lib/libmbedtls/mbedtls/library/bignum.c:2227 (discriminator 2)
    9d10:	f940b7e0 	ldr	x0, [sp, #360]
    9d14:	b9400000 	ldr	w0, [x0]
    9d18:	370001e0 	tbnz	w0, #0, 9d54 <mbedtls_mpi_inv_mod+0x37c>
/home/build/bsp/optee_os/lib/libmbedtls/mbedtls/library/bignum.c:2227 (discriminator 1)
    9d1c:	f940c7e0 	ldr	x0, [sp, #392]
    9d20:	b9400000 	ldr	w0, [x0]
    9d24:	37000180 	tbnz	w0, #0, 9d54 <mbedtls_mpi_inv_mod+0x37c>
/home/build/bsp/optee_os/lib/libmbedtls/mbedtls/library/bignum.c:2232
    9d28:	d2800021 	mov	x1, #0x1                   	// #1
    9d2c:	aa1303e0 	mov	x0, x19
    9d30:	97fff700 	bl	7930 <mbedtls_mpi_shift_r>
    9d34:	2a0003e1 	mov	w1, w0
    9d38:	35fff880 	cbnz	w0, 9c48 <mbedtls_mpi_inv_mod+0x270>
/home/build/bsp/optee_os/lib/libmbedtls/mbedtls/library/bignum.c:2233 (discriminator 2)
    9d3c:	d2800021 	mov	x1, #0x1                   	// #1
    9d40:	aa1503e0 	mov	x0, x21
    9d44:	97fff6fb 	bl	7930 <mbedtls_mpi_shift_r>
    9d48:	2a0003e1 	mov	w1, w0
    9d4c:	34fff0a0 	cbz	w0, 9b60 <mbedtls_mpi_inv_mod+0x188>
    9d50:	17ffffbe 	b	9c48 <mbedtls_mpi_inv_mod+0x270>
/home/build/bsp/optee_os/lib/libmbedtls/mbedtls/library/bignum.c:2228
    9d54:	aa1303e1 	mov	x1, x19
    9d58:	aa1b03e2 	mov	x2, x27
    9d5c:	aa1303e0 	mov	x0, x19
    9d60:	97fff825 	bl	7df4 <mbedtls_mpi_add_mpi>
    9d64:	2a0003e1 	mov	w1, w0
    9d68:	35fff700 	cbnz	w0, 9c48 <mbedtls_mpi_inv_mod+0x270>
/home/build/bsp/optee_os/lib/libmbedtls/mbedtls/library/bignum.c:2229 (discriminator 2)
    9d6c:	aa1503e1 	mov	x1, x21
    9d70:	aa1a03e2 	mov	x2, x26
    9d74:	aa1503e0 	mov	x0, x21
    9d78:	97fff821 	bl	7dfc <mbedtls_mpi_sub_mpi>
    9d7c:	2a0003e1 	mov	w1, w0
    9d80:	34fffd40 	cbz	w0, 9d28 <mbedtls_mpi_inv_mod+0x350>
    9d84:	17ffffb1 	b	9c48 <mbedtls_mpi_inv_mod+0x270>
/home/build/bsp/optee_os/lib/libmbedtls/mbedtls/library/bignum.c:2241
    9d88:	aa1903e1 	mov	x1, x25
    9d8c:	aa1803e2 	mov	x2, x24
    9d90:	aa1903e0 	mov	x0, x25
    9d94:	97fff81a 	bl	7dfc <mbedtls_mpi_sub_mpi>
    9d98:	2a0003e1 	mov	w1, w0
    9d9c:	35fff560 	cbnz	w0, 9c48 <mbedtls_mpi_inv_mod+0x270>
/home/build/bsp/optee_os/lib/libmbedtls/mbedtls/library/bignum.c:2242 (discriminator 2)
    9da0:	aa1303e1 	mov	x1, x19
    9da4:	aa1703e2 	mov	x2, x23
    9da8:	aa1303e0 	mov	x0, x19
    9dac:	97fff814 	bl	7dfc <mbedtls_mpi_sub_mpi>
    9db0:	2a0003e1 	mov	w1, w0
    9db4:	35fff4a0 	cbnz	w0, 9c48 <mbedtls_mpi_inv_mod+0x270>
/home/build/bsp/optee_os/lib/libmbedtls/mbedtls/library/bignum.c:2243 (discriminator 2)
    9db8:	aa1603e2 	mov	x2, x22
    9dbc:	aa1503e1 	mov	x1, x21
    9dc0:	aa1503e0 	mov	x0, x21
    9dc4:	17ffff7d 	b	9bb8 <mbedtls_mpi_inv_mod+0x1e0>
/home/build/bsp/optee_os/lib/libmbedtls/mbedtls/library/bignum.c:2248
    9dc8:	aa1303e1 	mov	x1, x19
    9dcc:	aa1403e2 	mov	x2, x20
    9dd0:	aa1303e0 	mov	x0, x19
    9dd4:	97fff808 	bl	7df4 <mbedtls_mpi_add_mpi>
    9dd8:	2a0003e1 	mov	w1, w0
    9ddc:	34ffefc0 	cbz	w0, 9bd4 <mbedtls_mpi_inv_mod+0x1fc>
    9de0:	17ffff9a 	b	9c48 <mbedtls_mpi_inv_mod+0x270>
/home/build/bsp/optee_os/lib/libmbedtls/mbedtls/library/bignum.c:2252
    9de4:	aa1303e1 	mov	x1, x19
    9de8:	aa1403e2 	mov	x2, x20
    9dec:	aa1303e0 	mov	x0, x19
    9df0:	97fff803 	bl	7dfc <mbedtls_mpi_sub_mpi>
    9df4:	2a0003e1 	mov	w1, w0
    9df8:	34ffef60 	cbz	w0, 9be4 <mbedtls_mpi_inv_mod+0x20c>
    9dfc:	17ffff93 	b	9c48 <mbedtls_mpi_inv_mod+0x270>
/home/build/bsp/optee_os/lib/libmbedtls/mbedtls/library/bignum.c:2197
    9e00:	128001a1 	mov	w1, #0xfffffff2            	// #-14
    9e04:	17ffff91 	b	9c48 <mbedtls_mpi_inv_mod+0x270>
/home/build/bsp/optee_os/lib/libmbedtls/mbedtls/library/bignum.c:2185
    9e08:	12800061 	mov	w1, #0xfffffffc            	// #-4
    9e0c:	17ffffa3 	b	9c98 <mbedtls_mpi_inv_mod+0x2c0>
/home/build/bsp/optee_os/lib/libmbedtls/mbedtls/library/bignum.c:2264
    9e10:	2a0103e0 	mov	w0, w1
    9e14:	a94153f3 	ldp	x19, x20, [sp, #16]
    9e18:	a9425bf5 	ldp	x21, x22, [sp, #32]
    9e1c:	a94363f7 	ldp	x23, x24, [sp, #48]
    9e20:	a9446bf9 	ldp	x25, x26, [sp, #64]
    9e24:	a94573fb 	ldp	x27, x28, [sp, #80]
    9e28:	a8da7bfd 	ldp	x29, x30, [sp], #416
    9e2c:	d65f03c0 	ret

0000000000009e30 <mbedtls_mpi_is_prime_ext>:
mbedtls_mpi_is_prime_ext():
/home/build/bsp/optee_os/lib/libmbedtls/mbedtls/library/bignum.c:2426
    9e30:	a9b97bfd 	stp	x29, x30, [sp, #-112]!
    9e34:	b0000044 	adrp	x4, 12000 <_DYNAMIC>
    9e38:	910003fd 	mov	x29, sp
    9e3c:	f9409884 	ldr	x4, [x4, #304]
    9e40:	a90153f3 	stp	x19, x20, [sp, #16]
    9e44:	2a0103f4 	mov	w20, w1
    9e48:	a9025bf5 	stp	x21, x22, [sp, #32]
/home/build/bsp/optee_os/lib/libmbedtls/mbedtls/library/bignum.c:2436
    9e4c:	910123f3 	add	x19, sp, #0x48
/home/build/bsp/optee_os/lib/libmbedtls/mbedtls/library/bignum.c:2426
    9e50:	aa0203f5 	mov	x21, x2
    9e54:	f9001bf7 	str	x23, [sp, #48]
    9e58:	aa0303f6 	mov	x22, x3
/home/build/bsp/optee_os/lib/libmbedtls/mbedtls/library/bignum.c:2432
    9e5c:	52800037 	mov	w23, #0x1                   	// #1
/home/build/bsp/optee_os/lib/libmbedtls/mbedtls/library/bignum.c:2426
    9e60:	f9400081 	ldr	x1, [x4]
    9e64:	f90037e1 	str	x1, [sp, #104]
    9e68:	d2800001 	mov	x1, #0x0                   	// #0
/home/build/bsp/optee_os/lib/libmbedtls/mbedtls/library/bignum.c:2432
    9e6c:	b9004bf7 	str	w23, [sp, #72]
/home/build/bsp/optee_os/lib/libmbedtls/mbedtls/library/bignum.c:2434
    9e70:	a9408001 	ldp	x1, x0, [x0, #8]
    9e74:	a90503e1 	stp	x1, x0, [sp, #80]
/home/build/bsp/optee_os/lib/libmbedtls/mbedtls/library/bignum.c:2436
    9e78:	aa1303e0 	mov	x0, x19
    9e7c:	52800001 	mov	w1, #0x0                   	// #0
    9e80:	97fff713 	bl	7acc <mbedtls_mpi_cmp_int>
    9e84:	35000140 	cbnz	w0, 9eac <mbedtls_mpi_is_prime_ext+0x7c>
/home/build/bsp/optee_os/lib/libmbedtls/mbedtls/library/bignum.c:2438
    9e88:	128001a0 	mov	w0, #0xfffffff2            	// #-14
/home/build/bsp/optee_os/lib/libmbedtls/mbedtls/library/bignum.c:2454
    9e8c:	b0000044 	adrp	x4, 12000 <_DYNAMIC>
    9e90:	f9409884 	ldr	x4, [x4, #304]
    9e94:	f94037e1 	ldr	x1, [sp, #104]
    9e98:	f9400082 	ldr	x2, [x4]
    9e9c:	eb020021 	subs	x1, x1, x2
    9ea0:	d2800002 	mov	x2, #0x0                   	// #0
    9ea4:	540002e0 	b.eq	9f00 <mbedtls_mpi_is_prime_ext+0xd0>  // b.none
    9ea8:	97ffda02 	bl	6b0 <__stack_chk_fail>
/home/build/bsp/optee_os/lib/libmbedtls/mbedtls/library/bignum.c:2437 (discriminator 1)
    9eac:	2a1703e1 	mov	w1, w23
    9eb0:	aa1303e0 	mov	x0, x19
    9eb4:	97fff706 	bl	7acc <mbedtls_mpi_cmp_int>
/home/build/bsp/optee_os/lib/libmbedtls/mbedtls/library/bignum.c:2436 (discriminator 1)
    9eb8:	34fffe80 	cbz	w0, 9e88 <mbedtls_mpi_is_prime_ext+0x58>
/home/build/bsp/optee_os/lib/libmbedtls/mbedtls/library/bignum.c:2441
    9ebc:	aa1303e0 	mov	x0, x19
    9ec0:	52800041 	mov	w1, #0x2                   	// #2
    9ec4:	97fff702 	bl	7acc <mbedtls_mpi_cmp_int>
    9ec8:	340000c0 	cbz	w0, 9ee0 <mbedtls_mpi_is_prime_ext+0xb0>
/home/build/bsp/optee_os/lib/libmbedtls/mbedtls/library/bignum.c:2445
    9ecc:	aa1303e0 	mov	x0, x19
    9ed0:	97fffb7f 	bl	8ccc <mpi_check_small_factors>
    9ed4:	340000a0 	cbz	w0, 9ee8 <mbedtls_mpi_is_prime_ext+0xb8>
/home/build/bsp/optee_os/lib/libmbedtls/mbedtls/library/bignum.c:2446
    9ed8:	7100041f 	cmp	w0, #0x1
    9edc:	54fffd81 	b.ne	9e8c <mbedtls_mpi_is_prime_ext+0x5c>  // b.any
/home/build/bsp/optee_os/lib/libmbedtls/mbedtls/library/bignum.c:2447
    9ee0:	52800000 	mov	w0, #0x0                   	// #0
    9ee4:	17ffffea 	b	9e8c <mbedtls_mpi_is_prime_ext+0x5c>
/home/build/bsp/optee_os/lib/libmbedtls/mbedtls/library/bignum.c:2453
    9ee8:	aa1603e3 	mov	x3, x22
    9eec:	aa1503e2 	mov	x2, x21
    9ef0:	93407e81 	sxtw	x1, w20
    9ef4:	aa1303e0 	mov	x0, x19
    9ef8:	97fffdea 	bl	96a0 <mpi_miller_rabin>
    9efc:	17ffffe4 	b	9e8c <mbedtls_mpi_is_prime_ext+0x5c>
/home/build/bsp/optee_os/lib/libmbedtls/mbedtls/library/bignum.c:2454
    9f00:	a94153f3 	ldp	x19, x20, [sp, #16]
    9f04:	a9425bf5 	ldp	x21, x22, [sp, #32]
    9f08:	f9401bf7 	ldr	x23, [sp, #48]
    9f0c:	a8c77bfd 	ldp	x29, x30, [sp], #112
    9f10:	d65f03c0 	ret

0000000000009f14 <mbedtls_mpi_gen_prime>:
mbedtls_mpi_gen_prime():
/home/build/bsp/optee_os/lib/libmbedtls/mbedtls/library/bignum.c:2466
    9f14:	a9b67bfd 	stp	x29, x30, [sp, #-160]!
    9f18:	910003fd 	mov	x29, sp
    9f1c:	a90153f3 	stp	x19, x20, [sp, #16]
    9f20:	aa0003f3 	mov	x19, x0
    9f24:	b0000040 	adrp	x0, 12000 <_DYNAMIC>
    9f28:	a9025bf5 	stp	x21, x22, [sp, #32]
    9f2c:	f9409800 	ldr	x0, [x0, #304]
    9f30:	a90363f7 	stp	x23, x24, [sp, #48]
    9f34:	a9046bf9 	stp	x25, x26, [sp, #64]
    9f38:	a90573fb 	stp	x27, x28, [sp, #80]
    9f3c:	aa0103fc 	mov	x28, x1
    9f40:	f9400001 	ldr	x1, [x0]
    9f44:	f9004fe1 	str	x1, [sp, #152]
    9f48:	d2800001 	mov	x1, #0x0                   	// #0
/home/build/bsp/optee_os/lib/libmbedtls/mbedtls/library/bignum.c:2483
    9f4c:	d283ffa0 	mov	x0, #0x1ffd                	// #8189
    9f50:	d1000f81 	sub	x1, x28, #0x3
    9f54:	eb00003f 	cmp	x1, x0
    9f58:	54001708 	b.hi	a238 <mbedtls_mpi_gen_prime+0x324>  // b.pmore
/home/build/bsp/optee_os/lib/libmbedtls/mbedtls/library/bignum.c:2487
    9f5c:	9101e3f4 	add	x20, sp, #0x78
    9f60:	2a0203f8 	mov	w24, w2
    9f64:	aa1403e0 	mov	x0, x20
    9f68:	aa0303f6 	mov	x22, x3
    9f6c:	aa0403f7 	mov	x23, x4
    9f70:	97fff47a 	bl	7158 <mbedtls_mpi_init_mempool>
/home/build/bsp/optee_os/lib/libmbedtls/mbedtls/library/bignum.c:2489
    9f74:	f240139f 	tst	x28, #0x1f
    9f78:	d345ff95 	lsr	x21, x28, #5
    9f7c:	9a9506a0 	cinc	x0, x21, ne  // ne = any
/home/build/bsp/optee_os/lib/libmbedtls/mbedtls/library/bignum.c:2491
    9f80:	37080d58 	tbnz	w24, #1, a128 <mbedtls_mpi_gen_prime+0x214>
/home/build/bsp/optee_os/lib/libmbedtls/mbedtls/library/bignum.c:2495
    9f84:	f1144f9f 	cmp	x28, #0x513
    9f88:	54000f48 	b.hi	a170 <mbedtls_mpi_gen_prime+0x25c>  // b.pmore
/home/build/bsp/optee_os/lib/libmbedtls/mbedtls/library/bignum.c:2495 (discriminator 1)
    9f8c:	f10d479f 	cmp	x28, #0x351
    9f90:	54000f48 	b.hi	a178 <mbedtls_mpi_gen_prime+0x264>  // b.pmore
/home/build/bsp/optee_os/lib/libmbedtls/mbedtls/library/bignum.c:2496
    9f94:	f10a279f 	cmp	x28, #0x289
    9f98:	54000f88 	b.hi	a188 <mbedtls_mpi_gen_prime+0x274>  // b.pmore
/home/build/bsp/optee_os/lib/libmbedtls/mbedtls/library/bignum.c:2496 (discriminator 1)
    9f9c:	f105779f 	cmp	x28, #0x15d
    9fa0:	54001048 	b.hi	a1a8 <mbedtls_mpi_gen_prime+0x294>  // b.pmore
/home/build/bsp/optee_os/lib/libmbedtls/mbedtls/library/bignum.c:2497
    9fa4:	f103e79f 	cmp	x28, #0xf9
    9fa8:	54000ec8 	b.hi	a180 <mbedtls_mpi_gen_prime+0x26c>  // b.pmore
/home/build/bsp/optee_os/lib/libmbedtls/mbedtls/library/bignum.c:2497 (discriminator 1)
    9fac:	f102579f 	cmp	x28, #0x95
    9fb0:	52800255 	mov	w21, #0x12                  	// #18
    9fb4:	52800361 	mov	w1, #0x1b                  	// #27
/home/build/bsp/optee_os/lib/libmbedtls/mbedtls/library/bignum.c:2506 (discriminator 1)
    9fb8:	1a8182ba 	csel	w26, w21, w1, hi  // hi = pmore
/home/build/bsp/optee_os/lib/libmbedtls/mbedtls/library/bignum.c:2516
    9fbc:	d37be815 	lsl	x21, x0, #5
/home/build/bsp/optee_os/lib/libmbedtls/mbedtls/library/bignum.c:2510
    9fc0:	d37ef419 	lsl	x25, x0, #2
/home/build/bsp/optee_os/lib/libmbedtls/mbedtls/library/bignum.c:2518
    9fc4:	cb1c02bb 	sub	x27, x21, x28
/home/build/bsp/optee_os/lib/libmbedtls/mbedtls/library/bignum.c:2522
    9fc8:	12000318 	and	w24, w24, #0x1
/home/build/bsp/optee_os/lib/libmbedtls/mbedtls/library/bignum.c:2512
    9fcc:	d1001321 	sub	x1, x25, #0x4
    9fd0:	f90037e1 	str	x1, [sp, #104]
/home/build/bsp/optee_os/lib/libmbedtls/mbedtls/library/bignum.c:2510
    9fd4:	aa1603e2 	mov	x2, x22
    9fd8:	aa1703e3 	mov	x3, x23
    9fdc:	aa1903e1 	mov	x1, x25
    9fe0:	aa1303e0 	mov	x0, x19
    9fe4:	97fffd95 	bl	9638 <mbedtls_mpi_fill_random>
    9fe8:	2a0003e2 	mov	w2, w0
    9fec:	35000f40 	cbnz	w0, a1d4 <mbedtls_mpi_gen_prime+0x2c0>
/home/build/bsp/optee_os/lib/libmbedtls/mbedtls/library/bignum.c:2512 (discriminator 2)
    9ff0:	f9400a60 	ldr	x0, [x19, #16]
    9ff4:	f94037e1 	ldr	x1, [sp, #104]
    9ff8:	b8616800 	ldr	w0, [x0, x1]
    9ffc:	529e6661 	mov	w1, #0xf333                	// #62259
    a000:	72b6a081 	movk	w1, #0xb504, lsl #16
    a004:	6b01001f 	cmp	w0, w1
    a008:	54fffe69 	b.ls	9fd4 <mbedtls_mpi_gen_prime+0xc0>  // b.plast
/home/build/bsp/optee_os/lib/libmbedtls/mbedtls/library/bignum.c:2517
    a00c:	eb15039f 	cmp	x28, x21
    a010:	54000d83 	b.cc	a1c0 <mbedtls_mpi_gen_prime+0x2ac>  // b.lo, b.ul, b.last
/home/build/bsp/optee_os/lib/libmbedtls/mbedtls/library/bignum.c:2520
    a014:	f9400a61 	ldr	x1, [x19, #16]
    a018:	b9400020 	ldr	w0, [x1]
    a01c:	32000002 	orr	w2, w0, #0x1
    a020:	b9000022 	str	w2, [x1]
/home/build/bsp/optee_os/lib/libmbedtls/mbedtls/library/bignum.c:2522
    a024:	34000f18 	cbz	w24, a204 <mbedtls_mpi_gen_prime+0x2f0>
/home/build/bsp/optee_os/lib/libmbedtls/mbedtls/library/bignum.c:2535
    a028:	32000400 	orr	w0, w0, #0x3
    a02c:	b9000020 	str	w0, [x1]
/home/build/bsp/optee_os/lib/libmbedtls/mbedtls/library/bignum.c:2537
    a030:	52800062 	mov	w2, #0x3                   	// #3
    a034:	aa1303e1 	mov	x1, x19
    a038:	9101d3e0 	add	x0, sp, #0x74
    a03c:	97fffa60 	bl	89bc <mbedtls_mpi_mod_int>
    a040:	2a0003e2 	mov	w2, w0
    a044:	35000c80 	cbnz	w0, a1d4 <mbedtls_mpi_gen_prime+0x2c0>
/home/build/bsp/optee_os/lib/libmbedtls/mbedtls/library/bignum.c:2538 (discriminator 2)
    a048:	b94077e0 	ldr	w0, [sp, #116]
    a04c:	35000ee0 	cbnz	w0, a228 <mbedtls_mpi_gen_prime+0x314>
/home/build/bsp/optee_os/lib/libmbedtls/mbedtls/library/bignum.c:2539
    a050:	52800102 	mov	w2, #0x8                   	// #8
    a054:	aa1303e1 	mov	x1, x19
    a058:	aa1303e0 	mov	x0, x19
    a05c:	97fff76a 	bl	7e04 <mbedtls_mpi_add_int>
    a060:	2a0003e2 	mov	w2, w0
    a064:	35000b80 	cbnz	w0, a1d4 <mbedtls_mpi_gen_prime+0x2c0>
/home/build/bsp/optee_os/lib/libmbedtls/mbedtls/library/bignum.c:2545
    a068:	aa1303e1 	mov	x1, x19
    a06c:	aa1403e0 	mov	x0, x20
    a070:	97fff4fa 	bl	7458 <mbedtls_mpi_copy>
    a074:	2a0003e2 	mov	w2, w0
    a078:	35000ae0 	cbnz	w0, a1d4 <mbedtls_mpi_gen_prime+0x2c0>
/home/build/bsp/optee_os/lib/libmbedtls/mbedtls/library/bignum.c:2546 (discriminator 2)
    a07c:	aa1403e0 	mov	x0, x20
    a080:	d2800021 	mov	x1, #0x1                   	// #1
    a084:	97fff62b 	bl	7930 <mbedtls_mpi_shift_r>
    a088:	2a0003e2 	mov	w2, w0
    a08c:	35000a40 	cbnz	w0, a1d4 <mbedtls_mpi_gen_prime+0x2c0>
/home/build/bsp/optee_os/lib/libmbedtls/mbedtls/library/bignum.c:2555
    a090:	93407f55 	sxtw	x21, w26
/home/build/bsp/optee_os/lib/libmbedtls/mbedtls/library/bignum.c:2553 (discriminator 2)
    a094:	aa1303e0 	mov	x0, x19
    a098:	97fffb0d 	bl	8ccc <mpi_check_small_factors>
    a09c:	2a0003e2 	mov	w2, w0
    a0a0:	35000260 	cbnz	w0, a0ec <mbedtls_mpi_gen_prime+0x1d8>
/home/build/bsp/optee_os/lib/libmbedtls/mbedtls/library/bignum.c:2554 (discriminator 1)
    a0a4:	aa1403e0 	mov	x0, x20
    a0a8:	97fffb09 	bl	8ccc <mpi_check_small_factors>
    a0ac:	2a0003e2 	mov	w2, w0
/home/build/bsp/optee_os/lib/libmbedtls/mbedtls/library/bignum.c:2553 (discriminator 1)
    a0b0:	350001e0 	cbnz	w0, a0ec <mbedtls_mpi_gen_prime+0x1d8>
/home/build/bsp/optee_os/lib/libmbedtls/mbedtls/library/bignum.c:2555
    a0b4:	aa1603e2 	mov	x2, x22
    a0b8:	aa1703e3 	mov	x3, x23
    a0bc:	aa1503e1 	mov	x1, x21
    a0c0:	aa1303e0 	mov	x0, x19
    a0c4:	97fffd77 	bl	96a0 <mpi_miller_rabin>
    a0c8:	2a0003e2 	mov	w2, w0
/home/build/bsp/optee_os/lib/libmbedtls/mbedtls/library/bignum.c:2554
    a0cc:	35000100 	cbnz	w0, a0ec <mbedtls_mpi_gen_prime+0x1d8>
/home/build/bsp/optee_os/lib/libmbedtls/mbedtls/library/bignum.c:2557
    a0d0:	aa1603e2 	mov	x2, x22
    a0d4:	aa1703e3 	mov	x3, x23
    a0d8:	aa1503e1 	mov	x1, x21
    a0dc:	aa1403e0 	mov	x0, x20
    a0e0:	97fffd70 	bl	96a0 <mpi_miller_rabin>
    a0e4:	2a0003e2 	mov	w2, w0
/home/build/bsp/optee_os/lib/libmbedtls/mbedtls/library/bignum.c:2556
    a0e8:	34000760 	cbz	w0, a1d4 <mbedtls_mpi_gen_prime+0x2c0>
/home/build/bsp/optee_os/lib/libmbedtls/mbedtls/library/bignum.c:2562
    a0ec:	3100385f 	cmn	w2, #0xe
    a0f0:	54000721 	b.ne	a1d4 <mbedtls_mpi_gen_prime+0x2c0>  // b.any
/home/build/bsp/optee_os/lib/libmbedtls/mbedtls/library/bignum.c:2571
    a0f4:	52800182 	mov	w2, #0xc                   	// #12
    a0f8:	aa1303e1 	mov	x1, x19
    a0fc:	aa1303e0 	mov	x0, x19
    a100:	97fff741 	bl	7e04 <mbedtls_mpi_add_int>
    a104:	2a0003e2 	mov	w2, w0
    a108:	35000660 	cbnz	w0, a1d4 <mbedtls_mpi_gen_prime+0x2c0>
/home/build/bsp/optee_os/lib/libmbedtls/mbedtls/library/bignum.c:2572 (discriminator 2)
    a10c:	528000c2 	mov	w2, #0x6                   	// #6
    a110:	aa1403e1 	mov	x1, x20
    a114:	aa1403e0 	mov	x0, x20
    a118:	97fff73b 	bl	7e04 <mbedtls_mpi_add_int>
    a11c:	2a0003e2 	mov	w2, w0
    a120:	34fffba0 	cbz	w0, a094 <mbedtls_mpi_gen_prime+0x180>
    a124:	1400002c 	b	a1d4 <mbedtls_mpi_gen_prime+0x2c0>
/home/build/bsp/optee_os/lib/libmbedtls/mbedtls/library/bignum.c:2503
    a128:	f116a79f 	cmp	x28, #0x5a9
    a12c:	540002e8 	b.hi	a188 <mbedtls_mpi_gen_prime+0x274>  // b.pmore
/home/build/bsp/optee_os/lib/libmbedtls/mbedtls/library/bignum.c:2503 (discriminator 1)
    a130:	f111f79f 	cmp	x28, #0x47d
    a134:	540002e8 	b.hi	a190 <mbedtls_mpi_gen_prime+0x27c>  // b.pmore
/home/build/bsp/optee_os/lib/libmbedtls/mbedtls/library/bignum.c:2504
    a138:	f10f9f9f 	cmp	x28, #0x3e7
    a13c:	540002e8 	b.hi	a198 <mbedtls_mpi_gen_prime+0x284>  // b.pmore
/home/build/bsp/optee_os/lib/libmbedtls/mbedtls/library/bignum.c:2504 (discriminator 1)
    a140:	f10d479f 	cmp	x28, #0x351
    a144:	540002e8 	b.hi	a1a0 <mbedtls_mpi_gen_prime+0x28c>  // b.pmore
/home/build/bsp/optee_os/lib/libmbedtls/mbedtls/library/bignum.c:2505
    a148:	f10bb79f 	cmp	x28, #0x2ed
    a14c:	540002e8 	b.hi	a1a8 <mbedtls_mpi_gen_prime+0x294>  // b.pmore
/home/build/bsp/optee_os/lib/libmbedtls/mbedtls/library/bignum.c:2505 (discriminator 1)
    a150:	f107cf9f 	cmp	x28, #0x1f3
    a154:	540002e8 	b.hi	a1b0 <mbedtls_mpi_gen_prime+0x29c>  // b.pmore
/home/build/bsp/optee_os/lib/libmbedtls/mbedtls/library/bignum.c:2506
    a158:	f103e79f 	cmp	x28, #0xf9
    a15c:	540002e8 	b.hi	a1b8 <mbedtls_mpi_gen_prime+0x2a4>  // b.pmore
/home/build/bsp/optee_os/lib/libmbedtls/mbedtls/library/bignum.c:2506 (discriminator 1)
    a160:	f102579f 	cmp	x28, #0x95
    a164:	52800515 	mov	w21, #0x28                  	// #40
    a168:	52800661 	mov	w1, #0x33                  	// #51
    a16c:	17ffff93 	b	9fb8 <mbedtls_mpi_gen_prime+0xa4>
/home/build/bsp/optee_os/lib/libmbedtls/mbedtls/library/bignum.c:2495
    a170:	5280005a 	mov	w26, #0x2                   	// #2
    a174:	17ffff92 	b	9fbc <mbedtls_mpi_gen_prime+0xa8>
    a178:	5280007a 	mov	w26, #0x3                   	// #3
    a17c:	17ffff90 	b	9fbc <mbedtls_mpi_gen_prime+0xa8>
/home/build/bsp/optee_os/lib/libmbedtls/mbedtls/library/bignum.c:2497
    a180:	5280019a 	mov	w26, #0xc                   	// #12
    a184:	17ffff8e 	b	9fbc <mbedtls_mpi_gen_prime+0xa8>
/home/build/bsp/optee_os/lib/libmbedtls/mbedtls/library/bignum.c:2496
    a188:	5280009a 	mov	w26, #0x4                   	// #4
    a18c:	17ffff8c 	b	9fbc <mbedtls_mpi_gen_prime+0xa8>
/home/build/bsp/optee_os/lib/libmbedtls/mbedtls/library/bignum.c:2503
    a190:	528000ba 	mov	w26, #0x5                   	// #5
    a194:	17ffff8a 	b	9fbc <mbedtls_mpi_gen_prime+0xa8>
/home/build/bsp/optee_os/lib/libmbedtls/mbedtls/library/bignum.c:2504
    a198:	528000da 	mov	w26, #0x6                   	// #6
    a19c:	17ffff88 	b	9fbc <mbedtls_mpi_gen_prime+0xa8>
    a1a0:	528000fa 	mov	w26, #0x7                   	// #7
    a1a4:	17ffff86 	b	9fbc <mbedtls_mpi_gen_prime+0xa8>
/home/build/bsp/optee_os/lib/libmbedtls/mbedtls/library/bignum.c:2496
    a1a8:	5280011a 	mov	w26, #0x8                   	// #8
    a1ac:	17ffff84 	b	9fbc <mbedtls_mpi_gen_prime+0xa8>
/home/build/bsp/optee_os/lib/libmbedtls/mbedtls/library/bignum.c:2505
    a1b0:	528001ba 	mov	w26, #0xd                   	// #13
    a1b4:	17ffff82 	b	9fbc <mbedtls_mpi_gen_prime+0xa8>
/home/build/bsp/optee_os/lib/libmbedtls/mbedtls/library/bignum.c:2506
    a1b8:	5280039a 	mov	w26, #0x1c                  	// #28
    a1bc:	17ffff80 	b	9fbc <mbedtls_mpi_gen_prime+0xa8>
/home/build/bsp/optee_os/lib/libmbedtls/mbedtls/library/bignum.c:2518
    a1c0:	aa1b03e1 	mov	x1, x27
    a1c4:	aa1303e0 	mov	x0, x19
    a1c8:	97fff5da 	bl	7930 <mbedtls_mpi_shift_r>
    a1cc:	2a0003e2 	mov	w2, w0
    a1d0:	34fff220 	cbz	w0, a014 <mbedtls_mpi_gen_prime+0x100>
/home/build/bsp/optee_os/lib/libmbedtls/mbedtls/library/bignum.c:2579
    a1d4:	aa1403e0 	mov	x0, x20
    a1d8:	b9006be2 	str	w2, [sp, #104]
    a1dc:	97fff3e9 	bl	7180 <mbedtls_mpi_free>
/home/build/bsp/optee_os/lib/libmbedtls/mbedtls/library/bignum.c:2581
    a1e0:	b9406be2 	ldr	w2, [sp, #104]
/home/build/bsp/optee_os/lib/libmbedtls/mbedtls/library/bignum.c:2582
    a1e4:	90000040 	adrp	x0, 12000 <_DYNAMIC>
    a1e8:	f9409800 	ldr	x0, [x0, #304]
    a1ec:	f9404fe3 	ldr	x3, [sp, #152]
    a1f0:	f9400001 	ldr	x1, [x0]
    a1f4:	eb010063 	subs	x3, x3, x1
    a1f8:	d2800001 	mov	x1, #0x0                   	// #0
    a1fc:	54000220 	b.eq	a240 <mbedtls_mpi_gen_prime+0x32c>  // b.none
    a200:	97ffd92c 	bl	6b0 <__stack_chk_fail>
/home/build/bsp/optee_os/lib/libmbedtls/mbedtls/library/bignum.c:2523
    a204:	aa1603e2 	mov	x2, x22
    a208:	aa1703e3 	mov	x3, x23
    a20c:	2a1a03e1 	mov	w1, w26
    a210:	aa1303e0 	mov	x0, x19
    a214:	97ffff07 	bl	9e30 <mbedtls_mpi_is_prime_ext>
    a218:	2a0003e2 	mov	w2, w0
/home/build/bsp/optee_os/lib/libmbedtls/mbedtls/library/bignum.c:2525
    a21c:	3100381f 	cmn	w0, #0xe
    a220:	54ffeda0 	b.eq	9fd4 <mbedtls_mpi_gen_prime+0xc0>  // b.none
    a224:	17ffffec 	b	a1d4 <mbedtls_mpi_gen_prime+0x2c0>
/home/build/bsp/optee_os/lib/libmbedtls/mbedtls/library/bignum.c:2540
    a228:	7100041f 	cmp	w0, #0x1
    a22c:	54fff1e1 	b.ne	a068 <mbedtls_mpi_gen_prime+0x154>  // b.any
/home/build/bsp/optee_os/lib/libmbedtls/mbedtls/library/bignum.c:2541
    a230:	52800082 	mov	w2, #0x4                   	// #4
    a234:	17ffff88 	b	a054 <mbedtls_mpi_gen_prime+0x140>
/home/build/bsp/optee_os/lib/libmbedtls/mbedtls/library/bignum.c:2484
    a238:	12800062 	mov	w2, #0xfffffffc            	// #-4
    a23c:	17ffffea 	b	a1e4 <mbedtls_mpi_gen_prime+0x2d0>
/home/build/bsp/optee_os/lib/libmbedtls/mbedtls/library/bignum.c:2582
    a240:	2a0203e0 	mov	w0, w2
    a244:	a94153f3 	ldp	x19, x20, [sp, #16]
    a248:	a9425bf5 	ldp	x21, x22, [sp, #32]
    a24c:	a94363f7 	ldp	x23, x24, [sp, #48]
    a250:	a9446bf9 	ldp	x25, x26, [sp, #64]
    a254:	a94573fb 	ldp	x27, x28, [sp, #80]
    a258:	a8ca7bfd 	ldp	x29, x30, [sp], #160
    a25c:	d65f03c0 	ret

000000000000a260 <mbedtls_mpi_self_test>:
mbedtls_mpi_self_test():
/home/build/bsp/optee_os/lib/libmbedtls/mbedtls/library/bignum.c:2601
    a260:	a9aa7bfd 	stp	x29, x30, [sp, #-352]!
    a264:	910003fd 	mov	x29, sp
    a268:	a90153f3 	stp	x19, x20, [sp, #16]
    a26c:	2a0003f3 	mov	w19, w0
    a270:	90000040 	adrp	x0, 12000 <_DYNAMIC>
    a274:	a9025bf5 	stp	x21, x22, [sp, #32]
/home/build/bsp/optee_os/lib/libmbedtls/mbedtls/library/bignum.c:2605
    a278:	9101e3f6 	add	x22, sp, #0x78
/home/build/bsp/optee_os/lib/libmbedtls/mbedtls/library/bignum.c:2606
    a27c:	910363f4 	add	x20, sp, #0xd8
/home/build/bsp/optee_os/lib/libmbedtls/mbedtls/library/bignum.c:2601
    a280:	f9409800 	ldr	x0, [x0, #304]
    a284:	a90363f7 	stp	x23, x24, [sp, #48]
/home/build/bsp/optee_os/lib/libmbedtls/mbedtls/library/bignum.c:2606
    a288:	9102e3f8 	add	x24, sp, #0xb8
/home/build/bsp/optee_os/lib/libmbedtls/mbedtls/library/bignum.c:2601
    a28c:	a9046bf9 	stp	x25, x26, [sp, #64]
/home/build/bsp/optee_os/lib/libmbedtls/mbedtls/library/bignum.c:2607
    a290:	9103e3fa 	add	x26, sp, #0xf8
    a294:	910463f5 	add	x21, sp, #0x118
/home/build/bsp/optee_os/lib/libmbedtls/mbedtls/library/bignum.c:2601
    a298:	a90573fb 	stp	x27, x28, [sp, #80]
/home/build/bsp/optee_os/lib/libmbedtls/mbedtls/library/bignum.c:2605
    a29c:	910263fc 	add	x28, sp, #0x98
/home/build/bsp/optee_os/lib/libmbedtls/mbedtls/library/bignum.c:2608
    a2a0:	9104e3fb 	add	x27, sp, #0x138
/home/build/bsp/optee_os/lib/libmbedtls/mbedtls/library/bignum.c:2601
    a2a4:	f9400001 	ldr	x1, [x0]
    a2a8:	f900afe1 	str	x1, [sp, #344]
    a2ac:	d2800001 	mov	x1, #0x0                   	// #0
/home/build/bsp/optee_os/lib/libmbedtls/mbedtls/library/bignum.c:2605
    a2b0:	aa1603e0 	mov	x0, x22
    a2b4:	97fff3a9 	bl	7158 <mbedtls_mpi_init_mempool>
    a2b8:	aa1c03e0 	mov	x0, x28
    a2bc:	97fff3a7 	bl	7158 <mbedtls_mpi_init_mempool>
/home/build/bsp/optee_os/lib/libmbedtls/mbedtls/library/bignum.c:2606
    a2c0:	aa1803e0 	mov	x0, x24
    a2c4:	97fff3a5 	bl	7158 <mbedtls_mpi_init_mempool>
    a2c8:	aa1403e0 	mov	x0, x20
    a2cc:	97fff3a3 	bl	7158 <mbedtls_mpi_init_mempool>
/home/build/bsp/optee_os/lib/libmbedtls/mbedtls/library/bignum.c:2607
    a2d0:	aa1a03e0 	mov	x0, x26
    a2d4:	97fff3a1 	bl	7158 <mbedtls_mpi_init_mempool>
    a2d8:	aa1503e0 	mov	x0, x21
    a2dc:	97fff39f 	bl	7158 <mbedtls_mpi_init_mempool>
/home/build/bsp/optee_os/lib/libmbedtls/mbedtls/library/bignum.c:2608
    a2e0:	aa1b03e0 	mov	x0, x27
    a2e4:	97fff39d 	bl	7158 <mbedtls_mpi_init_mempool>
/home/build/bsp/optee_os/lib/libmbedtls/mbedtls/library/bignum.c:2610
    a2e8:	aa1603e0 	mov	x0, x22
    a2ec:	d0000022 	adrp	x2, 10000 <__func__.0+0x28>
    a2f0:	52800201 	mov	w1, #0x10                  	// #16
    a2f4:	912df442 	add	x2, x2, #0xb7d
    a2f8:	97fff79b 	bl	8164 <mbedtls_mpi_read_string>
    a2fc:	2a0003f7 	mov	w23, w0
    a300:	350004c0 	cbnz	w0, a398 <mbedtls_mpi_self_test+0x138>
/home/build/bsp/optee_os/lib/libmbedtls/mbedtls/library/bignum.c:2616 (discriminator 2)
    a304:	aa1c03e0 	mov	x0, x28
    a308:	d0000022 	adrp	x2, 10000 <__func__.0+0x28>
    a30c:	52800201 	mov	w1, #0x10                  	// #16
    a310:	912ff842 	add	x2, x2, #0xbfe
    a314:	97fff794 	bl	8164 <mbedtls_mpi_read_string>
    a318:	2a0003f7 	mov	w23, w0
    a31c:	350003e0 	cbnz	w0, a398 <mbedtls_mpi_self_test+0x138>
/home/build/bsp/optee_os/lib/libmbedtls/mbedtls/library/bignum.c:2622 (discriminator 2)
    a320:	aa1803e0 	mov	x0, x24
    a324:	d0000022 	adrp	x2, 10000 <__func__.0+0x28>
    a328:	52800201 	mov	w1, #0x10                  	// #16
    a32c:	9131fc42 	add	x2, x2, #0xc7f
    a330:	97fff78d 	bl	8164 <mbedtls_mpi_read_string>
    a334:	2a0003f7 	mov	w23, w0
    a338:	35000300 	cbnz	w0, a398 <mbedtls_mpi_self_test+0x138>
/home/build/bsp/optee_os/lib/libmbedtls/mbedtls/library/bignum.c:2627 (discriminator 2)
    a33c:	aa1803e2 	mov	x2, x24
    a340:	aa1603e1 	mov	x1, x22
    a344:	aa1403e0 	mov	x0, x20
    a348:	97fff6eb 	bl	7ef4 <mbedtls_mpi_mul_mpi>
    a34c:	2a0003f7 	mov	w23, w0
    a350:	35000240 	cbnz	w0, a398 <mbedtls_mpi_self_test+0x138>
/home/build/bsp/optee_os/lib/libmbedtls/mbedtls/library/bignum.c:2629 (discriminator 2)
    a354:	aa1503e0 	mov	x0, x21
    a358:	d0000022 	adrp	x2, 10000 <__func__.0+0x28>
    a35c:	52800201 	mov	w1, #0x10                  	// #16
    a360:	91338042 	add	x2, x2, #0xce0
    a364:	97fff780 	bl	8164 <mbedtls_mpi_read_string>
    a368:	2a0003f7 	mov	w23, w0
    a36c:	35000160 	cbnz	w0, a398 <mbedtls_mpi_self_test+0x138>
/home/build/bsp/optee_os/lib/libmbedtls/mbedtls/library/bignum.c:2638 (discriminator 2)
    a370:	34000093 	cbz	w19, a380 <mbedtls_mpi_self_test+0x120>
/home/build/bsp/optee_os/lib/libmbedtls/mbedtls/library/bignum.c:2639
    a374:	d0000020 	adrp	x0, 10000 <__func__.0+0x28>
    a378:	9136fc00 	add	x0, x0, #0xdbf
    a37c:	97ffdc76 	bl	1554 <printf>
/home/build/bsp/optee_os/lib/libmbedtls/mbedtls/library/bignum.c:2642
    a380:	aa1503e1 	mov	x1, x21
    a384:	aa1403e0 	mov	x0, x20
    a388:	97fff59d 	bl	79fc <mbedtls_mpi_cmp_mpi>
    a38c:	340004e0 	cbz	w0, a428 <mbedtls_mpi_self_test+0x1c8>
/home/build/bsp/optee_os/lib/libmbedtls/mbedtls/library/bignum.c:2643
    a390:	35000453 	cbnz	w19, a418 <mbedtls_mpi_self_test+0x1b8>
/home/build/bsp/optee_os/lib/libmbedtls/mbedtls/library/bignum.c:2647
    a394:	52800037 	mov	w23, #0x1                   	// #1
/home/build/bsp/optee_os/lib/libmbedtls/mbedtls/library/bignum.c:2757
    a398:	710002ff 	cmp	w23, #0x0
    a39c:	7a401a64 	ccmp	w19, #0x0, #0x4, ne  // ne = any
    a3a0:	540000a0 	b.eq	a3b4 <mbedtls_mpi_self_test+0x154>  // b.none
/home/build/bsp/optee_os/lib/libmbedtls/mbedtls/library/bignum.c:2758
    a3a4:	d0000020 	adrp	x0, 10000 <__func__.0+0x28>
    a3a8:	2a1703e1 	mov	w1, w23
    a3ac:	913e7000 	add	x0, x0, #0xf9c
    a3b0:	97ffdc69 	bl	1554 <printf>
/home/build/bsp/optee_os/lib/libmbedtls/mbedtls/library/bignum.c:2761
    a3b4:	aa1603e0 	mov	x0, x22
    a3b8:	97fff372 	bl	7180 <mbedtls_mpi_free>
    a3bc:	aa1c03e0 	mov	x0, x28
    a3c0:	97fff370 	bl	7180 <mbedtls_mpi_free>
    a3c4:	aa1803e0 	mov	x0, x24
    a3c8:	97fff36e 	bl	7180 <mbedtls_mpi_free>
    a3cc:	aa1403e0 	mov	x0, x20
    a3d0:	97fff36c 	bl	7180 <mbedtls_mpi_free>
/home/build/bsp/optee_os/lib/libmbedtls/mbedtls/library/bignum.c:2762
    a3d4:	aa1a03e0 	mov	x0, x26
    a3d8:	97fff36a 	bl	7180 <mbedtls_mpi_free>
    a3dc:	aa1503e0 	mov	x0, x21
    a3e0:	97fff368 	bl	7180 <mbedtls_mpi_free>
    a3e4:	aa1b03e0 	mov	x0, x27
    a3e8:	97fff366 	bl	7180 <mbedtls_mpi_free>
/home/build/bsp/optee_os/lib/libmbedtls/mbedtls/library/bignum.c:2764
    a3ec:	34000073 	cbz	w19, a3f8 <mbedtls_mpi_self_test+0x198>
/home/build/bsp/optee_os/lib/libmbedtls/mbedtls/library/bignum.c:2765
    a3f0:	52800140 	mov	w0, #0xa                   	// #10
    a3f4:	97ffdca8 	bl	1694 <putchar>
/home/build/bsp/optee_os/lib/libmbedtls/mbedtls/library/bignum.c:2769
    a3f8:	90000040 	adrp	x0, 12000 <_DYNAMIC>
    a3fc:	f9409800 	ldr	x0, [x0, #304]
    a400:	f940afe1 	ldr	x1, [sp, #344]
    a404:	f9400002 	ldr	x2, [x0]
    a408:	eb020021 	subs	x1, x1, x2
    a40c:	d2800002 	mov	x2, #0x0                   	// #0
    a410:	54001280 	b.eq	a660 <mbedtls_mpi_self_test+0x400>  // b.none
    a414:	97ffd8a7 	bl	6b0 <__stack_chk_fail>
/home/build/bsp/optee_os/lib/libmbedtls/mbedtls/library/bignum.c:2644
    a418:	d0000020 	adrp	x0, 10000 <__func__.0+0x28>
    a41c:	912c7800 	add	x0, x0, #0xb1e
    a420:	97ffdc8d 	bl	1654 <puts>
    a424:	17ffffdc 	b	a394 <mbedtls_mpi_self_test+0x134>
/home/build/bsp/optee_os/lib/libmbedtls/mbedtls/library/bignum.c:2651
    a428:	34000093 	cbz	w19, a438 <mbedtls_mpi_self_test+0x1d8>
/home/build/bsp/optee_os/lib/libmbedtls/mbedtls/library/bignum.c:2652
    a42c:	d0000020 	adrp	x0, 10000 <__func__.0+0x28>
    a430:	91376400 	add	x0, x0, #0xdd9
    a434:	97ffdc88 	bl	1654 <puts>
/home/build/bsp/optee_os/lib/libmbedtls/mbedtls/library/bignum.c:2655
    a438:	aa1803e3 	mov	x3, x24
    a43c:	aa1603e2 	mov	x2, x22
    a440:	aa1a03e1 	mov	x1, x26
    a444:	aa1403e0 	mov	x0, x20
    a448:	97fff7ca 	bl	8370 <mbedtls_mpi_div_mpi>
    a44c:	2a0003f7 	mov	w23, w0
    a450:	35fffa40 	cbnz	w0, a398 <mbedtls_mpi_self_test+0x138>
/home/build/bsp/optee_os/lib/libmbedtls/mbedtls/library/bignum.c:2657 (discriminator 2)
    a454:	aa1503e0 	mov	x0, x21
    a458:	d0000022 	adrp	x2, 10000 <__func__.0+0x28>
    a45c:	52800201 	mov	w1, #0x10                  	// #16
    a460:	91378042 	add	x2, x2, #0xde0
    a464:	97fff740 	bl	8164 <mbedtls_mpi_read_string>
    a468:	2a0003f7 	mov	w23, w0
    a46c:	35fff960 	cbnz	w0, a398 <mbedtls_mpi_self_test+0x138>
/home/build/bsp/optee_os/lib/libmbedtls/mbedtls/library/bignum.c:2660 (discriminator 2)
    a470:	aa1b03e0 	mov	x0, x27
    a474:	d0000022 	adrp	x2, 10000 <__func__.0+0x28>
    a478:	52800201 	mov	w1, #0x10                  	// #16
    a47c:	91381042 	add	x2, x2, #0xe04
    a480:	97fff739 	bl	8164 <mbedtls_mpi_read_string>
    a484:	2a0003f7 	mov	w23, w0
    a488:	35fff880 	cbnz	w0, a398 <mbedtls_mpi_self_test+0x138>
/home/build/bsp/optee_os/lib/libmbedtls/mbedtls/library/bignum.c:2665 (discriminator 2)
    a48c:	34000093 	cbz	w19, a49c <mbedtls_mpi_self_test+0x23c>
/home/build/bsp/optee_os/lib/libmbedtls/mbedtls/library/bignum.c:2666
    a490:	d0000020 	adrp	x0, 10000 <__func__.0+0x28>
    a494:	91398c00 	add	x0, x0, #0xe63
    a498:	97ffdc2f 	bl	1554 <printf>
/home/build/bsp/optee_os/lib/libmbedtls/mbedtls/library/bignum.c:2669
    a49c:	aa1503e1 	mov	x1, x21
    a4a0:	aa1403e0 	mov	x0, x20
    a4a4:	97fff556 	bl	79fc <mbedtls_mpi_cmp_mpi>
    a4a8:	35fff740 	cbnz	w0, a390 <mbedtls_mpi_self_test+0x130>
/home/build/bsp/optee_os/lib/libmbedtls/mbedtls/library/bignum.c:2670 (discriminator 1)
    a4ac:	aa1b03e1 	mov	x1, x27
    a4b0:	aa1a03e0 	mov	x0, x26
    a4b4:	97fff552 	bl	79fc <mbedtls_mpi_cmp_mpi>
/home/build/bsp/optee_os/lib/libmbedtls/mbedtls/library/bignum.c:2669 (discriminator 1)
    a4b8:	35fff6c0 	cbnz	w0, a390 <mbedtls_mpi_self_test+0x130>
/home/build/bsp/optee_os/lib/libmbedtls/mbedtls/library/bignum.c:2679
    a4bc:	34000093 	cbz	w19, a4cc <mbedtls_mpi_self_test+0x26c>
/home/build/bsp/optee_os/lib/libmbedtls/mbedtls/library/bignum.c:2680
    a4c0:	d0000020 	adrp	x0, 10000 <__func__.0+0x28>
    a4c4:	91376400 	add	x0, x0, #0xdd9
    a4c8:	97ffdc63 	bl	1654 <puts>
/home/build/bsp/optee_os/lib/libmbedtls/mbedtls/library/bignum.c:2683
    a4cc:	aa1803e3 	mov	x3, x24
    a4d0:	aa1c03e2 	mov	x2, x28
    a4d4:	aa1603e1 	mov	x1, x22
    a4d8:	aa1403e0 	mov	x0, x20
    a4dc:	d2800004 	mov	x4, #0x0                   	// #0
    a4e0:	97fffa3a 	bl	8dc8 <mbedtls_mpi_exp_mod>
    a4e4:	2a0003f7 	mov	w23, w0
    a4e8:	35fff580 	cbnz	w0, a398 <mbedtls_mpi_self_test+0x138>
/home/build/bsp/optee_os/lib/libmbedtls/mbedtls/library/bignum.c:2685 (discriminator 2)
    a4ec:	aa1503e0 	mov	x0, x21
    a4f0:	d0000022 	adrp	x2, 10000 <__func__.0+0x28>
    a4f4:	52800201 	mov	w1, #0x10                  	// #16
    a4f8:	9139f442 	add	x2, x2, #0xe7d
    a4fc:	97fff71a 	bl	8164 <mbedtls_mpi_read_string>
    a500:	2a0003f7 	mov	w23, w0
    a504:	35fff4a0 	cbnz	w0, a398 <mbedtls_mpi_self_test+0x138>
/home/build/bsp/optee_os/lib/libmbedtls/mbedtls/library/bignum.c:2690 (discriminator 2)
    a508:	34000093 	cbz	w19, a518 <mbedtls_mpi_self_test+0x2b8>
/home/build/bsp/optee_os/lib/libmbedtls/mbedtls/library/bignum.c:2691
    a50c:	d0000020 	adrp	x0, 10000 <__func__.0+0x28>
    a510:	913b7000 	add	x0, x0, #0xedc
    a514:	97ffdc10 	bl	1554 <printf>
/home/build/bsp/optee_os/lib/libmbedtls/mbedtls/library/bignum.c:2694
    a518:	aa1503e1 	mov	x1, x21
    a51c:	aa1403e0 	mov	x0, x20
    a520:	97fff537 	bl	79fc <mbedtls_mpi_cmp_mpi>
    a524:	35fff360 	cbnz	w0, a390 <mbedtls_mpi_self_test+0x130>
/home/build/bsp/optee_os/lib/libmbedtls/mbedtls/library/bignum.c:2703
    a528:	34000093 	cbz	w19, a538 <mbedtls_mpi_self_test+0x2d8>
/home/build/bsp/optee_os/lib/libmbedtls/mbedtls/library/bignum.c:2704
    a52c:	d0000020 	adrp	x0, 10000 <__func__.0+0x28>
    a530:	91376400 	add	x0, x0, #0xdd9
    a534:	97ffdc48 	bl	1654 <puts>
/home/build/bsp/optee_os/lib/libmbedtls/mbedtls/library/bignum.c:2707
    a538:	aa1803e2 	mov	x2, x24
    a53c:	aa1603e1 	mov	x1, x22
    a540:	aa1403e0 	mov	x0, x20
    a544:	97fffd25 	bl	99d8 <mbedtls_mpi_inv_mod>
    a548:	2a0003f7 	mov	w23, w0
    a54c:	35fff260 	cbnz	w0, a398 <mbedtls_mpi_self_test+0x138>
/home/build/bsp/optee_os/lib/libmbedtls/mbedtls/library/bignum.c:2709 (discriminator 2)
    a550:	aa1503e0 	mov	x0, x21
    a554:	d0000022 	adrp	x2, 10000 <__func__.0+0x28>
    a558:	52800201 	mov	w1, #0x10                  	// #16
    a55c:	913bd842 	add	x2, x2, #0xef6
    a560:	97fff701 	bl	8164 <mbedtls_mpi_read_string>
    a564:	2a0003f7 	mov	w23, w0
    a568:	35fff180 	cbnz	w0, a398 <mbedtls_mpi_self_test+0x138>
/home/build/bsp/optee_os/lib/libmbedtls/mbedtls/library/bignum.c:2714 (discriminator 2)
    a56c:	34000093 	cbz	w19, a57c <mbedtls_mpi_self_test+0x31c>
/home/build/bsp/optee_os/lib/libmbedtls/mbedtls/library/bignum.c:2715
    a570:	d0000020 	adrp	x0, 10000 <__func__.0+0x28>
    a574:	913d5c00 	add	x0, x0, #0xf57
    a578:	97ffdbf7 	bl	1554 <printf>
/home/build/bsp/optee_os/lib/libmbedtls/mbedtls/library/bignum.c:2718
    a57c:	aa1503e1 	mov	x1, x21
    a580:	aa1403e0 	mov	x0, x20
    a584:	97fff51e 	bl	79fc <mbedtls_mpi_cmp_mpi>
    a588:	2a0003f9 	mov	w25, w0
    a58c:	35fff020 	cbnz	w0, a390 <mbedtls_mpi_self_test+0x130>
/home/build/bsp/optee_os/lib/libmbedtls/mbedtls/library/bignum.c:2727
    a590:	340000f3 	cbz	w19, a5ac <mbedtls_mpi_self_test+0x34c>
/home/build/bsp/optee_os/lib/libmbedtls/mbedtls/library/bignum.c:2728
    a594:	d0000020 	adrp	x0, 10000 <__func__.0+0x28>
    a598:	91376400 	add	x0, x0, #0xdd9
    a59c:	97ffdc2e 	bl	1654 <puts>
/home/build/bsp/optee_os/lib/libmbedtls/mbedtls/library/bignum.c:2732
    a5a0:	d0000020 	adrp	x0, 10000 <__func__.0+0x28>
    a5a4:	913dc400 	add	x0, x0, #0xf71
    a5a8:	97ffdbeb 	bl	1554 <printf>
    a5ac:	d0000037 	adrp	x23, 10000 <__func__.0+0x28>
    a5b0:	9104e2f7 	add	x23, x23, #0x138
    a5b4:	910a82e0 	add	x0, x23, #0x2a0
    a5b8:	f90037e0 	str	x0, [sp, #104]
/home/build/bsp/optee_os/lib/libmbedtls/mbedtls/library/bignum.c:2736
    a5bc:	f94037e0 	ldr	x0, [sp, #104]
    a5c0:	b9400001 	ldr	w1, [x0]
    a5c4:	aa1403e0 	mov	x0, x20
    a5c8:	97fff3fa 	bl	75b0 <mbedtls_mpi_lset>
    a5cc:	2a0003f7 	mov	w23, w0
    a5d0:	35ffee40 	cbnz	w0, a398 <mbedtls_mpi_self_test+0x138>
/home/build/bsp/optee_os/lib/libmbedtls/mbedtls/library/bignum.c:2737 (discriminator 2)
    a5d4:	f94037e0 	ldr	x0, [sp, #104]
    a5d8:	b9400401 	ldr	w1, [x0, #4]
    a5dc:	aa1a03e0 	mov	x0, x26
    a5e0:	97fff3f4 	bl	75b0 <mbedtls_mpi_lset>
    a5e4:	2a0003f7 	mov	w23, w0
    a5e8:	35ffed80 	cbnz	w0, a398 <mbedtls_mpi_self_test+0x138>
/home/build/bsp/optee_os/lib/libmbedtls/mbedtls/library/bignum.c:2739 (discriminator 2)
    a5ec:	aa1a03e2 	mov	x2, x26
    a5f0:	aa1403e1 	mov	x1, x20
    a5f4:	aa1603e0 	mov	x0, x22
    a5f8:	97fffb9a 	bl	9460 <mbedtls_mpi_gcd>
    a5fc:	2a0003f7 	mov	w23, w0
    a600:	35ffecc0 	cbnz	w0, a398 <mbedtls_mpi_self_test+0x138>
/home/build/bsp/optee_os/lib/libmbedtls/mbedtls/library/bignum.c:2741 (discriminator 2)
    a604:	f94037e0 	ldr	x0, [sp, #104]
    a608:	b9400801 	ldr	w1, [x0, #8]
    a60c:	aa1603e0 	mov	x0, x22
    a610:	97fff52f 	bl	7acc <mbedtls_mpi_cmp_int>
    a614:	2a0003f7 	mov	w23, w0
    a618:	340000e0 	cbz	w0, a634 <mbedtls_mpi_self_test+0x3d4>
/home/build/bsp/optee_os/lib/libmbedtls/mbedtls/library/bignum.c:2742
    a61c:	34ffebd3 	cbz	w19, a394 <mbedtls_mpi_self_test+0x134>
/home/build/bsp/optee_os/lib/libmbedtls/mbedtls/library/bignum.c:2743
    a620:	2a1903e1 	mov	w1, w25
    a624:	d0000020 	adrp	x0, 10000 <__func__.0+0x28>
    a628:	913e3800 	add	x0, x0, #0xf8e
    a62c:	97ffdbca 	bl	1554 <printf>
    a630:	17ffff59 	b	a394 <mbedtls_mpi_self_test+0x134>
/home/build/bsp/optee_os/lib/libmbedtls/mbedtls/library/bignum.c:2735 (discriminator 2)
    a634:	f94037e0 	ldr	x0, [sp, #104]
    a638:	11000739 	add	w25, w25, #0x1
    a63c:	91003000 	add	x0, x0, #0xc
    a640:	f90037e0 	str	x0, [sp, #104]
    a644:	71000f3f 	cmp	w25, #0x3
    a648:	54fffba1 	b.ne	a5bc <mbedtls_mpi_self_test+0x35c>  // b.any
/home/build/bsp/optee_os/lib/libmbedtls/mbedtls/library/bignum.c:2751
    a64c:	34ffea73 	cbz	w19, a398 <mbedtls_mpi_self_test+0x138>
/home/build/bsp/optee_os/lib/libmbedtls/mbedtls/library/bignum.c:2752
    a650:	d0000020 	adrp	x0, 10000 <__func__.0+0x28>
    a654:	91376400 	add	x0, x0, #0xdd9
    a658:	97ffdbff 	bl	1654 <puts>
    a65c:	17ffff4f 	b	a398 <mbedtls_mpi_self_test+0x138>
/home/build/bsp/optee_os/lib/libmbedtls/mbedtls/library/bignum.c:2769
    a660:	2a1703e0 	mov	w0, w23
    a664:	a94153f3 	ldp	x19, x20, [sp, #16]
    a668:	a9425bf5 	ldp	x21, x22, [sp, #32]
    a66c:	a94363f7 	ldp	x23, x24, [sp, #48]
    a670:	a9446bf9 	ldp	x25, x26, [sp, #64]
    a674:	a94573fb 	ldp	x27, x28, [sp, #80]
    a678:	a8d67bfd 	ldp	x29, x30, [sp], #352
    a67c:	d65f03c0 	ret

000000000000a680 <mbedtls_mpi_core_clz>:
mbedtls_mpi_core_clz():
/home/build/bsp/optee_os/lib/libmbedtls/mbedtls/library/bignum_core.c:37
    a680:	2a0003e2 	mov	w2, w0
/home/build/bsp/optee_os/lib/libmbedtls/mbedtls/library/bignum_core.c:39
    a684:	52b00001 	mov	w1, #0x80000000            	// #-2147483648
/home/build/bsp/optee_os/lib/libmbedtls/mbedtls/library/bignum_core.c:41
    a688:	d2800000 	mov	x0, #0x0                   	// #0
/home/build/bsp/optee_os/lib/libmbedtls/mbedtls/library/bignum_core.c:42
    a68c:	6a01005f 	tst	w2, w1
    a690:	540000a1 	b.ne	a6a4 <mbedtls_mpi_core_clz+0x24>  // b.any
/home/build/bsp/optee_os/lib/libmbedtls/mbedtls/library/bignum_core.c:41 (discriminator 2)
    a694:	91000400 	add	x0, x0, #0x1
/home/build/bsp/optee_os/lib/libmbedtls/mbedtls/library/bignum_core.c:46 (discriminator 2)
    a698:	53017c21 	lsr	w1, w1, #1
/home/build/bsp/optee_os/lib/libmbedtls/mbedtls/library/bignum_core.c:41 (discriminator 2)
    a69c:	f100801f 	cmp	x0, #0x20
    a6a0:	54ffff61 	b.ne	a68c <mbedtls_mpi_core_clz+0xc>  // b.any
/home/build/bsp/optee_os/lib/libmbedtls/mbedtls/library/bignum_core.c:50
    a6a4:	d65f03c0 	ret

000000000000a6a8 <mbedtls_mpi_core_bitlen>:
mbedtls_mpi_core_bitlen():
/home/build/bsp/optee_os/lib/libmbedtls/mbedtls/library/bignum_core.c:53
    a6a8:	aa0003e2 	mov	x2, x0
    a6ac:	aa0103e0 	mov	x0, x1
/home/build/bsp/optee_os/lib/libmbedtls/mbedtls/library/bignum_core.c:56
    a6b0:	b4000241 	cbz	x1, a6f8 <mbedtls_mpi_core_bitlen+0x50>
/home/build/bsp/optee_os/lib/libmbedtls/mbedtls/library/bignum_core.c:53
    a6b4:	a9be7bfd 	stp	x29, x30, [sp, #-32]!
    a6b8:	910003fd 	mov	x29, sp
    a6bc:	f9000bf3 	str	x19, [sp, #16]
/home/build/bsp/optee_os/lib/libmbedtls/mbedtls/library/bignum_core.c:60
    a6c0:	d1000433 	sub	x19, x1, #0x1
    a6c4:	b5000133 	cbnz	x19, a6e8 <mbedtls_mpi_core_bitlen+0x40>
/home/build/bsp/optee_os/lib/libmbedtls/mbedtls/library/bignum_core.c:66
    a6c8:	b8737840 	ldr	w0, [x2, x19, lsl #2]
/home/build/bsp/optee_os/lib/libmbedtls/mbedtls/library/bignum_core.c:68
    a6cc:	d37bea73 	lsl	x19, x19, #5
/home/build/bsp/optee_os/lib/libmbedtls/mbedtls/library/bignum_core.c:66
    a6d0:	97ffffec 	bl	a680 <mbedtls_mpi_core_clz>
/home/build/bsp/optee_os/lib/libmbedtls/mbedtls/library/bignum_core.c:68
    a6d4:	cb000273 	sub	x19, x19, x0
    a6d8:	91008260 	add	x0, x19, #0x20
/home/build/bsp/optee_os/lib/libmbedtls/mbedtls/library/bignum_core.c:69
    a6dc:	f9400bf3 	ldr	x19, [sp, #16]
    a6e0:	a8c27bfd 	ldp	x29, x30, [sp], #32
    a6e4:	d65f03c0 	ret
/home/build/bsp/optee_os/lib/libmbedtls/mbedtls/library/bignum_core.c:61
    a6e8:	b8737840 	ldr	w0, [x2, x19, lsl #2]
    a6ec:	35fffee0 	cbnz	w0, a6c8 <mbedtls_mpi_core_bitlen+0x20>
/home/build/bsp/optee_os/lib/libmbedtls/mbedtls/library/bignum_core.c:60
    a6f0:	d1000673 	sub	x19, x19, #0x1
    a6f4:	17fffff4 	b	a6c4 <mbedtls_mpi_core_bitlen+0x1c>
/home/build/bsp/optee_os/lib/libmbedtls/mbedtls/library/bignum_core.c:69
    a6f8:	d65f03c0 	ret

000000000000a6fc <mbedtls_mpi_core_bigendian_to_host>:
mbedtls_mpi_core_bigendian_to_host():
/home/build/bsp/optee_os/lib/libmbedtls/mbedtls/library/bignum_core.c:111
    a6fc:	b40000a1 	cbz	x1, a710 <mbedtls_mpi_core_bigendian_to_host+0x14>
/home/build/bsp/optee_os/lib/libmbedtls/mbedtls/library/bignum_core.c:124
    a700:	8b010801 	add	x1, x0, x1, lsl #2
    a704:	d1001021 	sub	x1, x1, #0x4
/home/build/bsp/optee_os/lib/libmbedtls/mbedtls/library/bignum_core.c:125
    a708:	eb01001f 	cmp	x0, x1
    a70c:	54000049 	b.ls	a714 <mbedtls_mpi_core_bigendian_to_host+0x18>  // b.plast
/home/build/bsp/optee_os/lib/libmbedtls/mbedtls/library/bignum_core.c:134
    a710:	d65f03c0 	ret
/home/build/bsp/optee_os/lib/libmbedtls/mbedtls/library/bignum_core.c:130
    a714:	b9400023 	ldr	w3, [x1]
    a718:	b9400002 	ldr	w2, [x0]
    a71c:	5ac00863 	rev	w3, w3
/home/build/bsp/optee_os/lib/libmbedtls/mbedtls/library/bignum_core.c:131
    a720:	b8004403 	str	w3, [x0], #4
    a724:	5ac00842 	rev	w2, w2
/home/build/bsp/optee_os/lib/libmbedtls/mbedtls/library/bignum_core.c:132
    a728:	b81fc422 	str	w2, [x1], #-4
/home/build/bsp/optee_os/lib/libmbedtls/mbedtls/library/bignum_core.c:126
    a72c:	17fffff7 	b	a708 <mbedtls_mpi_core_bigendian_to_host+0xc>

000000000000a730 <mbedtls_mpi_core_uint_le_mpi>:
mbedtls_mpi_core_uint_le_mpi():
/home/build/bsp/optee_os/lib/libmbedtls/mbedtls/library/bignum_core.c:141
    a730:	a9bd7bfd 	stp	x29, x30, [sp, #-48]!
    a734:	910003fd 	mov	x29, sp
    a738:	a90153f3 	stp	x19, x20, [sp, #16]
    a73c:	aa0103f3 	mov	x19, x1
/home/build/bsp/optee_os/lib/libmbedtls/mbedtls/library/bignum_core.c:143
    a740:	2a0003e1 	mov	w1, w0
    a744:	b9400260 	ldr	w0, [x19]
/home/build/bsp/optee_os/lib/libmbedtls/mbedtls/library/bignum_core.c:141
    a748:	f90013f5 	str	x21, [sp, #32]
    a74c:	aa0203f5 	mov	x21, x2
/home/build/bsp/optee_os/lib/libmbedtls/mbedtls/library/bignum_core.c:143
    a750:	9400038b 	bl	b57c <mbedtls_ct_mpi_uint_lt>
    a754:	52000014 	eor	w20, w0, #0x1
/home/build/bsp/optee_os/lib/libmbedtls/mbedtls/library/bignum_core.c:147
    a758:	d2800023 	mov	x3, #0x1                   	// #1
/home/build/bsp/optee_os/lib/libmbedtls/mbedtls/library/bignum_core.c:146
    a75c:	52800000 	mov	w0, #0x0                   	// #0
/home/build/bsp/optee_os/lib/libmbedtls/mbedtls/library/bignum_core.c:147 (discriminator 1)
    a760:	eb15007f 	cmp	x3, x21
    a764:	54000103 	b.cc	a784 <mbedtls_mpi_core_uint_le_mpi+0x54>  // b.lo, b.ul, b.last
/home/build/bsp/optee_os/lib/libmbedtls/mbedtls/library/bignum_core.c:151
    a768:	9400037b 	bl	b554 <mbedtls_ct_mpi_uint_mask>
    a76c:	12000000 	and	w0, w0, #0x1
/home/build/bsp/optee_os/lib/libmbedtls/mbedtls/library/bignum_core.c:156
    a770:	2a140000 	orr	w0, w0, w20
    a774:	a94153f3 	ldp	x19, x20, [sp, #16]
    a778:	f94013f5 	ldr	x21, [sp, #32]
    a77c:	a8c37bfd 	ldp	x29, x30, [sp], #48
    a780:	d65f03c0 	ret
/home/build/bsp/optee_os/lib/libmbedtls/mbedtls/library/bignum_core.c:148 (discriminator 3)
    a784:	b8637a61 	ldr	w1, [x19, x3, lsl #2]
/home/build/bsp/optee_os/lib/libmbedtls/mbedtls/library/bignum_core.c:147 (discriminator 3)
    a788:	91000463 	add	x3, x3, #0x1
/home/build/bsp/optee_os/lib/libmbedtls/mbedtls/library/bignum_core.c:148 (discriminator 3)
    a78c:	2a010000 	orr	w0, w0, w1
/home/build/bsp/optee_os/lib/libmbedtls/mbedtls/library/bignum_core.c:147 (discriminator 3)
    a790:	17fffff4 	b	a760 <mbedtls_mpi_core_uint_le_mpi+0x30>

000000000000a794 <mbedtls_mpi_core_cond_assign>:
mbedtls_mpi_core_cond_assign():
/home/build/bsp/optee_os/lib/libmbedtls/mbedtls/library/bignum_core.c:162
    a794:	aa0003e4 	mov	x4, x0
    a798:	12001c63 	and	w3, w3, #0xff
    a79c:	aa0203e0 	mov	x0, x2
/home/build/bsp/optee_os/lib/libmbedtls/mbedtls/library/bignum_core.c:163
    a7a0:	eb01009f 	cmp	x4, x1
    a7a4:	54000080 	b.eq	a7b4 <mbedtls_mpi_core_cond_assign+0x20>  // b.none
/home/build/bsp/optee_os/lib/libmbedtls/mbedtls/library/bignum_core.c:167
    a7a8:	aa0103e2 	mov	x2, x1
    a7ac:	aa0403e1 	mov	x1, x4
    a7b0:	14000386 	b	b5c8 <mbedtls_ct_mpi_uint_cond_assign>
/home/build/bsp/optee_os/lib/libmbedtls/mbedtls/library/bignum_core.c:168
    a7b4:	d65f03c0 	ret

000000000000a7b8 <mbedtls_mpi_core_cond_swap>:
mbedtls_mpi_core_cond_swap():
/home/build/bsp/optee_os/lib/libmbedtls/mbedtls/library/bignum_core.c:174
    a7b8:	a9bd7bfd 	stp	x29, x30, [sp, #-48]!
    a7bc:	910003fd 	mov	x29, sp
    a7c0:	a90153f3 	stp	x19, x20, [sp, #16]
    a7c4:	aa0003f4 	mov	x20, x0
    a7c8:	f90013f5 	str	x21, [sp, #32]
/home/build/bsp/optee_os/lib/libmbedtls/mbedtls/library/bignum_core.c:175
    a7cc:	eb01001f 	cmp	x0, x1
    a7d0:	54000100 	b.eq	a7f0 <mbedtls_mpi_core_cond_swap+0x38>  // b.none
    a7d4:	aa0103f3 	mov	x19, x1
    a7d8:	aa0203f5 	mov	x21, x2
    a7dc:	12001c60 	and	w0, w3, #0xff
/home/build/bsp/optee_os/lib/libmbedtls/mbedtls/library/bignum_core.c:180
    a7e0:	9400035d 	bl	b554 <mbedtls_ct_mpi_uint_mask>
/home/build/bsp/optee_os/lib/libmbedtls/mbedtls/library/bignum_core.c:182
    a7e4:	d2800004 	mov	x4, #0x0                   	// #0
/home/build/bsp/optee_os/lib/libmbedtls/mbedtls/library/bignum_core.c:182 (discriminator 1)
    a7e8:	eb15009f 	cmp	x4, x21
    a7ec:	540000a1 	b.ne	a800 <mbedtls_mpi_core_cond_swap+0x48>  // b.any
/home/build/bsp/optee_os/lib/libmbedtls/mbedtls/library/bignum_core.c:187
    a7f0:	a94153f3 	ldp	x19, x20, [sp, #16]
    a7f4:	f94013f5 	ldr	x21, [sp, #32]
    a7f8:	a8c37bfd 	ldp	x29, x30, [sp], #48
    a7fc:	d65f03c0 	ret
/home/build/bsp/optee_os/lib/libmbedtls/mbedtls/library/bignum_core.c:183 (discriminator 3)
    a800:	b8647a83 	ldr	w3, [x20, x4, lsl #2]
/home/build/bsp/optee_os/lib/libmbedtls/mbedtls/library/bignum_core.c:184 (discriminator 3)
    a804:	b8647a65 	ldr	w5, [x19, x4, lsl #2]
    a808:	4a050065 	eor	w5, w3, w5
    a80c:	0a0000a5 	and	w5, w5, w0
    a810:	4a0300a5 	eor	w5, w5, w3
    a814:	b8247a85 	str	w5, [x20, x4, lsl #2]
/home/build/bsp/optee_os/lib/libmbedtls/mbedtls/library/bignum_core.c:185 (discriminator 3)
    a818:	b8647a61 	ldr	w1, [x19, x4, lsl #2]
    a81c:	4a030023 	eor	w3, w1, w3
    a820:	0a000063 	and	w3, w3, w0
    a824:	4a010063 	eor	w3, w3, w1
    a828:	b8247a63 	str	w3, [x19, x4, lsl #2]
/home/build/bsp/optee_os/lib/libmbedtls/mbedtls/library/bignum_core.c:182 (discriminator 3)
    a82c:	91000484 	add	x4, x4, #0x1
    a830:	17ffffee 	b	a7e8 <mbedtls_mpi_core_cond_swap+0x30>

000000000000a834 <mbedtls_mpi_core_read_le>:
mbedtls_mpi_core_read_le():
/home/build/bsp/optee_os/lib/libmbedtls/mbedtls/library/bignum_core.c:193
    a834:	a9bd7bfd 	stp	x29, x30, [sp, #-48]!
/home/build/bsp/optee_os/lib/libmbedtls/mbedtls/library/bignum_core.c:194
    a838:	f240047f 	tst	x3, #0x3
/home/build/bsp/optee_os/lib/libmbedtls/mbedtls/library/bignum_core.c:193
    a83c:	910003fd 	mov	x29, sp
    a840:	f90013f5 	str	x21, [sp, #32]
    a844:	aa0203f5 	mov	x21, x2
/home/build/bsp/optee_os/lib/libmbedtls/mbedtls/library/bignum_core.c:194
    a848:	d342fc62 	lsr	x2, x3, #2
/home/build/bsp/optee_os/lib/libmbedtls/mbedtls/library/bignum_core.c:193
    a84c:	a90153f3 	stp	x19, x20, [sp, #16]
/home/build/bsp/optee_os/lib/libmbedtls/mbedtls/library/bignum_core.c:194
    a850:	9a820442 	cinc	x2, x2, ne  // ne = any
/home/build/bsp/optee_os/lib/libmbedtls/mbedtls/library/bignum_core.c:196
    a854:	eb01005f 	cmp	x2, x1
    a858:	54000308 	b.hi	a8b8 <mbedtls_mpi_core_read_le+0x84>  // b.pmore
    a85c:	aa0003f4 	mov	x20, x0
/home/build/bsp/optee_os/lib/libmbedtls/mbedtls/library/bignum_core.c:200
    a860:	b50000c0 	cbnz	x0, a878 <mbedtls_mpi_core_read_le+0x44>
/home/build/bsp/optee_os/lib/libmbedtls/mbedtls/library/bignum_core.c:209
    a864:	52800000 	mov	w0, #0x0                   	// #0
/home/build/bsp/optee_os/lib/libmbedtls/mbedtls/library/bignum_core.c:210
    a868:	a94153f3 	ldp	x19, x20, [sp, #16]
    a86c:	f94013f5 	ldr	x21, [sp, #32]
    a870:	a8c37bfd 	ldp	x29, x30, [sp], #48
    a874:	d65f03c0 	ret
/home/build/bsp/optee_os/lib/libmbedtls/mbedtls/library/bignum_core.c:201
    a878:	d37ef422 	lsl	x2, x1, #2
    a87c:	aa0303f3 	mov	x19, x3
    a880:	52800001 	mov	w1, #0x0                   	// #0
    a884:	94000999 	bl	cee8 <memset>
/home/build/bsp/optee_os/lib/libmbedtls/mbedtls/library/bignum_core.c:203
    a888:	d2800001 	mov	x1, #0x0                   	// #0
/home/build/bsp/optee_os/lib/libmbedtls/mbedtls/library/bignum_core.c:203 (discriminator 1)
    a88c:	eb13003f 	cmp	x1, x19
    a890:	54fffea0 	b.eq	a864 <mbedtls_mpi_core_read_le+0x30>  // b.none
/home/build/bsp/optee_os/lib/libmbedtls/mbedtls/library/bignum_core.c:205 (discriminator 3)
    a894:	38616aa2 	ldrb	w2, [x21, x1]
    a898:	927ef423 	and	x3, x1, #0xfffffffffffffffc
/home/build/bsp/optee_os/lib/libmbedtls/mbedtls/library/bignum_core.c:204 (discriminator 3)
    a89c:	d37d0420 	ubfiz	x0, x1, #3, #2
/home/build/bsp/optee_os/lib/libmbedtls/mbedtls/library/bignum_core.c:203 (discriminator 3)
    a8a0:	91000421 	add	x1, x1, #0x1
/home/build/bsp/optee_os/lib/libmbedtls/mbedtls/library/bignum_core.c:205 (discriminator 3)
    a8a4:	1ac02042 	lsl	w2, w2, w0
    a8a8:	b8636a80 	ldr	w0, [x20, x3]
    a8ac:	2a020000 	orr	w0, w0, w2
    a8b0:	b8236a80 	str	w0, [x20, x3]
/home/build/bsp/optee_os/lib/libmbedtls/mbedtls/library/bignum_core.c:203 (discriminator 3)
    a8b4:	17fffff6 	b	a88c <mbedtls_mpi_core_read_le+0x58>
/home/build/bsp/optee_os/lib/libmbedtls/mbedtls/library/bignum_core.c:197
    a8b8:	128000e0 	mov	w0, #0xfffffff8            	// #-8
    a8bc:	17ffffeb 	b	a868 <mbedtls_mpi_core_read_le+0x34>

000000000000a8c0 <mbedtls_mpi_core_read_be>:
mbedtls_mpi_core_read_be():
/home/build/bsp/optee_os/lib/libmbedtls/mbedtls/library/bignum_core.c:216
    a8c0:	a9bc7bfd 	stp	x29, x30, [sp, #-64]!
/home/build/bsp/optee_os/lib/libmbedtls/mbedtls/library/bignum_core.c:217
    a8c4:	f240047f 	tst	x3, #0x3
/home/build/bsp/optee_os/lib/libmbedtls/mbedtls/library/bignum_core.c:216
    a8c8:	910003fd 	mov	x29, sp
    a8cc:	a90153f3 	stp	x19, x20, [sp, #16]
    a8d0:	aa0103f4 	mov	x20, x1
/home/build/bsp/optee_os/lib/libmbedtls/mbedtls/library/bignum_core.c:217
    a8d4:	d342fc61 	lsr	x1, x3, #2
    a8d8:	9a810421 	cinc	x1, x1, ne  // ne = any
/home/build/bsp/optee_os/lib/libmbedtls/mbedtls/library/bignum_core.c:216
    a8dc:	a9025bf5 	stp	x21, x22, [sp, #32]
    a8e0:	f9001bf7 	str	x23, [sp, #48]
/home/build/bsp/optee_os/lib/libmbedtls/mbedtls/library/bignum_core.c:219
    a8e4:	eb14003f 	cmp	x1, x20
    a8e8:	54000288 	b.hi	a938 <mbedtls_mpi_core_read_be+0x78>  // b.pmore
/home/build/bsp/optee_os/lib/libmbedtls/mbedtls/library/bignum_core.c:225
    a8ec:	b4000234 	cbz	x20, a930 <mbedtls_mpi_core_read_be+0x70>
/home/build/bsp/optee_os/lib/libmbedtls/mbedtls/library/bignum_core.c:229
    a8f0:	d37ef696 	lsl	x22, x20, #2
    a8f4:	aa0203f7 	mov	x23, x2
    a8f8:	aa0303f3 	mov	x19, x3
    a8fc:	aa0003f5 	mov	x21, x0
    a900:	aa1603e2 	mov	x2, x22
    a904:	52800001 	mov	w1, #0x0                   	// #0
    a908:	94000978 	bl	cee8 <memset>
/home/build/bsp/optee_os/lib/libmbedtls/mbedtls/library/bignum_core.c:232
    a90c:	b40000d3 	cbz	x19, a924 <mbedtls_mpi_core_read_be+0x64>
/home/build/bsp/optee_os/lib/libmbedtls/mbedtls/library/bignum_core.c:233
    a910:	cb1302c0 	sub	x0, x22, x19
/home/build/bsp/optee_os/lib/libmbedtls/mbedtls/library/bignum_core.c:235
    a914:	aa1303e2 	mov	x2, x19
    a918:	aa1703e1 	mov	x1, x23
    a91c:	8b0002a0 	add	x0, x21, x0
    a920:	97ffd5b8 	bl	0 <memcpy>
/home/build/bsp/optee_os/lib/libmbedtls/mbedtls/library/bignum_core.c:238
    a924:	aa1403e1 	mov	x1, x20
    a928:	aa1503e0 	mov	x0, x21
    a92c:	97ffff74 	bl	a6fc <mbedtls_mpi_core_bigendian_to_host>
/home/build/bsp/optee_os/lib/libmbedtls/mbedtls/library/bignum_core.c:226
    a930:	52800000 	mov	w0, #0x0                   	// #0
    a934:	14000002 	b	a93c <mbedtls_mpi_core_read_be+0x7c>
/home/build/bsp/optee_os/lib/libmbedtls/mbedtls/library/bignum_core.c:220
    a938:	128000e0 	mov	w0, #0xfffffff8            	// #-8
/home/build/bsp/optee_os/lib/libmbedtls/mbedtls/library/bignum_core.c:241
    a93c:	a94153f3 	ldp	x19, x20, [sp, #16]
    a940:	a9425bf5 	ldp	x21, x22, [sp, #32]
    a944:	f9401bf7 	ldr	x23, [sp, #48]
    a948:	a8c47bfd 	ldp	x29, x30, [sp], #64
    a94c:	d65f03c0 	ret

000000000000a950 <mbedtls_mpi_core_write_le>:
mbedtls_mpi_core_write_le():
/home/build/bsp/optee_os/lib/libmbedtls/mbedtls/library/bignum_core.c:248
    a950:	d37ef424 	lsl	x4, x1, #2
/home/build/bsp/optee_os/lib/libmbedtls/mbedtls/library/bignum_core.c:247
    a954:	aa0203e5 	mov	x5, x2
/home/build/bsp/optee_os/lib/libmbedtls/mbedtls/library/bignum_core.c:251
    a958:	eb03009f 	cmp	x4, x3
    a95c:	54000363 	b.cc	a9c8 <mbedtls_mpi_core_write_le+0x78>  // b.lo, b.ul, b.last
    a960:	aa0303e1 	mov	x1, x3
/home/build/bsp/optee_os/lib/libmbedtls/mbedtls/library/bignum_core.c:258 (discriminator 1)
    a964:	eb04003f 	cmp	x1, x4
    a968:	54000201 	b.ne	a9a8 <mbedtls_mpi_core_write_le+0x58>  // b.any
    a96c:	aa0303e6 	mov	x6, x3
/home/build/bsp/optee_os/lib/libmbedtls/mbedtls/library/bignum_core.c:265
    a970:	d2800001 	mov	x1, #0x0                   	// #0
/home/build/bsp/optee_os/lib/libmbedtls/mbedtls/library/bignum_core.c:265 (discriminator 1)
    a974:	eb0100df 	cmp	x6, x1
    a978:	540002c1 	b.ne	a9d0 <mbedtls_mpi_core_write_le+0x80>  // b.any
/home/build/bsp/optee_os/lib/libmbedtls/mbedtls/library/bignum_core.c:269
    a97c:	eb03009f 	cmp	x4, x3
    a980:	540003a2 	b.cs	a9f4 <mbedtls_mpi_core_write_le+0xa4>  // b.hs, b.nlast
/home/build/bsp/optee_os/lib/libmbedtls/mbedtls/library/bignum_core.c:247
    a984:	a9bf7bfd 	stp	x29, x30, [sp, #-16]!
/home/build/bsp/optee_os/lib/libmbedtls/mbedtls/library/bignum_core.c:271
    a988:	cb040062 	sub	x2, x3, x4
    a98c:	8b0400a0 	add	x0, x5, x4
/home/build/bsp/optee_os/lib/libmbedtls/mbedtls/library/bignum_core.c:247
    a990:	910003fd 	mov	x29, sp
/home/build/bsp/optee_os/lib/libmbedtls/mbedtls/library/bignum_core.c:271
    a994:	52800001 	mov	w1, #0x0                   	// #0
    a998:	94000954 	bl	cee8 <memset>
/home/build/bsp/optee_os/lib/libmbedtls/mbedtls/library/bignum_core.c:274
    a99c:	52800000 	mov	w0, #0x0                   	// #0
/home/build/bsp/optee_os/lib/libmbedtls/mbedtls/library/bignum_core.c:275
    a9a0:	a8c17bfd 	ldp	x29, x30, [sp], #16
    a9a4:	d65f03c0 	ret
/home/build/bsp/optee_os/lib/libmbedtls/mbedtls/library/bignum_core.c:259
    a9a8:	927ef422 	and	x2, x1, #0xfffffffffffffffc
    a9ac:	531d0426 	ubfiz	w6, w1, #3, #2
    a9b0:	b8626802 	ldr	w2, [x0, x2]
    a9b4:	1ac62442 	lsr	w2, w2, w6
    a9b8:	72001c5f 	tst	w2, #0xff
    a9bc:	54000181 	b.ne	a9ec <mbedtls_mpi_core_write_le+0x9c>  // b.any
/home/build/bsp/optee_os/lib/libmbedtls/mbedtls/library/bignum_core.c:258 (discriminator 2)
    a9c0:	91000421 	add	x1, x1, #0x1
    a9c4:	17ffffe8 	b	a964 <mbedtls_mpi_core_write_le+0x14>
    a9c8:	aa0403e6 	mov	x6, x4
    a9cc:	17ffffe9 	b	a970 <mbedtls_mpi_core_write_le+0x20>
/home/build/bsp/optee_os/lib/libmbedtls/mbedtls/library/bignum_core.c:266 (discriminator 3)
    a9d0:	927ef422 	and	x2, x1, #0xfffffffffffffffc
    a9d4:	531d0427 	ubfiz	w7, w1, #3, #2
    a9d8:	b8626802 	ldr	w2, [x0, x2]
    a9dc:	1ac72442 	lsr	w2, w2, w7
    a9e0:	382168a2 	strb	w2, [x5, x1]
/home/build/bsp/optee_os/lib/libmbedtls/mbedtls/library/bignum_core.c:265 (discriminator 3)
    a9e4:	91000421 	add	x1, x1, #0x1
    a9e8:	17ffffe3 	b	a974 <mbedtls_mpi_core_write_le+0x24>
/home/build/bsp/optee_os/lib/libmbedtls/mbedtls/library/bignum_core.c:260
    a9ec:	128000e0 	mov	w0, #0xfffffff8            	// #-8
    a9f0:	d65f03c0 	ret
/home/build/bsp/optee_os/lib/libmbedtls/mbedtls/library/bignum_core.c:274
    a9f4:	52800000 	mov	w0, #0x0                   	// #0
/home/build/bsp/optee_os/lib/libmbedtls/mbedtls/library/bignum_core.c:275
    a9f8:	d65f03c0 	ret

000000000000a9fc <mbedtls_mpi_core_write_be>:
mbedtls_mpi_core_write_be():
/home/build/bsp/optee_os/lib/libmbedtls/mbedtls/library/bignum_core.c:281
    a9fc:	a9bd7bfd 	stp	x29, x30, [sp, #-48]!
    aa00:	910003fd 	mov	x29, sp
    aa04:	a90153f3 	stp	x19, x20, [sp, #16]
/home/build/bsp/optee_os/lib/libmbedtls/mbedtls/library/bignum_core.c:286
    aa08:	d37ef433 	lsl	x19, x1, #2
/home/build/bsp/optee_os/lib/libmbedtls/mbedtls/library/bignum_core.c:281
    aa0c:	aa0003f4 	mov	x20, x0
    aa10:	f90013f5 	str	x21, [sp, #32]
    aa14:	aa0203e0 	mov	x0, x2
/home/build/bsp/optee_os/lib/libmbedtls/mbedtls/library/bignum_core.c:288
    aa18:	eb03027f 	cmp	x19, x3
    aa1c:	54000362 	b.cs	aa88 <mbedtls_mpi_core_write_be+0x8c>  // b.hs, b.nlast
/home/build/bsp/optee_os/lib/libmbedtls/mbedtls/library/bignum_core.c:295
    aa20:	cb130062 	sub	x2, x3, x19
/home/build/bsp/optee_os/lib/libmbedtls/mbedtls/library/bignum_core.c:296
    aa24:	52800001 	mov	w1, #0x0                   	// #0
/home/build/bsp/optee_os/lib/libmbedtls/mbedtls/library/bignum_core.c:295
    aa28:	8b020015 	add	x21, x0, x2
/home/build/bsp/optee_os/lib/libmbedtls/mbedtls/library/bignum_core.c:296
    aa2c:	9400092f 	bl	cee8 <memset>
/home/build/bsp/optee_os/lib/libmbedtls/mbedtls/library/bignum_core.c:295
    aa30:	aa1503e0 	mov	x0, x21
    aa34:	aa1303e3 	mov	x3, x19
/home/build/bsp/optee_os/lib/libmbedtls/mbedtls/library/bignum_core.c:309
    aa38:	8b030002 	add	x2, x0, x3
    aa3c:	d2800001 	mov	x1, #0x0                   	// #0
/home/build/bsp/optee_os/lib/libmbedtls/mbedtls/library/bignum_core.c:309 (discriminator 1)
    aa40:	d1000442 	sub	x2, x2, #0x1
    aa44:	eb01007f 	cmp	x3, x1
    aa48:	54000241 	b.ne	aa90 <mbedtls_mpi_core_write_be+0x94>  // b.any
/home/build/bsp/optee_os/lib/libmbedtls/mbedtls/library/bignum_core.c:313
    aa4c:	52800000 	mov	w0, #0x0                   	// #0
/home/build/bsp/optee_os/lib/libmbedtls/mbedtls/library/bignum_core.c:314
    aa50:	a94153f3 	ldp	x19, x20, [sp, #16]
    aa54:	f94013f5 	ldr	x21, [sp, #32]
    aa58:	a8c37bfd 	ldp	x29, x30, [sp], #48
    aa5c:	d65f03c0 	ret
/home/build/bsp/optee_os/lib/libmbedtls/mbedtls/library/bignum_core.c:303
    aa60:	927ef422 	and	x2, x1, #0xfffffffffffffffc
    aa64:	531d0424 	ubfiz	w4, w1, #3, #2
    aa68:	b8626a82 	ldr	w2, [x20, x2]
    aa6c:	1ac42442 	lsr	w2, w2, w4
    aa70:	72001c5f 	tst	w2, #0xff
    aa74:	540001c1 	b.ne	aaac <mbedtls_mpi_core_write_be+0xb0>  // b.any
/home/build/bsp/optee_os/lib/libmbedtls/mbedtls/library/bignum_core.c:302 (discriminator 2)
    aa78:	91000421 	add	x1, x1, #0x1
/home/build/bsp/optee_os/lib/libmbedtls/mbedtls/library/bignum_core.c:302 (discriminator 1)
    aa7c:	eb13003f 	cmp	x1, x19
    aa80:	54ffff01 	b.ne	aa60 <mbedtls_mpi_core_write_be+0x64>  // b.any
    aa84:	17ffffed 	b	aa38 <mbedtls_mpi_core_write_be+0x3c>
    aa88:	aa0303e1 	mov	x1, x3
    aa8c:	17fffffc 	b	aa7c <mbedtls_mpi_core_write_be+0x80>
/home/build/bsp/optee_os/lib/libmbedtls/mbedtls/library/bignum_core.c:310 (discriminator 3)
    aa90:	927ef420 	and	x0, x1, #0xfffffffffffffffc
    aa94:	531d0424 	ubfiz	w4, w1, #3, #2
/home/build/bsp/optee_os/lib/libmbedtls/mbedtls/library/bignum_core.c:309 (discriminator 3)
    aa98:	91000421 	add	x1, x1, #0x1
/home/build/bsp/optee_os/lib/libmbedtls/mbedtls/library/bignum_core.c:310 (discriminator 3)
    aa9c:	b8606a80 	ldr	w0, [x20, x0]
    aaa0:	1ac42400 	lsr	w0, w0, w4
    aaa4:	39000040 	strb	w0, [x2]
/home/build/bsp/optee_os/lib/libmbedtls/mbedtls/library/bignum_core.c:309 (discriminator 3)
    aaa8:	17ffffe6 	b	aa40 <mbedtls_mpi_core_write_be+0x44>
/home/build/bsp/optee_os/lib/libmbedtls/mbedtls/library/bignum_core.c:304
    aaac:	128000e0 	mov	w0, #0xfffffff8            	// #-8
    aab0:	17ffffe8 	b	aa50 <mbedtls_mpi_core_write_be+0x54>

000000000000aab4 <mbedtls_mpi_core_shift_r>:
mbedtls_mpi_core_shift_r():
/home/build/bsp/optee_os/lib/libmbedtls/mbedtls/library/bignum_core.c:318
    aab4:	a9bd7bfd 	stp	x29, x30, [sp, #-48]!
    aab8:	910003fd 	mov	x29, sp
    aabc:	a90153f3 	stp	x19, x20, [sp, #16]
    aac0:	aa0103f3 	mov	x19, x1
/home/build/bsp/optee_os/lib/libmbedtls/mbedtls/library/bignum_core.c:322
    aac4:	d345fc41 	lsr	x1, x2, #5
/home/build/bsp/optee_os/lib/libmbedtls/mbedtls/library/bignum_core.c:318
    aac8:	f90013f5 	str	x21, [sp, #32]
    aacc:	aa0003f4 	mov	x20, x0
/home/build/bsp/optee_os/lib/libmbedtls/mbedtls/library/bignum_core.c:325
    aad0:	eb13003f 	cmp	x1, x19
    aad4:	540000a8 	b.hi	aae8 <mbedtls_mpi_core_shift_r+0x34>  // b.pmore
    aad8:	92401055 	and	x21, x2, #0x1f
/home/build/bsp/optee_os/lib/libmbedtls/mbedtls/library/bignum_core.c:325 (discriminator 1)
    aadc:	f10002bf 	cmp	x21, #0x0
    aae0:	fa531020 	ccmp	x1, x19, #0x0, ne  // ne = any
    aae4:	54000101 	b.ne	ab04 <mbedtls_mpi_core_shift_r+0x50>  // b.any
/home/build/bsp/optee_os/lib/libmbedtls/mbedtls/library/bignum_core.c:326
    aae8:	d37ef662 	lsl	x2, x19, #2
    aaec:	aa1403e0 	mov	x0, x20
/home/build/bsp/optee_os/lib/libmbedtls/mbedtls/library/bignum_core.c:354
    aaf0:	a94153f3 	ldp	x19, x20, [sp, #16]
/home/build/bsp/optee_os/lib/libmbedtls/mbedtls/library/bignum_core.c:326
    aaf4:	52800001 	mov	w1, #0x0                   	// #0
/home/build/bsp/optee_os/lib/libmbedtls/mbedtls/library/bignum_core.c:354
    aaf8:	f94013f5 	ldr	x21, [sp, #32]
    aafc:	a8c37bfd 	ldp	x29, x30, [sp], #48
/home/build/bsp/optee_os/lib/libmbedtls/mbedtls/library/bignum_core.c:326
    ab00:	140008fa 	b	cee8 <memset>
/home/build/bsp/optee_os/lib/libmbedtls/mbedtls/library/bignum_core.c:333
    ab04:	f1007c5f 	cmp	x2, #0x1f
    ab08:	540001a9 	b.ls	ab3c <mbedtls_mpi_core_shift_r+0x88>  // b.plast
    ab0c:	d37ef422 	lsl	x2, x1, #2
    ab10:	8b010805 	add	x5, x0, x1, lsl #2
/home/build/bsp/optee_os/lib/libmbedtls/mbedtls/library/bignum_core.c:334
    ab14:	d2800003 	mov	x3, #0x0                   	// #0
/home/build/bsp/optee_os/lib/libmbedtls/mbedtls/library/bignum_core.c:334 (discriminator 1)
    ab18:	eb010260 	subs	x0, x19, x1
    ab1c:	9a9f27e4 	cset	x4, cc  // cc = lo, ul, last
    ab20:	eb03001f 	cmp	x0, x3
    ab24:	54000228 	b.hi	ab68 <mbedtls_mpi_core_shift_r+0xb4>  // b.pmore
/home/build/bsp/optee_os/lib/libmbedtls/mbedtls/library/bignum_core.c:339
    ab28:	f100009f 	cmp	x4, #0x0
    ab2c:	8b000a80 	add	x0, x20, x0, lsl #2
    ab30:	9a9f0042 	csel	x2, x2, xzr, eq  // eq = none
    ab34:	52800001 	mov	w1, #0x0                   	// #0
    ab38:	940008ec 	bl	cee8 <memset>
/home/build/bsp/optee_os/lib/libmbedtls/mbedtls/library/bignum_core.c:346
    ab3c:	b40000f5 	cbz	x21, ab58 <mbedtls_mpi_core_shift_r+0xa4>
/home/build/bsp/optee_os/lib/libmbedtls/mbedtls/library/bignum_core.c:348
    ab40:	52800400 	mov	w0, #0x20                  	// #32
    ab44:	8b130a93 	add	x19, x20, x19, lsl #2
    ab48:	4b150000 	sub	w0, w0, w21
/home/build/bsp/optee_os/lib/libmbedtls/mbedtls/library/bignum_core.c:320
    ab4c:	52800002 	mov	w2, #0x0                   	// #0
/home/build/bsp/optee_os/lib/libmbedtls/mbedtls/library/bignum_core.c:347 (discriminator 1)
    ab50:	eb14027f 	cmp	x19, x20
    ab54:	54000121 	b.ne	ab78 <mbedtls_mpi_core_shift_r+0xc4>  // b.any
/home/build/bsp/optee_os/lib/libmbedtls/mbedtls/library/bignum_core.c:354
    ab58:	a94153f3 	ldp	x19, x20, [sp, #16]
    ab5c:	f94013f5 	ldr	x21, [sp, #32]
    ab60:	a8c37bfd 	ldp	x29, x30, [sp], #48
    ab64:	d65f03c0 	ret
/home/build/bsp/optee_os/lib/libmbedtls/mbedtls/library/bignum_core.c:335 (discriminator 3)
    ab68:	b86378a0 	ldr	w0, [x5, x3, lsl #2]
    ab6c:	b8237a80 	str	w0, [x20, x3, lsl #2]
/home/build/bsp/optee_os/lib/libmbedtls/mbedtls/library/bignum_core.c:334 (discriminator 3)
    ab70:	91000463 	add	x3, x3, #0x1
    ab74:	17ffffe9 	b	ab18 <mbedtls_mpi_core_shift_r+0x64>
/home/build/bsp/optee_os/lib/libmbedtls/mbedtls/library/bignum_core.c:348 (discriminator 3)
    ab78:	b85fc263 	ldur	w3, [x19, #-4]
/home/build/bsp/optee_os/lib/libmbedtls/mbedtls/library/bignum_core.c:349 (discriminator 3)
    ab7c:	1ad52461 	lsr	w1, w3, w21
/home/build/bsp/optee_os/lib/libmbedtls/mbedtls/library/bignum_core.c:350 (discriminator 3)
    ab80:	2a020021 	orr	w1, w1, w2
/home/build/bsp/optee_os/lib/libmbedtls/mbedtls/library/bignum_core.c:351 (discriminator 3)
    ab84:	1ac02062 	lsl	w2, w3, w0
/home/build/bsp/optee_os/lib/libmbedtls/mbedtls/library/bignum_core.c:350 (discriminator 3)
    ab88:	b81fce61 	str	w1, [x19, #-4]!
/home/build/bsp/optee_os/lib/libmbedtls/mbedtls/library/bignum_core.c:347 (discriminator 3)
    ab8c:	17fffff1 	b	ab50 <mbedtls_mpi_core_shift_r+0x9c>

000000000000ab90 <mbedtls_mpi_core_add>:
mbedtls_mpi_core_add():
/home/build/bsp/optee_os/lib/libmbedtls/mbedtls/library/bignum_core.c:360
    ab90:	aa0003e8 	mov	x8, x0
/home/build/bsp/optee_os/lib/libmbedtls/mbedtls/library/bignum_core.c:363
    ab94:	d2800005 	mov	x5, #0x0                   	// #0
/home/build/bsp/optee_os/lib/libmbedtls/mbedtls/library/bignum_core.c:361
    ab98:	52800000 	mov	w0, #0x0                   	// #0
/home/build/bsp/optee_os/lib/libmbedtls/mbedtls/library/bignum_core.c:363 (discriminator 1)
    ab9c:	eb0300bf 	cmp	x5, x3
    aba0:	54000041 	b.ne	aba8 <mbedtls_mpi_core_add+0x18>  // b.any
/home/build/bsp/optee_os/lib/libmbedtls/mbedtls/library/bignum_core.c:372
    aba4:	d65f03c0 	ret
/home/build/bsp/optee_os/lib/libmbedtls/mbedtls/library/bignum_core.c:364 (discriminator 3)
    aba8:	b8657824 	ldr	w4, [x1, x5, lsl #2]
    abac:	b8657847 	ldr	w7, [x2, x5, lsl #2]
    abb0:	2b000086 	adds	w6, w4, w0
/home/build/bsp/optee_os/lib/libmbedtls/mbedtls/library/bignum_core.c:365 (discriminator 3)
    abb4:	1a9f37e4 	cset	w4, cs  // cs = hs, nlast
/home/build/bsp/optee_os/lib/libmbedtls/mbedtls/library/bignum_core.c:366 (discriminator 3)
    abb8:	2b0600e7 	adds	w7, w7, w6
/home/build/bsp/optee_os/lib/libmbedtls/mbedtls/library/bignum_core.c:367 (discriminator 3)
    abbc:	1a843480 	cinc	w0, w4, cs  // cs = hs, nlast
/home/build/bsp/optee_os/lib/libmbedtls/mbedtls/library/bignum_core.c:368 (discriminator 3)
    abc0:	b8257907 	str	w7, [x8, x5, lsl #2]
/home/build/bsp/optee_os/lib/libmbedtls/mbedtls/library/bignum_core.c:363 (discriminator 3)
    abc4:	910004a5 	add	x5, x5, #0x1
    abc8:	17fffff5 	b	ab9c <mbedtls_mpi_core_add+0xc>

000000000000abcc <mbedtls_mpi_core_add_if>:
mbedtls_mpi_core_add_if():
/home/build/bsp/optee_os/lib/libmbedtls/mbedtls/library/bignum_core.c:378
    abcc:	a9bd7bfd 	stp	x29, x30, [sp, #-48]!
    abd0:	910003fd 	mov	x29, sp
    abd4:	a90153f3 	stp	x19, x20, [sp, #16]
    abd8:	aa0203f4 	mov	x20, x2
    abdc:	aa0003f3 	mov	x19, x0
    abe0:	2a0303e0 	mov	w0, w3
    abe4:	f90013f5 	str	x21, [sp, #32]
    abe8:	aa0103f5 	mov	x21, x1
/home/build/bsp/optee_os/lib/libmbedtls/mbedtls/library/bignum_core.c:382
    abec:	9400025a 	bl	b554 <mbedtls_ct_mpi_uint_mask>
/home/build/bsp/optee_os/lib/libmbedtls/mbedtls/library/bignum_core.c:384
    abf0:	d2800005 	mov	x5, #0x0                   	// #0
/home/build/bsp/optee_os/lib/libmbedtls/mbedtls/library/bignum_core.c:382
    abf4:	2a0003e2 	mov	w2, w0
/home/build/bsp/optee_os/lib/libmbedtls/mbedtls/library/bignum_core.c:379
    abf8:	52800000 	mov	w0, #0x0                   	// #0
/home/build/bsp/optee_os/lib/libmbedtls/mbedtls/library/bignum_core.c:384 (discriminator 1)
    abfc:	eb1400bf 	cmp	x5, x20
    ac00:	540000a1 	b.ne	ac14 <mbedtls_mpi_core_add_if+0x48>  // b.any
/home/build/bsp/optee_os/lib/libmbedtls/mbedtls/library/bignum_core.c:394
    ac04:	a94153f3 	ldp	x19, x20, [sp, #16]
    ac08:	f94013f5 	ldr	x21, [sp, #32]
    ac0c:	a8c37bfd 	ldp	x29, x30, [sp], #48
    ac10:	d65f03c0 	ret
/home/build/bsp/optee_os/lib/libmbedtls/mbedtls/library/bignum_core.c:385 (discriminator 3)
    ac14:	b8657a64 	ldr	w4, [x19, x5, lsl #2]
    ac18:	b8657aa3 	ldr	w3, [x21, x5, lsl #2]
    ac1c:	2b000086 	adds	w6, w4, w0
    ac20:	0a030043 	and	w3, w2, w3
/home/build/bsp/optee_os/lib/libmbedtls/mbedtls/library/bignum_core.c:387 (discriminator 3)
    ac24:	1a9f37e4 	cset	w4, cs  // cs = hs, nlast
/home/build/bsp/optee_os/lib/libmbedtls/mbedtls/library/bignum_core.c:388 (discriminator 3)
    ac28:	2b060063 	adds	w3, w3, w6
/home/build/bsp/optee_os/lib/libmbedtls/mbedtls/library/bignum_core.c:390 (discriminator 3)
    ac2c:	b8257a63 	str	w3, [x19, x5, lsl #2]
/home/build/bsp/optee_os/lib/libmbedtls/mbedtls/library/bignum_core.c:389 (discriminator 3)
    ac30:	1a843480 	cinc	w0, w4, cs  // cs = hs, nlast
/home/build/bsp/optee_os/lib/libmbedtls/mbedtls/library/bignum_core.c:384 (discriminator 3)
    ac34:	910004a5 	add	x5, x5, #0x1
    ac38:	17fffff1 	b	abfc <mbedtls_mpi_core_add_if+0x30>

000000000000ac3c <mbedtls_mpi_core_sub>:
mbedtls_mpi_core_sub():
/home/build/bsp/optee_os/lib/libmbedtls/mbedtls/library/bignum_core.c:400
    ac3c:	aa0003e6 	mov	x6, x0
/home/build/bsp/optee_os/lib/libmbedtls/mbedtls/library/bignum_core.c:403
    ac40:	d2800005 	mov	x5, #0x0                   	// #0
/home/build/bsp/optee_os/lib/libmbedtls/mbedtls/library/bignum_core.c:401
    ac44:	52800000 	mov	w0, #0x0                   	// #0
/home/build/bsp/optee_os/lib/libmbedtls/mbedtls/library/bignum_core.c:403 (discriminator 1)
    ac48:	eb0300bf 	cmp	x5, x3
    ac4c:	54000041 	b.ne	ac54 <mbedtls_mpi_core_sub+0x18>  // b.any
/home/build/bsp/optee_os/lib/libmbedtls/mbedtls/library/bignum_core.c:411
    ac50:	d65f03c0 	ret
/home/build/bsp/optee_os/lib/libmbedtls/mbedtls/library/bignum_core.c:404 (discriminator 3)
    ac54:	b8657824 	ldr	w4, [x1, x5, lsl #2]
/home/build/bsp/optee_os/lib/libmbedtls/mbedtls/library/bignum_core.c:406 (discriminator 3)
    ac58:	b8657847 	ldr	w7, [x2, x5, lsl #2]
/home/build/bsp/optee_os/lib/libmbedtls/mbedtls/library/bignum_core.c:404 (discriminator 3)
    ac5c:	6b00009f 	cmp	w4, w0
/home/build/bsp/optee_os/lib/libmbedtls/mbedtls/library/bignum_core.c:405 (discriminator 3)
    ac60:	4b000084 	sub	w4, w4, w0
/home/build/bsp/optee_os/lib/libmbedtls/mbedtls/library/bignum_core.c:404 (discriminator 3)
    ac64:	1a9f27e8 	cset	w8, cc  // cc = lo, ul, last
/home/build/bsp/optee_os/lib/libmbedtls/mbedtls/library/bignum_core.c:406 (discriminator 3)
    ac68:	6b0400ff 	cmp	w7, w4
    ac6c:	1a889500 	cinc	w0, w8, hi  // hi = pmore
/home/build/bsp/optee_os/lib/libmbedtls/mbedtls/library/bignum_core.c:407 (discriminator 3)
    ac70:	4b070084 	sub	w4, w4, w7
    ac74:	b82578c4 	str	w4, [x6, x5, lsl #2]
/home/build/bsp/optee_os/lib/libmbedtls/mbedtls/library/bignum_core.c:403 (discriminator 3)
    ac78:	910004a5 	add	x5, x5, #0x1
    ac7c:	17fffff3 	b	ac48 <mbedtls_mpi_core_sub+0xc>

000000000000ac80 <mbedtls_mpi_core_mla>:
mbedtls_mpi_core_mla():
/home/build/bsp/optee_os/lib/libmbedtls/mbedtls/library/bignum_core.c:423
    ac80:	eb03003f 	cmp	x1, x3
/home/build/bsp/optee_os/lib/libmbedtls/mbedtls/library/bignum_core.c:430
    ac84:	aa0203e7 	mov	x7, x2
    ac88:	9a839026 	csel	x6, x1, x3, ls  // ls = plast
/home/build/bsp/optee_os/lib/libmbedtls/mbedtls/library/bignum_core.c:416
    ac8c:	aa0003e9 	mov	x9, x0
/home/build/bsp/optee_os/lib/libmbedtls/mbedtls/library/bignum_core.c:426
    ac90:	cb060021 	sub	x1, x1, x6
/home/build/bsp/optee_os/lib/libmbedtls/mbedtls/library/bignum_core.c:430
    ac94:	aa0003e5 	mov	x5, x0
/home/build/bsp/optee_os/lib/libmbedtls/mbedtls/library/bignum_core.c:427
    ac98:	d343fcca 	lsr	x10, x6, #3
/home/build/bsp/optee_os/lib/libmbedtls/mbedtls/library/bignum_core.c:428
    ac9c:	924008c6 	and	x6, x6, #0x7
/home/build/bsp/optee_os/lib/libmbedtls/mbedtls/library/bignum_core.c:427
    aca0:	aa0a03eb 	mov	x11, x10
/home/build/bsp/optee_os/lib/libmbedtls/mbedtls/library/bignum_core.c:417
    aca4:	52800000 	mov	w0, #0x0                   	// #0
/home/build/bsp/optee_os/lib/libmbedtls/mbedtls/library/bignum_core.c:430
    aca8:	d100056b 	sub	x11, x11, #0x1
    acac:	b100057f 	cmn	x11, #0x1
    acb0:	54000161 	b.ne	acdc <mbedtls_mpi_core_mla+0x5c>  // b.any
    acb4:	8b0a1529 	add	x9, x9, x10, lsl #5
    acb8:	8b0a144a 	add	x10, x2, x10, lsl #5
    acbc:	d2800002 	mov	x2, #0x0                   	// #0
/home/build/bsp/optee_os/lib/libmbedtls/mbedtls/library/bignum_core.c:436
    acc0:	eb0200df 	cmp	x6, x2
    acc4:	54000a21 	b.ne	ae08 <mbedtls_mpi_core_mla+0x188>  // b.any
    acc8:	8b060926 	add	x6, x9, x6, lsl #2
    accc:	d2800002 	mov	x2, #0x0                   	// #0
/home/build/bsp/optee_os/lib/libmbedtls/mbedtls/library/bignum_core.c:442
    acd0:	eb02003f 	cmp	x1, x2
    acd4:	54000b01 	b.ne	ae34 <mbedtls_mpi_core_mla+0x1b4>  // b.any
/home/build/bsp/optee_os/lib/libmbedtls/mbedtls/library/bignum_core.c:449
    acd8:	d65f03c0 	ret
/home/build/bsp/optee_os/lib/libmbedtls/mbedtls/library/bignum_core.c:432
    acdc:	b94000e3 	ldr	w3, [x7]
    ace0:	910080e7 	add	x7, x7, #0x20
    ace4:	910080a5 	add	x5, x5, #0x20
    ace8:	9ba37c83 	umull	x3, w4, w3
    acec:	d360fc68 	lsr	x8, x3, #32
    acf0:	2b030003 	adds	w3, w0, w3
    acf4:	b85e00a0 	ldur	w0, [x5, #-32]
    acf8:	1a883508 	cinc	w8, w8, cs  // cs = hs, nlast
    acfc:	2b030000 	adds	w0, w0, w3
    ad00:	b81e00a0 	stur	w0, [x5, #-32]
    ad04:	1a883503 	cinc	w3, w8, cs  // cs = hs, nlast
    ad08:	b85e40a8 	ldur	w8, [x5, #-28]
    ad0c:	b85e40ec 	ldur	w12, [x7, #-28]
    ad10:	9bac7c8c 	umull	x12, w4, w12
    ad14:	2b0c0063 	adds	w3, w3, w12
    ad18:	d360fd80 	lsr	x0, x12, #32
    ad1c:	1a803400 	cinc	w0, w0, cs  // cs = hs, nlast
    ad20:	2b030108 	adds	w8, w8, w3
    ad24:	b81e40a8 	stur	w8, [x5, #-28]
    ad28:	1a803400 	cinc	w0, w0, cs  // cs = hs, nlast
    ad2c:	b85e80e3 	ldur	w3, [x7, #-24]
    ad30:	9ba37c83 	umull	x3, w4, w3
    ad34:	2b030000 	adds	w0, w0, w3
    ad38:	d360fc68 	lsr	x8, x3, #32
    ad3c:	b85e80a3 	ldur	w3, [x5, #-24]
    ad40:	1a883508 	cinc	w8, w8, cs  // cs = hs, nlast
    ad44:	2b000063 	adds	w3, w3, w0
    ad48:	b81e80a3 	stur	w3, [x5, #-24]
    ad4c:	1a883508 	cinc	w8, w8, cs  // cs = hs, nlast
    ad50:	b85ec0e0 	ldur	w0, [x7, #-20]
    ad54:	9ba07c80 	umull	x0, w4, w0
    ad58:	2b000108 	adds	w8, w8, w0
    ad5c:	d360fc03 	lsr	x3, x0, #32
    ad60:	b85ec0a0 	ldur	w0, [x5, #-20]
    ad64:	1a833463 	cinc	w3, w3, cs  // cs = hs, nlast
    ad68:	2b080000 	adds	w0, w0, w8
    ad6c:	b81ec0a0 	stur	w0, [x5, #-20]
    ad70:	1a833463 	cinc	w3, w3, cs  // cs = hs, nlast
    ad74:	b85f00e0 	ldur	w0, [x7, #-16]
    ad78:	9ba07c80 	umull	x0, w4, w0
    ad7c:	2b000063 	adds	w3, w3, w0
    ad80:	d360fc08 	lsr	x8, x0, #32
    ad84:	b85f00a0 	ldur	w0, [x5, #-16]
    ad88:	1a883508 	cinc	w8, w8, cs  // cs = hs, nlast
    ad8c:	2b030000 	adds	w0, w0, w3
    ad90:	b81f00a0 	stur	w0, [x5, #-16]
    ad94:	1a883508 	cinc	w8, w8, cs  // cs = hs, nlast
    ad98:	b85f40e0 	ldur	w0, [x7, #-12]
    ad9c:	9ba07c80 	umull	x0, w4, w0
    ada0:	2b000108 	adds	w8, w8, w0
    ada4:	d360fc03 	lsr	x3, x0, #32
    ada8:	b85f40a0 	ldur	w0, [x5, #-12]
    adac:	1a833463 	cinc	w3, w3, cs  // cs = hs, nlast
    adb0:	2b080000 	adds	w0, w0, w8
    adb4:	b81f40a0 	stur	w0, [x5, #-12]
    adb8:	1a833463 	cinc	w3, w3, cs  // cs = hs, nlast
    adbc:	b85f80e0 	ldur	w0, [x7, #-8]
    adc0:	9ba07c80 	umull	x0, w4, w0
    adc4:	2b000063 	adds	w3, w3, w0
    adc8:	d360fc08 	lsr	x8, x0, #32
    adcc:	b85f80a0 	ldur	w0, [x5, #-8]
    add0:	1a883508 	cinc	w8, w8, cs  // cs = hs, nlast
    add4:	2b030000 	adds	w0, w0, w3
    add8:	b81f80a0 	stur	w0, [x5, #-8]
    addc:	1a883508 	cinc	w8, w8, cs  // cs = hs, nlast
    ade0:	b85fc0e0 	ldur	w0, [x7, #-4]
    ade4:	9ba07c80 	umull	x0, w4, w0
    ade8:	2b000108 	adds	w8, w8, w0
    adec:	d360fc03 	lsr	x3, x0, #32
    adf0:	b85fc0a0 	ldur	w0, [x5, #-4]
    adf4:	1a833463 	cinc	w3, w3, cs  // cs = hs, nlast
    adf8:	2b080008 	adds	w8, w0, w8
    adfc:	b81fc0a8 	stur	w8, [x5, #-4]
    ae00:	1a833460 	cinc	w0, w3, cs  // cs = hs, nlast
    ae04:	17ffffa9 	b	aca8 <mbedtls_mpi_core_mla+0x28>
/home/build/bsp/optee_os/lib/libmbedtls/mbedtls/library/bignum_core.c:438
    ae08:	b8627943 	ldr	w3, [x10, x2, lsl #2]
    ae0c:	9ba37c83 	umull	x3, w4, w3
    ae10:	2b030000 	adds	w0, w0, w3
    ae14:	d360fc65 	lsr	x5, x3, #32
    ae18:	b8627923 	ldr	w3, [x9, x2, lsl #2]
    ae1c:	1a8534a5 	cinc	w5, w5, cs  // cs = hs, nlast
    ae20:	2b000063 	adds	w3, w3, w0
    ae24:	b8227923 	str	w3, [x9, x2, lsl #2]
    ae28:	1a8534a0 	cinc	w0, w5, cs  // cs = hs, nlast
    ae2c:	91000442 	add	x2, x2, #0x1
    ae30:	17ffffa4 	b	acc0 <mbedtls_mpi_core_mla+0x40>
/home/build/bsp/optee_os/lib/libmbedtls/mbedtls/library/bignum_core.c:443
    ae34:	b86278c3 	ldr	w3, [x6, x2, lsl #2]
    ae38:	2b000063 	adds	w3, w3, w0
    ae3c:	b82278c3 	str	w3, [x6, x2, lsl #2]
/home/build/bsp/optee_os/lib/libmbedtls/mbedtls/library/bignum_core.c:444
    ae40:	1a9f37e0 	cset	w0, cs  // cs = hs, nlast
/home/build/bsp/optee_os/lib/libmbedtls/mbedtls/library/bignum_core.c:445
    ae44:	91000442 	add	x2, x2, #0x1
    ae48:	17ffffa2 	b	acd0 <mbedtls_mpi_core_mla+0x50>

000000000000ae4c <mbedtls_mpi_core_montmul_init>:
mbedtls_mpi_core_montmul_init():
/home/build/bsp/optee_os/lib/libmbedtls/mbedtls/library/bignum_core.c:456
    ae4c:	b9400002 	ldr	w2, [x0]
/home/build/bsp/optee_os/lib/libmbedtls/mbedtls/library/bignum_core.c:458
    ae50:	52800061 	mov	w1, #0x3                   	// #3
/home/build/bsp/optee_os/lib/libmbedtls/mbedtls/library/bignum_core.c:461
    ae54:	52800044 	mov	w4, #0x2                   	// #2
/home/build/bsp/optee_os/lib/libmbedtls/mbedtls/library/bignum_core.c:458
    ae58:	11000840 	add	w0, w2, #0x2
    ae5c:	531f7800 	lsl	w0, w0, #1
    ae60:	121d0000 	and	w0, w0, #0x8
    ae64:	0b020000 	add	w0, w0, w2
/home/build/bsp/optee_os/lib/libmbedtls/mbedtls/library/bignum_core.c:461 (discriminator 3)
    ae68:	1b009043 	msub	w3, w2, w0, w4
/home/build/bsp/optee_os/lib/libmbedtls/mbedtls/library/bignum_core.c:460 (discriminator 3)
    ae6c:	71000421 	subs	w1, w1, #0x1
/home/build/bsp/optee_os/lib/libmbedtls/mbedtls/library/bignum_core.c:461 (discriminator 3)
    ae70:	1b037c00 	mul	w0, w0, w3
/home/build/bsp/optee_os/lib/libmbedtls/mbedtls/library/bignum_core.c:460 (discriminator 3)
    ae74:	54ffffa1 	b.ne	ae68 <mbedtls_mpi_core_montmul_init+0x1c>  // b.any
/home/build/bsp/optee_os/lib/libmbedtls/mbedtls/library/bignum_core.c:465
    ae78:	4b0003e0 	neg	w0, w0
    ae7c:	d65f03c0 	ret

000000000000ae80 <mbedtls_mpi_core_montmul>:
mbedtls_mpi_core_montmul():
/home/build/bsp/optee_os/lib/libmbedtls/mbedtls/library/bignum_core.c:475
    ae80:	a9b97bfd 	stp	x29, x30, [sp, #-112]!
    ae84:	910003fd 	mov	x29, sp
    ae88:	a90573fb 	stp	x27, x28, [sp, #80]
    ae8c:	aa0203fb 	mov	x27, x2
/home/build/bsp/optee_os/lib/libmbedtls/mbedtls/library/bignum_core.c:476
    ae90:	d37df0a2 	lsl	x2, x5, #3
    ae94:	91001042 	add	x2, x2, #0x4
/home/build/bsp/optee_os/lib/libmbedtls/mbedtls/library/bignum_core.c:475
    ae98:	a90153f3 	stp	x19, x20, [sp, #16]
    ae9c:	aa0503f4 	mov	x20, x5
/home/build/bsp/optee_os/lib/libmbedtls/mbedtls/library/bignum_core.c:478
    aea0:	d2800013 	mov	x19, #0x0                   	// #0
/home/build/bsp/optee_os/lib/libmbedtls/mbedtls/library/bignum_core.c:475
    aea4:	a9025bf5 	stp	x21, x22, [sp, #32]
    aea8:	aa0703f6 	mov	x22, x7
    aeac:	a90363f7 	stp	x23, x24, [sp, #48]
    aeb0:	aa0003f7 	mov	x23, x0
    aeb4:	aa0403f8 	mov	x24, x4
/home/build/bsp/optee_os/lib/libmbedtls/mbedtls/library/bignum_core.c:476
    aeb8:	aa0703e0 	mov	x0, x7
/home/build/bsp/optee_os/lib/libmbedtls/mbedtls/library/bignum_core.c:475
    aebc:	a9046bf9 	stp	x25, x26, [sp, #64]
    aec0:	aa0103f9 	mov	x25, x1
/home/build/bsp/optee_os/lib/libmbedtls/mbedtls/library/bignum_core.c:483
    aec4:	910008ba 	add	x26, x5, #0x2
/home/build/bsp/optee_os/lib/libmbedtls/mbedtls/library/bignum_core.c:476
    aec8:	52800001 	mov	w1, #0x0                   	// #0
/home/build/bsp/optee_os/lib/libmbedtls/mbedtls/library/bignum_core.c:475
    aecc:	f90033e3 	str	x3, [sp, #96]
    aed0:	b9006fe6 	str	w6, [sp, #108]
/home/build/bsp/optee_os/lib/libmbedtls/mbedtls/library/bignum_core.c:476
    aed4:	94000805 	bl	cee8 <memset>
/home/build/bsp/optee_os/lib/libmbedtls/mbedtls/library/bignum_core.c:478
    aed8:	d37ef660 	lsl	x0, x19, #2
    aedc:	8b130ad5 	add	x21, x22, x19, lsl #2
/home/build/bsp/optee_os/lib/libmbedtls/mbedtls/library/bignum_core.c:478 (discriminator 1)
    aee0:	eb14027f 	cmp	x19, x20
    aee4:	54000241 	b.ne	af2c <mbedtls_mpi_core_montmul+0xac>  // b.any
/home/build/bsp/optee_os/lib/libmbedtls/mbedtls/library/bignum_core.c:499
    aee8:	b8606ab4 	ldr	w20, [x21, x0]
/home/build/bsp/optee_os/lib/libmbedtls/mbedtls/library/bignum_core.c:500
    aeec:	aa1303e3 	mov	x3, x19
    aef0:	aa1803e2 	mov	x2, x24
    aef4:	aa1503e1 	mov	x1, x21
    aef8:	aa1703e0 	mov	x0, x23
    aefc:	97ffff50 	bl	ac3c <mbedtls_mpi_core_sub>
/home/build/bsp/optee_os/lib/libmbedtls/mbedtls/library/bignum_core.c:516
    af00:	aa1503e2 	mov	x2, x21
    af04:	4a000283 	eor	w3, w20, w0
    af08:	aa1703e1 	mov	x1, x23
    af0c:	aa1303e0 	mov	x0, x19
/home/build/bsp/optee_os/lib/libmbedtls/mbedtls/library/bignum_core.c:517
    af10:	a94153f3 	ldp	x19, x20, [sp, #16]
    af14:	a9425bf5 	ldp	x21, x22, [sp, #32]
    af18:	a94363f7 	ldp	x23, x24, [sp, #48]
    af1c:	a9446bf9 	ldp	x25, x26, [sp, #64]
    af20:	a94573fb 	ldp	x27, x28, [sp, #80]
    af24:	a8c77bfd 	ldp	x29, x30, [sp], #112
/home/build/bsp/optee_os/lib/libmbedtls/mbedtls/library/bignum_core.c:516
    af28:	140001a8 	b	b5c8 <mbedtls_ct_mpi_uint_cond_assign>
/home/build/bsp/optee_os/lib/libmbedtls/mbedtls/library/bignum_core.c:480 (discriminator 3)
    af2c:	b8737b24 	ldr	w4, [x25, x19, lsl #2]
/home/build/bsp/optee_os/lib/libmbedtls/mbedtls/library/bignum_core.c:483 (discriminator 3)
    af30:	aa1b03e2 	mov	x2, x27
/home/build/bsp/optee_os/lib/libmbedtls/mbedtls/library/bignum_core.c:481 (discriminator 3)
    af34:	b8737ac0 	ldr	w0, [x22, x19, lsl #2]
/home/build/bsp/optee_os/lib/libmbedtls/mbedtls/library/bignum_core.c:483 (discriminator 3)
    af38:	aa1a03e1 	mov	x1, x26
/home/build/bsp/optee_os/lib/libmbedtls/mbedtls/library/bignum_core.c:481 (discriminator 3)
    af3c:	b940037c 	ldr	w28, [x27]
/home/build/bsp/optee_os/lib/libmbedtls/mbedtls/library/bignum_core.c:478 (discriminator 3)
    af40:	91000673 	add	x19, x19, #0x1
/home/build/bsp/optee_os/lib/libmbedtls/mbedtls/library/bignum_core.c:483 (discriminator 3)
    af44:	f94033e3 	ldr	x3, [sp, #96]
/home/build/bsp/optee_os/lib/libmbedtls/mbedtls/library/bignum_core.c:481 (discriminator 3)
    af48:	1b1c009c 	madd	w28, w4, w28, w0
    af4c:	b9406fe0 	ldr	w0, [sp, #108]
    af50:	1b007f9c 	mul	w28, w28, w0
/home/build/bsp/optee_os/lib/libmbedtls/mbedtls/library/bignum_core.c:483 (discriminator 3)
    af54:	aa1503e0 	mov	x0, x21
    af58:	97ffff4a 	bl	ac80 <mbedtls_mpi_core_mla>
/home/build/bsp/optee_os/lib/libmbedtls/mbedtls/library/bignum_core.c:484 (discriminator 3)
    af5c:	2a1c03e4 	mov	w4, w28
    af60:	aa1403e3 	mov	x3, x20
    af64:	aa1803e2 	mov	x2, x24
    af68:	aa1a03e1 	mov	x1, x26
    af6c:	aa1503e0 	mov	x0, x21
    af70:	97ffff44 	bl	ac80 <mbedtls_mpi_core_mla>
/home/build/bsp/optee_os/lib/libmbedtls/mbedtls/library/bignum_core.c:478 (discriminator 3)
    af74:	17ffffd9 	b	aed8 <mbedtls_mpi_core_montmul+0x58>

000000000000af78 <mbedtls_mpi_core_get_mont_r2_unsafe>:
mbedtls_mpi_core_get_mont_r2_unsafe():
/home/build/bsp/optee_os/lib/libmbedtls/mbedtls/library/bignum_core.c:521
    af78:	a9be7bfd 	stp	x29, x30, [sp, #-32]!
    af7c:	910003fd 	mov	x29, sp
    af80:	a90153f3 	stp	x19, x20, [sp, #16]
    af84:	aa0103f4 	mov	x20, x1
    af88:	aa0003f3 	mov	x19, x0
/home/build/bsp/optee_os/lib/libmbedtls/mbedtls/library/bignum_core.c:524
    af8c:	52800021 	mov	w1, #0x1                   	// #1
    af90:	97fff188 	bl	75b0 <mbedtls_mpi_lset>
    af94:	35000200 	cbnz	w0, afd4 <mbedtls_mpi_core_get_mont_r2_unsafe+0x5c>
/home/build/bsp/optee_os/lib/libmbedtls/mbedtls/library/bignum_core.c:525 (discriminator 2)
    af98:	f9400681 	ldr	x1, [x20, #8]
    af9c:	aa1303e0 	mov	x0, x19
    afa0:	d37ae421 	lsl	x1, x1, #6
    afa4:	97fff21f 	bl	7820 <mbedtls_mpi_shift_l>
    afa8:	35000160 	cbnz	w0, afd4 <mbedtls_mpi_core_get_mont_r2_unsafe+0x5c>
/home/build/bsp/optee_os/lib/libmbedtls/mbedtls/library/bignum_core.c:526 (discriminator 2)
    afac:	aa1403e2 	mov	x2, x20
    afb0:	aa1303e1 	mov	x1, x19
    afb4:	aa1303e0 	mov	x0, x19
    afb8:	97fff654 	bl	8908 <mbedtls_mpi_mod_mpi>
    afbc:	350000c0 	cbnz	w0, afd4 <mbedtls_mpi_core_get_mont_r2_unsafe+0x5c>
/home/build/bsp/optee_os/lib/libmbedtls/mbedtls/library/bignum_core.c:527 (discriminator 2)
    afc0:	aa1303e0 	mov	x0, x19
    afc4:	f9400681 	ldr	x1, [x20, #8]
/home/build/bsp/optee_os/lib/libmbedtls/mbedtls/library/bignum_core.c:531 (discriminator 2)
    afc8:	a94153f3 	ldp	x19, x20, [sp, #16]
    afcc:	a8c27bfd 	ldp	x29, x30, [sp], #32
/home/build/bsp/optee_os/lib/libmbedtls/mbedtls/library/bignum_core.c:527 (discriminator 2)
    afd0:	17fff0dc 	b	7340 <mbedtls_mpi_shrink>
/home/build/bsp/optee_os/lib/libmbedtls/mbedtls/library/bignum_core.c:531
    afd4:	a94153f3 	ldp	x19, x20, [sp, #16]
    afd8:	a8c27bfd 	ldp	x29, x30, [sp], #32
    afdc:	d65f03c0 	ret

000000000000afe0 <mbedtls_mpi_core_fill_random>:
mbedtls_mpi_core_fill_random():
/home/build/bsp/optee_os/lib/libmbedtls/mbedtls/library/bignum_core.c:556
    afe0:	a9bb7bfd 	stp	x29, x30, [sp, #-80]!
/home/build/bsp/optee_os/lib/libmbedtls/mbedtls/library/bignum_core.c:558
    afe4:	f240045f 	tst	x2, #0x3
/home/build/bsp/optee_os/lib/libmbedtls/mbedtls/library/bignum_core.c:556
    afe8:	910003fd 	mov	x29, sp
    afec:	a90153f3 	stp	x19, x20, [sp, #16]
/home/build/bsp/optee_os/lib/libmbedtls/mbedtls/library/bignum_core.c:558
    aff0:	d342fc53 	lsr	x19, x2, #2
    aff4:	9a930673 	cinc	x19, x19, ne  // ne = any
/home/build/bsp/optee_os/lib/libmbedtls/mbedtls/library/bignum_core.c:556
    aff8:	a9025bf5 	stp	x21, x22, [sp, #32]
    affc:	a90363f7 	stp	x23, x24, [sp, #48]
    b000:	a9046bf9 	stp	x25, x26, [sp, #64]
/home/build/bsp/optee_os/lib/libmbedtls/mbedtls/library/bignum_core.c:559
    b004:	d37ef67a 	lsl	x26, x19, #2
    b008:	cb020359 	sub	x25, x26, x2
/home/build/bsp/optee_os/lib/libmbedtls/mbedtls/library/bignum_core.c:561
    b00c:	eb01027f 	cmp	x19, x1
    b010:	540003c8 	b.hi	b088 <mbedtls_mpi_core_fill_random+0xa8>  // b.pmore
    b014:	aa0403f8 	mov	x24, x4
/home/build/bsp/optee_os/lib/libmbedtls/mbedtls/library/bignum_core.c:565
    b018:	aa0003f6 	mov	x22, x0
    b01c:	aa0203f4 	mov	x20, x2
    b020:	aa0303f7 	mov	x23, x3
    b024:	aa0103f5 	mov	x21, x1
    b028:	aa1903e2 	mov	x2, x25
    b02c:	52800001 	mov	w1, #0x0                   	// #0
    b030:	940007ae 	bl	cee8 <memset>
/home/build/bsp/optee_os/lib/libmbedtls/mbedtls/library/bignum_core.c:566
    b034:	cb1302a2 	sub	x2, x21, x19
    b038:	52800001 	mov	w1, #0x0                   	// #0
    b03c:	8b1a02c0 	add	x0, x22, x26
    b040:	d37ef442 	lsl	x2, x2, #2
    b044:	940007a9 	bl	cee8 <memset>
/home/build/bsp/optee_os/lib/libmbedtls/mbedtls/library/bignum_core.c:567
    b048:	aa1403e2 	mov	x2, x20
    b04c:	8b1902c1 	add	x1, x22, x25
    b050:	aa1803e0 	mov	x0, x24
    b054:	d63f02e0 	blr	x23
    b058:	2a0003f4 	mov	w20, w0
    b05c:	35000080 	cbnz	w0, b06c <mbedtls_mpi_core_fill_random+0x8c>
/home/build/bsp/optee_os/lib/libmbedtls/mbedtls/library/bignum_core.c:568 (discriminator 2)
    b060:	aa1303e1 	mov	x1, x19
    b064:	aa1603e0 	mov	x0, x22
    b068:	97fffda5 	bl	a6fc <mbedtls_mpi_core_bigendian_to_host>
/home/build/bsp/optee_os/lib/libmbedtls/mbedtls/library/bignum_core.c:572
    b06c:	2a1403e0 	mov	w0, w20
    b070:	a94153f3 	ldp	x19, x20, [sp, #16]
    b074:	a9425bf5 	ldp	x21, x22, [sp, #32]
    b078:	a94363f7 	ldp	x23, x24, [sp, #48]
    b07c:	a9446bf9 	ldp	x25, x26, [sp, #64]
    b080:	a8c57bfd 	ldp	x29, x30, [sp], #80
    b084:	d65f03c0 	ret
/home/build/bsp/optee_os/lib/libmbedtls/mbedtls/library/bignum_core.c:562
    b088:	12800074 	mov	w20, #0xfffffffc            	// #-4
    b08c:	17fffff8 	b	b06c <mbedtls_mpi_core_fill_random+0x8c>

000000000000b090 <mbedtls_mpi_core_random>:
mbedtls_mpi_core_random():
/home/build/bsp/optee_os/lib/libmbedtls/mbedtls/library/bignum_core.c:580
    b090:	a9b97bfd 	stp	x29, x30, [sp, #-112]!
    b094:	910003fd 	mov	x29, sp
    b098:	a90153f3 	stp	x19, x20, [sp, #16]
    b09c:	aa0303f3 	mov	x19, x3
    b0a0:	a9025bf5 	stp	x21, x22, [sp, #32]
    b0a4:	aa0003f5 	mov	x21, x0
/home/build/bsp/optee_os/lib/libmbedtls/mbedtls/library/bignum_core.c:582
    b0a8:	aa0203e0 	mov	x0, x2
/home/build/bsp/optee_os/lib/libmbedtls/mbedtls/library/bignum_core.c:580
    b0ac:	a90363f7 	stp	x23, x24, [sp, #48]
    b0b0:	aa0203f8 	mov	x24, x2
/home/build/bsp/optee_os/lib/libmbedtls/mbedtls/library/bignum_core.c:603
    b0b4:	528003d7 	mov	w23, #0x1e                  	// #30
/home/build/bsp/optee_os/lib/libmbedtls/mbedtls/library/bignum_core.c:580
    b0b8:	a9046bf9 	stp	x25, x26, [sp, #64]
    b0bc:	2a0103f9 	mov	w25, w1
    b0c0:	aa0403fa 	mov	x26, x4
/home/build/bsp/optee_os/lib/libmbedtls/mbedtls/library/bignum_core.c:582
    b0c4:	aa0303e1 	mov	x1, x3
/home/build/bsp/optee_os/lib/libmbedtls/mbedtls/library/bignum_core.c:580
    b0c8:	a90573fb 	stp	x27, x28, [sp, #80]
    b0cc:	aa0503fb 	mov	x27, x5
/home/build/bsp/optee_os/lib/libmbedtls/mbedtls/library/bignum_core.c:582
    b0d0:	97fffd76 	bl	a6a8 <mbedtls_mpi_core_bitlen>
/home/build/bsp/optee_os/lib/libmbedtls/mbedtls/library/bignum_core.c:583
    b0d4:	91001c14 	add	x20, x0, #0x7
/home/build/bsp/optee_os/lib/libmbedtls/mbedtls/library/bignum_core.c:603
    b0d8:	f1009e9f 	cmp	x20, #0x27
    b0dc:	52801f41 	mov	w1, #0xfa                  	// #250
/home/build/bsp/optee_os/lib/libmbedtls/mbedtls/library/bignum_core.c:583
    b0e0:	d343fe9c 	lsr	x28, x20, #3
/home/build/bsp/optee_os/lib/libmbedtls/mbedtls/library/bignum_core.c:617
    b0e4:	927df294 	and	x20, x20, #0xfffffffffffffff8
/home/build/bsp/optee_os/lib/libmbedtls/mbedtls/library/bignum_core.c:603
    b0e8:	1a8182f7 	csel	w23, w23, w1, hi  // hi = pmore
/home/build/bsp/optee_os/lib/libmbedtls/mbedtls/library/bignum_core.c:617
    b0ec:	cb000294 	sub	x20, x20, x0
/home/build/bsp/optee_os/lib/libmbedtls/mbedtls/library/bignum_core.c:614
    b0f0:	aa1b03e4 	mov	x4, x27
    b0f4:	aa1a03e3 	mov	x3, x26
    b0f8:	aa1c03e2 	mov	x2, x28
    b0fc:	aa1303e1 	mov	x1, x19
    b100:	aa1503e0 	mov	x0, x21
    b104:	97ffffb7 	bl	afe0 <mbedtls_mpi_core_fill_random>
    b108:	2a0003f6 	mov	w22, w0
    b10c:	350002a0 	cbnz	w0, b160 <mbedtls_mpi_core_random+0xd0>
/home/build/bsp/optee_os/lib/libmbedtls/mbedtls/library/bignum_core.c:617 (discriminator 2)
    b110:	aa1403e2 	mov	x2, x20
    b114:	aa1303e1 	mov	x1, x19
    b118:	aa1503e0 	mov	x0, x21
    b11c:	97fffe66 	bl	aab4 <mbedtls_mpi_core_shift_r>
/home/build/bsp/optee_os/lib/libmbedtls/mbedtls/library/bignum_core.c:619 (discriminator 2)
    b120:	710006f7 	subs	w23, w23, #0x1
    b124:	540002e0 	b.eq	b180 <mbedtls_mpi_core_random+0xf0>  // b.none
/home/build/bsp/optee_os/lib/libmbedtls/mbedtls/library/bignum_core.c:624
    b128:	aa1303e2 	mov	x2, x19
    b12c:	aa1503e1 	mov	x1, x21
    b130:	2a1903e0 	mov	w0, w25
    b134:	97fffd7f 	bl	a730 <mbedtls_mpi_core_uint_le_mpi>
    b138:	2a0003e3 	mov	w3, w0
/home/build/bsp/optee_os/lib/libmbedtls/mbedtls/library/bignum_core.c:625
    b13c:	aa1303e2 	mov	x2, x19
    b140:	aa1803e1 	mov	x1, x24
    b144:	aa1503e0 	mov	x0, x21
/home/build/bsp/optee_os/lib/libmbedtls/mbedtls/library/bignum_core.c:624
    b148:	b9006fe3 	str	w3, [sp, #108]
/home/build/bsp/optee_os/lib/libmbedtls/mbedtls/library/bignum_core.c:625
    b14c:	940001e7 	bl	b8e8 <mbedtls_mpi_core_lt_ct>
/home/build/bsp/optee_os/lib/libmbedtls/mbedtls/library/bignum_core.c:626
    b150:	b9406fe3 	ldr	w3, [sp, #108]
    b154:	7100007f 	cmp	w3, #0x0
    b158:	7a401804 	ccmp	w0, #0x0, #0x4, ne  // ne = any
    b15c:	54fffca0 	b.eq	b0f0 <mbedtls_mpi_core_random+0x60>  // b.none
/home/build/bsp/optee_os/lib/libmbedtls/mbedtls/library/bignum_core.c:630
    b160:	2a1603e0 	mov	w0, w22
    b164:	a94153f3 	ldp	x19, x20, [sp, #16]
    b168:	a9425bf5 	ldp	x21, x22, [sp, #32]
    b16c:	a94363f7 	ldp	x23, x24, [sp, #48]
    b170:	a9446bf9 	ldp	x25, x26, [sp, #64]
    b174:	a94573fb 	ldp	x27, x28, [sp, #80]
    b178:	a8c77bfd 	ldp	x29, x30, [sp], #112
    b17c:	d65f03c0 	ret
/home/build/bsp/optee_os/lib/libmbedtls/mbedtls/library/bignum_core.c:620
    b180:	128001b6 	mov	w22, #0xfffffff2            	// #-14
/home/build/bsp/optee_os/lib/libmbedtls/mbedtls/library/bignum_core.c:629
    b184:	17fffff7 	b	b160 <mbedtls_mpi_core_random+0xd0>

000000000000b188 <mbedtls_mpi_core_exp_mod_working_limbs>:
mbedtls_mpi_core_exp_mod_working_limbs():
/home/build/bsp/optee_os/lib/libmbedtls/mbedtls/library/bignum_core.c:650
    b188:	d37be821 	lsl	x1, x1, #5
exp_mod_get_window_size():
/home/build/bsp/optee_os/lib/libmbedtls/mbedtls/library/bignum_core.c:636
    b18c:	f1013c3f 	cmp	x1, #0x4f
mbedtls_mpi_core_exp_mod_working_limbs():
/home/build/bsp/optee_os/lib/libmbedtls/mbedtls/library/bignum_core.c:651
    b190:	d2800021 	mov	x1, #0x1                   	// #1
exp_mod_get_window_size():
/home/build/bsp/optee_os/lib/libmbedtls/mbedtls/library/bignum_core.c:636
    b194:	9a9f97e2 	cset	x2, hi  // hi = pmore
    b198:	91000442 	add	x2, x2, #0x1
mbedtls_mpi_core_exp_mod_working_limbs():
/home/build/bsp/optee_os/lib/libmbedtls/mbedtls/library/bignum_core.c:651
    b19c:	9ac22021 	lsl	x1, x1, x2
/home/build/bsp/optee_os/lib/libmbedtls/mbedtls/library/bignum_core.c:658
    b1a0:	91000c21 	add	x1, x1, #0x3
    b1a4:	9b007c20 	mul	x0, x1, x0
/home/build/bsp/optee_os/lib/libmbedtls/mbedtls/library/bignum_core.c:659
    b1a8:	91000400 	add	x0, x0, #0x1
    b1ac:	d65f03c0 	ret

000000000000b1b0 <mbedtls_mpi_core_exp_mod>:
mbedtls_mpi_core_exp_mod():
/home/build/bsp/optee_os/lib/libmbedtls/mbedtls/library/bignum_core.c:708
    b1b0:	a9b67bfd 	stp	x29, x30, [sp, #-160]!
    b1b4:	910003fd 	mov	x29, sp
    b1b8:	a90153f3 	stp	x19, x20, [sp, #16]
    b1bc:	aa0003f4 	mov	x20, x0
/home/build/bsp/optee_os/lib/libmbedtls/mbedtls/library/bignum_core.c:709
    b1c0:	d37be8a0 	lsl	x0, x5, #5
exp_mod_get_window_size():
/home/build/bsp/optee_os/lib/libmbedtls/mbedtls/library/bignum_core.c:636
    b1c4:	f1013c1f 	cmp	x0, #0x4f
mbedtls_mpi_core_exp_mod():
/home/build/bsp/optee_os/lib/libmbedtls/mbedtls/library/bignum_core.c:708
    b1c8:	a9046bf9 	stp	x25, x26, [sp, #64]
exp_mod_get_window_size():
/home/build/bsp/optee_os/lib/libmbedtls/mbedtls/library/bignum_core.c:636
    b1cc:	9a9f97e0 	cset	x0, hi  // hi = pmore
mbedtls_mpi_core_exp_mod():
/home/build/bsp/optee_os/lib/libmbedtls/mbedtls/library/bignum_core.c:708
    b1d0:	aa0303fa 	mov	x26, x3
    b1d4:	d2800023 	mov	x3, #0x1                   	// #1
exp_mod_get_window_size():
/home/build/bsp/optee_os/lib/libmbedtls/mbedtls/library/bignum_core.c:636
    b1d8:	8b030000 	add	x0, x0, x3
mbedtls_mpi_core_exp_mod():
/home/build/bsp/optee_os/lib/libmbedtls/mbedtls/library/bignum_core.c:710
    b1dc:	a9068fe0 	stp	x0, x3, [sp, #104]
/home/build/bsp/optee_os/lib/libmbedtls/mbedtls/library/bignum_core.c:708
    b1e0:	aa0703f3 	mov	x19, x7
/home/build/bsp/optee_os/lib/libmbedtls/mbedtls/library/bignum_core.c:710
    b1e4:	3941a3e0 	ldrb	w0, [sp, #104]
/home/build/bsp/optee_os/lib/libmbedtls/mbedtls/library/bignum_core.c:708
    b1e8:	a9025bf5 	stp	x21, x22, [sp, #32]
    b1ec:	aa0203f5 	mov	x21, x2
    b1f0:	aa0503f6 	mov	x22, x5
/home/build/bsp/optee_os/lib/libmbedtls/mbedtls/library/bignum_core.c:710
    b1f4:	9ac02060 	lsl	x0, x3, x0
    b1f8:	f9003fe0 	str	x0, [sp, #120]
/home/build/bsp/optee_os/lib/libmbedtls/mbedtls/library/bignum_core.c:714
    b1fc:	3941a3e0 	ldrb	w0, [sp, #104]
/home/build/bsp/optee_os/lib/libmbedtls/mbedtls/library/bignum_core.c:708
    b200:	a90363f7 	stp	x23, x24, [sp, #48]
/home/build/bsp/optee_os/lib/libmbedtls/mbedtls/library/bignum_core.c:720
    b204:	d37ef757 	lsl	x23, x26, #2
/home/build/bsp/optee_os/lib/libmbedtls/mbedtls/library/bignum_core.c:714
    b208:	9ac02359 	lsl	x25, x26, x0
/home/build/bsp/optee_os/lib/libmbedtls/mbedtls/library/bignum_core.c:726
    b20c:	aa0203e0 	mov	x0, x2
/home/build/bsp/optee_os/lib/libmbedtls/mbedtls/library/bignum_core.c:719
    b210:	8b1908f9 	add	x25, x7, x25, lsl #2
/home/build/bsp/optee_os/lib/libmbedtls/mbedtls/library/bignum_core.c:708
    b214:	a90573fb 	stp	x27, x28, [sp, #80]
    b218:	aa0603fc 	mov	x28, x6
    b21c:	a90807e4 	stp	x4, x1, [sp, #128]
/home/build/bsp/optee_os/lib/libmbedtls/mbedtls/library/bignum_core.c:726
    b220:	97ffff0b 	bl	ae4c <mbedtls_mpi_core_montmul_init>
exp_mod_precompute_window():
/home/build/bsp/optee_os/lib/libmbedtls/mbedtls/library/bignum_core.c:671
    b224:	aa1703e2 	mov	x2, x23
mbedtls_mpi_core_exp_mod():
/home/build/bsp/optee_os/lib/libmbedtls/mbedtls/library/bignum_core.c:726
    b228:	2a0003f8 	mov	w24, w0
exp_mod_precompute_window():
/home/build/bsp/optee_os/lib/libmbedtls/mbedtls/library/bignum_core.c:671
    b22c:	52800001 	mov	w1, #0x0                   	// #0
    b230:	aa1303e0 	mov	x0, x19
    b234:	9400072d 	bl	cee8 <memset>
/home/build/bsp/optee_os/lib/libmbedtls/mbedtls/library/bignum_core.c:672
    b238:	f9403be3 	ldr	x3, [sp, #112]
    b23c:	b9000263 	str	w3, [x19]
mbedtls_mpi_core_exp_mod():
/home/build/bsp/optee_os/lib/libmbedtls/mbedtls/library/bignum_core.c:720
    b240:	8b1a0b3b 	add	x27, x25, x26, lsl #2
exp_mod_precompute_window():
/home/build/bsp/optee_os/lib/libmbedtls/mbedtls/library/bignum_core.c:673
    b244:	aa1c03e2 	mov	x2, x28
    b248:	aa1b03e7 	mov	x7, x27
    b24c:	2a1803e6 	mov	w6, w24
    b250:	aa1a03e5 	mov	x5, x26
    b254:	aa1503e4 	mov	x4, x21
    b258:	aa1303e1 	mov	x1, x19
    b25c:	aa1303e0 	mov	x0, x19
    b260:	aa1a03e3 	mov	x3, x26
    b264:	97ffff07 	bl	ae80 <mbedtls_mpi_core_montmul>
/home/build/bsp/optee_os/lib/libmbedtls/mbedtls/library/bignum_core.c:677
    b268:	f94047e8 	ldr	x8, [sp, #136]
/home/build/bsp/optee_os/lib/libmbedtls/mbedtls/library/bignum_core.c:676
    b26c:	8b17027c 	add	x28, x19, x23
/home/build/bsp/optee_os/lib/libmbedtls/mbedtls/library/bignum_core.c:677
    b270:	aa1703e2 	mov	x2, x23
    b274:	aa1c03e0 	mov	x0, x28
    b278:	aa0803e1 	mov	x1, x8
    b27c:	97ffd361 	bl	0 <memcpy>
/home/build/bsp/optee_os/lib/libmbedtls/mbedtls/library/bignum_core.c:681
    b280:	aa1c03e1 	mov	x1, x28
    b284:	d2800040 	mov	x0, #0x2                   	// #2
    b288:	f9003be0 	str	x0, [sp, #112]
    b28c:	a94703e2 	ldp	x2, x0, [sp, #112]
    b290:	eb02001f 	cmp	x0, x2
    b294:	540008e1 	b.ne	b3b0 <mbedtls_mpi_core_exp_mod+0x200>  // b.any
mbedtls_mpi_core_exp_mod():
/home/build/bsp/optee_os/lib/libmbedtls/mbedtls/library/bignum_core.c:738
    b298:	aa1703e2 	mov	x2, x23
    b29c:	aa1303e1 	mov	x1, x19
    b2a0:	aa1403e0 	mov	x0, x20
    b2a4:	97ffd357 	bl	0 <memcpy>
/home/build/bsp/optee_os/lib/libmbedtls/mbedtls/library/bignum_core.c:748
    b2a8:	52800009 	mov	w9, #0x0                   	// #0
/home/build/bsp/optee_os/lib/libmbedtls/mbedtls/library/bignum_core.c:747
    b2ac:	d280000b 	mov	x11, #0x0                   	// #0
/home/build/bsp/optee_os/lib/libmbedtls/mbedtls/library/bignum_core.c:744
    b2b0:	d280001c 	mov	x28, #0x0                   	// #0
/home/build/bsp/optee_os/lib/libmbedtls/mbedtls/library/bignum_core.c:752
    b2b4:	aa1b03e7 	mov	x7, x27
    b2b8:	2a1803e6 	mov	w6, w24
    b2bc:	aa1a03e5 	mov	x5, x26
    b2c0:	aa1503e4 	mov	x4, x21
    b2c4:	aa1a03e3 	mov	x3, x26
    b2c8:	aa1403e2 	mov	x2, x20
    b2cc:	aa1403e1 	mov	x1, x20
    b2d0:	aa1403e0 	mov	x0, x20
    b2d4:	f9003feb 	str	x11, [sp, #120]
    b2d8:	b9008be9 	str	w9, [sp, #136]
    b2dc:	97fffee9 	bl	ae80 <mbedtls_mpi_core_montmul>
/home/build/bsp/optee_os/lib/libmbedtls/mbedtls/library/bignum_core.c:755
    b2e0:	b9408be9 	ldr	w9, [sp, #136]
    b2e4:	f9403feb 	ldr	x11, [sp, #120]
    b2e8:	b500083c 	cbnz	x28, b3ec <mbedtls_mpi_core_exp_mod+0x23c>
/home/build/bsp/optee_os/lib/libmbedtls/mbedtls/library/bignum_core.c:756
    b2ec:	d10006d6 	sub	x22, x22, #0x1
/home/build/bsp/optee_os/lib/libmbedtls/mbedtls/library/bignum_core.c:757
    b2f0:	d28003fc 	mov	x28, #0x1f                  	// #31
/home/build/bsp/optee_os/lib/libmbedtls/mbedtls/library/bignum_core.c:764
    b2f4:	f94043e0 	ldr	x0, [sp, #128]
/home/build/bsp/optee_os/lib/libmbedtls/mbedtls/library/bignum_core.c:762
    b2f8:	9100056b 	add	x11, x11, #0x1
/home/build/bsp/optee_os/lib/libmbedtls/mbedtls/library/bignum_core.c:764
    b2fc:	b8767800 	ldr	w0, [x0, x22, lsl #2]
    b300:	1adc2400 	lsr	w0, w0, w28
    b304:	12000000 	and	w0, w0, #0x1
    b308:	2a090409 	orr	w9, w0, w9, lsl #1
/home/build/bsp/optee_os/lib/libmbedtls/mbedtls/library/bignum_core.c:769
    b30c:	aa1c02c0 	orr	x0, x22, x28
    b310:	f9003fe0 	str	x0, [sp, #120]
/home/build/bsp/optee_os/lib/libmbedtls/mbedtls/library/bignum_core.c:768
    b314:	f94037e0 	ldr	x0, [sp, #104]
    b318:	eb00017f 	cmp	x11, x0
    b31c:	54000060 	b.eq	b328 <mbedtls_mpi_core_exp_mod+0x178>  // b.none
/home/build/bsp/optee_os/lib/libmbedtls/mbedtls/library/bignum_core.c:768 (discriminator 1)
    b320:	aa1c02c0 	orr	x0, x22, x28
    b324:	b5fffc80 	cbnz	x0, b2b4 <mbedtls_mpi_core_exp_mod+0x104>
/home/build/bsp/optee_os/lib/libmbedtls/mbedtls/library/bignum_core.c:772
    b328:	aa1303e5 	mov	x5, x19
mbedtls_mpi_core_ct_uint_table_lookup():
/home/build/bsp/optee_os/lib/libmbedtls/mbedtls/library/bignum_core.c:540
    b32c:	d2800004 	mov	x4, #0x0                   	// #0
/home/build/bsp/optee_os/lib/libmbedtls/mbedtls/library/bignum_core.c:541
    b330:	aa0903e1 	mov	x1, x9
    b334:	aa0403e0 	mov	x0, x4
    b338:	a90893e5 	stp	x5, x4, [sp, #136]
    b33c:	f9004fe9 	str	x9, [sp, #152]
    b340:	94000089 	bl	b564 <mbedtls_ct_size_bool_eq>
/home/build/bsp/optee_os/lib/libmbedtls/mbedtls/library/bignum_core.c:542
    b344:	f94047e5 	ldr	x5, [sp, #136]
    b348:	2a0003e3 	mov	w3, w0
    b34c:	aa1a03e2 	mov	x2, x26
    b350:	aa1903e0 	mov	x0, x25
    b354:	aa0503e1 	mov	x1, x5
    b358:	97fffd0f 	bl	a794 <mbedtls_mpi_core_cond_assign>
/home/build/bsp/optee_os/lib/libmbedtls/mbedtls/library/bignum_core.c:540
    b35c:	a94893e5 	ldp	x5, x4, [sp, #136]
    b360:	f9403be0 	ldr	x0, [sp, #112]
    b364:	f9404fe9 	ldr	x9, [sp, #152]
    b368:	91000484 	add	x4, x4, #0x1
    b36c:	8b1700a5 	add	x5, x5, x23
    b370:	eb04001f 	cmp	x0, x4
    b374:	54fffde1 	b.ne	b330 <mbedtls_mpi_core_exp_mod+0x180>  // b.any
mbedtls_mpi_core_exp_mod():
/home/build/bsp/optee_os/lib/libmbedtls/mbedtls/library/bignum_core.c:775
    b378:	aa1403e0 	mov	x0, x20
    b37c:	aa1b03e7 	mov	x7, x27
    b380:	2a1803e6 	mov	w6, w24
    b384:	aa1a03e5 	mov	x5, x26
    b388:	aa1503e4 	mov	x4, x21
    b38c:	aa1a03e3 	mov	x3, x26
    b390:	aa1903e2 	mov	x2, x25
    b394:	aa1403e1 	mov	x1, x20
    b398:	97fffeba 	bl	ae80 <mbedtls_mpi_core_montmul>
/home/build/bsp/optee_os/lib/libmbedtls/mbedtls/library/bignum_core.c:780
    b39c:	f9403fe0 	ldr	x0, [sp, #120]
    b3a0:	b40002a0 	cbz	x0, b3f4 <mbedtls_mpi_core_exp_mod+0x244>
/home/build/bsp/optee_os/lib/libmbedtls/mbedtls/library/bignum_core.c:777
    b3a4:	52800009 	mov	w9, #0x0                   	// #0
/home/build/bsp/optee_os/lib/libmbedtls/mbedtls/library/bignum_core.c:778
    b3a8:	d280000b 	mov	x11, #0x0                   	// #0
    b3ac:	17ffffc2 	b	b2b4 <mbedtls_mpi_core_exp_mod+0x104>
exp_mod_precompute_window():
/home/build/bsp/optee_os/lib/libmbedtls/mbedtls/library/bignum_core.c:682
    b3b0:	8b170020 	add	x0, x1, x23
/home/build/bsp/optee_os/lib/libmbedtls/mbedtls/library/bignum_core.c:683
    b3b4:	aa1b03e7 	mov	x7, x27
    b3b8:	2a1803e6 	mov	w6, w24
    b3bc:	aa1a03e5 	mov	x5, x26
    b3c0:	aa1503e4 	mov	x4, x21
    b3c4:	aa1a03e3 	mov	x3, x26
    b3c8:	aa1c03e2 	mov	x2, x28
    b3cc:	f90047e0 	str	x0, [sp, #136]
    b3d0:	97fffeac 	bl	ae80 <mbedtls_mpi_core_montmul>
/home/build/bsp/optee_os/lib/libmbedtls/mbedtls/library/bignum_core.c:681
    b3d4:	f9403be0 	ldr	x0, [sp, #112]
    b3d8:	91000400 	add	x0, x0, #0x1
    b3dc:	f9003be0 	str	x0, [sp, #112]
/home/build/bsp/optee_os/lib/libmbedtls/mbedtls/library/bignum_core.c:684
    b3e0:	f94047e0 	ldr	x0, [sp, #136]
    b3e4:	aa0003e1 	mov	x1, x0
    b3e8:	17ffffa9 	b	b28c <mbedtls_mpi_core_exp_mod+0xdc>
mbedtls_mpi_core_exp_mod():
/home/build/bsp/optee_os/lib/libmbedtls/mbedtls/library/bignum_core.c:759
    b3ec:	d100079c 	sub	x28, x28, #0x1
    b3f0:	17ffffc1 	b	b2f4 <mbedtls_mpi_core_exp_mod+0x144>
/home/build/bsp/optee_os/lib/libmbedtls/mbedtls/library/bignum_core.c:781
    b3f4:	a94153f3 	ldp	x19, x20, [sp, #16]
    b3f8:	a9425bf5 	ldp	x21, x22, [sp, #32]
    b3fc:	a94363f7 	ldp	x23, x24, [sp, #48]
    b400:	a9446bf9 	ldp	x25, x26, [sp, #64]
    b404:	a94573fb 	ldp	x27, x28, [sp, #80]
    b408:	a8ca7bfd 	ldp	x29, x30, [sp], #160
    b40c:	d65f03c0 	ret

000000000000b410 <mbedtls_mpi_core_sub_int>:
mbedtls_mpi_core_sub_int():
/home/build/bsp/optee_os/lib/libmbedtls/mbedtls/library/bignum_core.c:795
    b410:	aa0003e5 	mov	x5, x0
/home/build/bsp/optee_os/lib/libmbedtls/mbedtls/library/bignum_core.c:796
    b414:	2a0203e0 	mov	w0, w2
    b418:	d2800002 	mov	x2, #0x0                   	// #0
/home/build/bsp/optee_os/lib/libmbedtls/mbedtls/library/bignum_core.c:796 (discriminator 1)
    b41c:	eb03005f 	cmp	x2, x3
    b420:	54000041 	b.ne	b428 <mbedtls_mpi_core_sub_int+0x18>  // b.any
/home/build/bsp/optee_os/lib/libmbedtls/mbedtls/library/bignum_core.c:804
    b424:	d65f03c0 	ret
/home/build/bsp/optee_os/lib/libmbedtls/mbedtls/library/bignum_core.c:798 (discriminator 3)
    b428:	b8627824 	ldr	w4, [x1, x2, lsl #2]
/home/build/bsp/optee_os/lib/libmbedtls/mbedtls/library/bignum_core.c:799 (discriminator 3)
    b42c:	6b000084 	subs	w4, w4, w0
/home/build/bsp/optee_os/lib/libmbedtls/mbedtls/library/bignum_core.c:800 (discriminator 3)
    b430:	b82278a4 	str	w4, [x5, x2, lsl #2]
/home/build/bsp/optee_os/lib/libmbedtls/mbedtls/library/bignum_core.c:799 (discriminator 3)
    b434:	1a9f27e0 	cset	w0, cc  // cc = lo, ul, last
/home/build/bsp/optee_os/lib/libmbedtls/mbedtls/library/bignum_core.c:796 (discriminator 3)
    b438:	91000442 	add	x2, x2, #0x1
    b43c:	17fffff8 	b	b41c <mbedtls_mpi_core_sub_int+0xc>

000000000000b440 <mbedtls_mpi_core_check_zero_ct>:
mbedtls_mpi_core_check_zero_ct():
/home/build/bsp/optee_os/lib/libmbedtls/mbedtls/library/bignum_core.c:808
    b440:	aa0003e3 	mov	x3, x0
/home/build/bsp/optee_os/lib/libmbedtls/mbedtls/library/bignum_core.c:811
    b444:	d2800002 	mov	x2, #0x0                   	// #0
/home/build/bsp/optee_os/lib/libmbedtls/mbedtls/library/bignum_core.c:809
    b448:	52800000 	mov	w0, #0x0                   	// #0
/home/build/bsp/optee_os/lib/libmbedtls/mbedtls/library/bignum_core.c:811 (discriminator 1)
    b44c:	eb01005f 	cmp	x2, x1
    b450:	54000041 	b.ne	b458 <mbedtls_mpi_core_check_zero_ct+0x18>  // b.any
/home/build/bsp/optee_os/lib/libmbedtls/mbedtls/library/bignum_core.c:816
    b454:	d65f03c0 	ret
/home/build/bsp/optee_os/lib/libmbedtls/mbedtls/library/bignum_core.c:812 (discriminator 3)
    b458:	b8627864 	ldr	w4, [x3, x2, lsl #2]
/home/build/bsp/optee_os/lib/libmbedtls/mbedtls/library/bignum_core.c:811 (discriminator 3)
    b45c:	91000442 	add	x2, x2, #0x1
/home/build/bsp/optee_os/lib/libmbedtls/mbedtls/library/bignum_core.c:812 (discriminator 3)
    b460:	2a040000 	orr	w0, w0, w4
/home/build/bsp/optee_os/lib/libmbedtls/mbedtls/library/bignum_core.c:811 (discriminator 3)
    b464:	17fffffa 	b	b44c <mbedtls_mpi_core_check_zero_ct+0xc>

000000000000b468 <mbedtls_mpi_core_to_mont_rep>:
mbedtls_mpi_core_to_mont_rep():
/home/build/bsp/optee_os/lib/libmbedtls/mbedtls/library/bignum_core.c:825
    b468:	aa0203e8 	mov	x8, x2
/home/build/bsp/optee_os/lib/libmbedtls/mbedtls/library/bignum_core.c:826
    b46c:	aa0603e7 	mov	x7, x6
/home/build/bsp/optee_os/lib/libmbedtls/mbedtls/library/bignum_core.c:825
    b470:	aa0503e2 	mov	x2, x5
/home/build/bsp/optee_os/lib/libmbedtls/mbedtls/library/bignum_core.c:826
    b474:	2a0403e6 	mov	w6, w4
    b478:	aa0303e5 	mov	x5, x3
    b47c:	aa0803e4 	mov	x4, x8
    b480:	17fffe80 	b	ae80 <mbedtls_mpi_core_montmul>

000000000000b484 <mbedtls_mpi_core_from_mont_rep>:
mbedtls_mpi_core_from_mont_rep():
/home/build/bsp/optee_os/lib/libmbedtls/mbedtls/library/bignum_core.c:835
    b484:	a9bd7bfd 	stp	x29, x30, [sp, #-48]!
    b488:	910003fd 	mov	x29, sp
    b48c:	f9000bf3 	str	x19, [sp, #16]
    b490:	f0000033 	adrp	x19, 12000 <_DYNAMIC>
    b494:	f9409a66 	ldr	x6, [x19, #304]
    b498:	f94000c7 	ldr	x7, [x6]
    b49c:	f90017e7 	str	x7, [sp, #40]
    b4a0:	d2800007 	mov	x7, #0x0                   	// #0
/home/build/bsp/optee_os/lib/libmbedtls/mbedtls/library/bignum_core.c:836
    b4a4:	52800026 	mov	w6, #0x1                   	// #1
/home/build/bsp/optee_os/lib/libmbedtls/mbedtls/library/bignum_core.c:838
    b4a8:	aa0503e7 	mov	x7, x5
    b4ac:	aa0303e5 	mov	x5, x3
    b4b0:	d2800023 	mov	x3, #0x1                   	// #1
/home/build/bsp/optee_os/lib/libmbedtls/mbedtls/library/bignum_core.c:836
    b4b4:	b90027e6 	str	w6, [sp, #36]
/home/build/bsp/optee_os/lib/libmbedtls/mbedtls/library/bignum_core.c:838
    b4b8:	2a0403e6 	mov	w6, w4
    b4bc:	aa0203e4 	mov	x4, x2
    b4c0:	910093e2 	add	x2, sp, #0x24
    b4c4:	97fffe6f 	bl	ae80 <mbedtls_mpi_core_montmul>
/home/build/bsp/optee_os/lib/libmbedtls/mbedtls/library/bignum_core.c:839
    b4c8:	f9409a73 	ldr	x19, [x19, #304]
    b4cc:	f94017e0 	ldr	x0, [sp, #40]
    b4d0:	f9400261 	ldr	x1, [x19]
    b4d4:	eb010000 	subs	x0, x0, x1
    b4d8:	d2800001 	mov	x1, #0x0                   	// #0
    b4dc:	54000040 	b.eq	b4e4 <mbedtls_mpi_core_from_mont_rep+0x60>  // b.none
    b4e0:	97ffd474 	bl	6b0 <__stack_chk_fail>
    b4e4:	f9400bf3 	ldr	x19, [sp, #16]
    b4e8:	a8c37bfd 	ldp	x29, x30, [sp], #48
    b4ec:	d65f03c0 	ret

000000000000b4f0 <mbedtls_ct_uchar_mask_of_range>:
mbedtls_ct_uchar_mask_of_range():
/home/build/bsp/optee_os/lib/libmbedtls/mbedtls/library/constant_time.c:219
    b4f0:	12001c42 	and	w2, w2, #0xff
    b4f4:	12001c21 	and	w1, w1, #0xff
/home/build/bsp/optee_os/lib/libmbedtls/mbedtls/library/constant_time.c:223
    b4f8:	4b020021 	sub	w1, w1, w2
/home/build/bsp/optee_os/lib/libmbedtls/mbedtls/library/constant_time.c:221
    b4fc:	4b200040 	sub	w0, w2, w0, uxtb
/home/build/bsp/optee_os/lib/libmbedtls/mbedtls/library/constant_time.c:223
    b500:	53087c21 	lsr	w1, w1, #8
/home/build/bsp/optee_os/lib/libmbedtls/mbedtls/library/constant_time.c:224
    b504:	2a402020 	orr	w0, w1, w0, lsr #8
/home/build/bsp/optee_os/lib/libmbedtls/mbedtls/library/constant_time.c:225
    b508:	2a2003e0 	mvn	w0, w0
    b50c:	d65f03c0 	ret

000000000000b510 <mbedtls_ct_memcmp>:
mbedtls_ct_memcmp():
/home/build/bsp/optee_os/lib/libmbedtls/mbedtls/library/constant_time.c:91
    b510:	aa0003e5 	mov	x5, x0
/home/build/bsp/optee_os/lib/libmbedtls/mbedtls/library/constant_time.c:92
    b514:	d2800003 	mov	x3, #0x0                   	// #0
/home/build/bsp/optee_os/lib/libmbedtls/mbedtls/library/constant_time.c:101
    b518:	52800000 	mov	w0, #0x0                   	// #0
/home/build/bsp/optee_os/lib/libmbedtls/mbedtls/library/constant_time.c:111 (discriminator 1)
    b51c:	eb02007f 	cmp	x3, x2
    b520:	54000041 	b.ne	b528 <mbedtls_ct_memcmp+0x18>  // b.any
/home/build/bsp/optee_os/lib/libmbedtls/mbedtls/library/constant_time.c:120
    b524:	d65f03c0 	ret
/home/build/bsp/optee_os/lib/libmbedtls/mbedtls/library/constant_time.c:115 (discriminator 2)
    b528:	386368a6 	ldrb	w6, [x5, x3]
    b52c:	38636824 	ldrb	w4, [x1, x3]
/home/build/bsp/optee_os/lib/libmbedtls/mbedtls/library/constant_time.c:111 (discriminator 2)
    b530:	91000463 	add	x3, x3, #0x1
/home/build/bsp/optee_os/lib/libmbedtls/mbedtls/library/constant_time.c:115 (discriminator 2)
    b534:	4a060084 	eor	w4, w4, w6
/home/build/bsp/optee_os/lib/libmbedtls/mbedtls/library/constant_time.c:116 (discriminator 2)
    b538:	12001c84 	and	w4, w4, #0xff
    b53c:	2a040000 	orr	w0, w0, w4
/home/build/bsp/optee_os/lib/libmbedtls/mbedtls/library/constant_time.c:111 (discriminator 2)
    b540:	17fffff7 	b	b51c <mbedtls_ct_memcmp+0xc>

000000000000b544 <mbedtls_ct_uint_mask>:
mbedtls_ct_uint_mask():
/home/build/bsp/optee_os/lib/libmbedtls/mbedtls/library/constant_time.c:130
    b544:	4b0003e1 	neg	w1, w0
    b548:	2a000020 	orr	w0, w1, w0
/home/build/bsp/optee_os/lib/libmbedtls/mbedtls/library/constant_time.c:134
    b54c:	131f7c00 	asr	w0, w0, #31
    b550:	d65f03c0 	ret

000000000000b554 <mbedtls_ct_mpi_uint_mask>:
mbedtls_ct_mpi_uint_mask():
/home/build/bsp/optee_os/lib/libmbedtls/mbedtls/library/constant_time.c:134
    b554:	4b0003e1 	neg	w1, w0
    b558:	2a000020 	orr	w0, w1, w0
    b55c:	131f7c00 	asr	w0, w0, #31
    b560:	d65f03c0 	ret

000000000000b564 <mbedtls_ct_size_bool_eq>:
mbedtls_ct_size_bool_eq():
/home/build/bsp/optee_os/lib/libmbedtls/mbedtls/library/constant_time.c:233
    b564:	ca010001 	eor	x1, x0, x1
/home/build/bsp/optee_os/lib/libmbedtls/mbedtls/library/constant_time.c:243
    b568:	cb0103e0 	neg	x0, x1
    b56c:	aa010000 	orr	x0, x0, x1
/home/build/bsp/optee_os/lib/libmbedtls/mbedtls/library/constant_time.c:250
    b570:	d37ffc00 	lsr	x0, x0, #63
/home/build/bsp/optee_os/lib/libmbedtls/mbedtls/library/constant_time.c:253
    b574:	52000000 	eor	w0, w0, #0x1
    b578:	d65f03c0 	ret

000000000000b57c <mbedtls_ct_mpi_uint_lt>:
mbedtls_ct_mpi_uint_lt():
/home/build/bsp/optee_os/lib/libmbedtls/mbedtls/library/constant_time.c:293
    b57c:	4b010002 	sub	w2, w0, w1
/home/build/bsp/optee_os/lib/libmbedtls/mbedtls/library/constant_time.c:288
    b580:	4a010000 	eor	w0, w0, w1
/home/build/bsp/optee_os/lib/libmbedtls/mbedtls/library/constant_time.c:299
    b584:	4a010041 	eor	w1, w2, w1
    b588:	0a010000 	and	w0, w0, w1
    b58c:	4a020000 	eor	w0, w0, w2
/home/build/bsp/optee_os/lib/libmbedtls/mbedtls/library/constant_time.c:305
    b590:	531f7c00 	lsr	w0, w0, #31
    b594:	d65f03c0 	ret

000000000000b598 <mbedtls_ct_uint_if>:
mbedtls_ct_uint_if():
/home/build/bsp/optee_os/lib/libmbedtls/mbedtls/library/constant_time.c:312
    b598:	a9be7bfd 	stp	x29, x30, [sp, #-32]!
    b59c:	910003fd 	mov	x29, sp
    b5a0:	a90153f3 	stp	x19, x20, [sp, #16]
    b5a4:	2a0203f4 	mov	w20, w2
    b5a8:	2a0103f3 	mov	w19, w1
/home/build/bsp/optee_os/lib/libmbedtls/mbedtls/library/constant_time.c:314
    b5ac:	4a140273 	eor	w19, w19, w20
/home/build/bsp/optee_os/lib/libmbedtls/mbedtls/library/constant_time.c:313
    b5b0:	97ffffe5 	bl	b544 <mbedtls_ct_uint_mask>
/home/build/bsp/optee_os/lib/libmbedtls/mbedtls/library/constant_time.c:314
    b5b4:	0a000260 	and	w0, w19, w0
/home/build/bsp/optee_os/lib/libmbedtls/mbedtls/library/constant_time.c:315
    b5b8:	4a140000 	eor	w0, w0, w20
    b5bc:	a94153f3 	ldp	x19, x20, [sp, #16]
    b5c0:	a8c27bfd 	ldp	x29, x30, [sp], #32
    b5c4:	d65f03c0 	ret

000000000000b5c8 <mbedtls_ct_mpi_uint_cond_assign>:
mbedtls_ct_mpi_uint_cond_assign():
/home/build/bsp/optee_os/lib/libmbedtls/mbedtls/library/constant_time.c:357
    b5c8:	12001c63 	and	w3, w3, #0xff
/home/build/bsp/optee_os/lib/libmbedtls/mbedtls/library/constant_time.c:374
    b5cc:	d2800004 	mov	x4, #0x0                   	// #0
/home/build/bsp/optee_os/lib/libmbedtls/mbedtls/library/constant_time.c:368
    b5d0:	4b0303e7 	neg	w7, w3
/home/build/bsp/optee_os/lib/libmbedtls/mbedtls/library/constant_time.c:375
    b5d4:	51000463 	sub	w3, w3, #0x1
/home/build/bsp/optee_os/lib/libmbedtls/mbedtls/library/constant_time.c:374 (discriminator 1)
    b5d8:	eb00009f 	cmp	x4, x0
    b5dc:	54000041 	b.ne	b5e4 <mbedtls_ct_mpi_uint_cond_assign+0x1c>  // b.any
/home/build/bsp/optee_os/lib/libmbedtls/mbedtls/library/constant_time.c:377
    b5e0:	d65f03c0 	ret
/home/build/bsp/optee_os/lib/libmbedtls/mbedtls/library/constant_time.c:375 (discriminator 3)
    b5e4:	b8647825 	ldr	w5, [x1, x4, lsl #2]
    b5e8:	b8647846 	ldr	w6, [x2, x4, lsl #2]
    b5ec:	0a050065 	and	w5, w3, w5
    b5f0:	0a0600e6 	and	w6, w7, w6
    b5f4:	2a0600a5 	orr	w5, w5, w6
    b5f8:	b8247825 	str	w5, [x1, x4, lsl #2]
/home/build/bsp/optee_os/lib/libmbedtls/mbedtls/library/constant_time.c:374 (discriminator 3)
    b5fc:	91000484 	add	x4, x4, #0x1
    b600:	17fffff6 	b	b5d8 <mbedtls_ct_mpi_uint_cond_assign+0x10>

000000000000b604 <mbedtls_ct_base64_enc_char>:
mbedtls_ct_base64_enc_char():
/home/build/bsp/optee_os/lib/libmbedtls/mbedtls/library/constant_time.c:384
    b604:	a9bf7bfd 	stp	x29, x30, [sp, #-16]!
    b608:	12001c04 	and	w4, w0, #0xff
/home/build/bsp/optee_os/lib/libmbedtls/mbedtls/library/constant_time.c:389
    b60c:	2a0403e2 	mov	w2, w4
/home/build/bsp/optee_os/lib/libmbedtls/mbedtls/library/constant_time.c:384
    b610:	910003fd 	mov	x29, sp
/home/build/bsp/optee_os/lib/libmbedtls/mbedtls/library/constant_time.c:389
    b614:	52800321 	mov	w1, #0x19                  	// #25
    b618:	52800000 	mov	w0, #0x0                   	// #0
    b61c:	97ffffb5 	bl	b4f0 <mbedtls_ct_uchar_mask_of_range>
    b620:	12001c05 	and	w5, w0, #0xff
/home/build/bsp/optee_os/lib/libmbedtls/mbedtls/library/constant_time.c:390
    b624:	2a0403e2 	mov	w2, w4
    b628:	52800661 	mov	w1, #0x33                  	// #51
    b62c:	52800340 	mov	w0, #0x1a                  	// #26
    b630:	97ffffb0 	bl	b4f0 <mbedtls_ct_uchar_mask_of_range>
/home/build/bsp/optee_os/lib/libmbedtls/mbedtls/library/constant_time.c:389
    b634:	11010483 	add	w3, w4, #0x41
/home/build/bsp/optee_os/lib/libmbedtls/mbedtls/library/constant_time.c:390
    b638:	12001c01 	and	w1, w0, #0xff
    b63c:	11011c80 	add	w0, w4, #0x47
/home/build/bsp/optee_os/lib/libmbedtls/mbedtls/library/constant_time.c:389
    b640:	0a050063 	and	w3, w3, w5
/home/build/bsp/optee_os/lib/libmbedtls/mbedtls/library/constant_time.c:390
    b644:	0a010000 	and	w0, w0, w1
/home/build/bsp/optee_os/lib/libmbedtls/mbedtls/library/constant_time.c:391
    b648:	2a0403e2 	mov	w2, w4
/home/build/bsp/optee_os/lib/libmbedtls/mbedtls/library/constant_time.c:390
    b64c:	2a000063 	orr	w3, w3, w0
/home/build/bsp/optee_os/lib/libmbedtls/mbedtls/library/constant_time.c:391
    b650:	528007a1 	mov	w1, #0x3d                  	// #61
    b654:	52800680 	mov	w0, #0x34                  	// #52
    b658:	97ffffa6 	bl	b4f0 <mbedtls_ct_uchar_mask_of_range>
    b65c:	12001c01 	and	w1, w0, #0xff
    b660:	51001080 	sub	w0, w4, #0x4
    b664:	0a010000 	and	w0, w0, w1
/home/build/bsp/optee_os/lib/libmbedtls/mbedtls/library/constant_time.c:390
    b668:	13001c63 	sxtb	w3, w3
/home/build/bsp/optee_os/lib/libmbedtls/mbedtls/library/constant_time.c:392
    b66c:	2a0403e2 	mov	w2, w4
    b670:	528007c1 	mov	w1, #0x3e                  	// #62
/home/build/bsp/optee_os/lib/libmbedtls/mbedtls/library/constant_time.c:391
    b674:	2a000063 	orr	w3, w3, w0
/home/build/bsp/optee_os/lib/libmbedtls/mbedtls/library/constant_time.c:392
    b678:	2a0103e0 	mov	w0, w1
    b67c:	97ffff9d 	bl	b4f0 <mbedtls_ct_uchar_mask_of_range>
    b680:	12001c05 	and	w5, w0, #0xff
/home/build/bsp/optee_os/lib/libmbedtls/mbedtls/library/constant_time.c:393
    b684:	528007e1 	mov	w1, #0x3f                  	// #63
    b688:	2a0403e2 	mov	w2, w4
    b68c:	2a0103e0 	mov	w0, w1
    b690:	97ffff98 	bl	b4f0 <mbedtls_ct_uchar_mask_of_range>
    b694:	528005e1 	mov	w1, #0x2f                  	// #47
    b698:	0a000020 	and	w0, w1, w0
    b69c:	52800561 	mov	w1, #0x2b                  	// #43
    b6a0:	0a0100a5 	and	w5, w5, w1
/home/build/bsp/optee_os/lib/libmbedtls/mbedtls/library/constant_time.c:391
    b6a4:	13001c63 	sxtb	w3, w3
/home/build/bsp/optee_os/lib/libmbedtls/mbedtls/library/constant_time.c:393
    b6a8:	2a050000 	orr	w0, w0, w5
/home/build/bsp/optee_os/lib/libmbedtls/mbedtls/library/constant_time.c:395
    b6ac:	2a030000 	orr	w0, w0, w3
    b6b0:	a8c17bfd 	ldp	x29, x30, [sp], #16
    b6b4:	d65f03c0 	ret

000000000000b6b8 <mbedtls_ct_base64_dec_value>:
mbedtls_ct_base64_dec_value():
/home/build/bsp/optee_os/lib/libmbedtls/mbedtls/library/constant_time.c:398
    b6b8:	a9bf7bfd 	stp	x29, x30, [sp, #-16]!
    b6bc:	12001c04 	and	w4, w0, #0xff
/home/build/bsp/optee_os/lib/libmbedtls/mbedtls/library/constant_time.c:404
    b6c0:	2a0403e2 	mov	w2, w4
/home/build/bsp/optee_os/lib/libmbedtls/mbedtls/library/constant_time.c:398
    b6c4:	910003fd 	mov	x29, sp
/home/build/bsp/optee_os/lib/libmbedtls/mbedtls/library/constant_time.c:404
    b6c8:	52800b41 	mov	w1, #0x5a                  	// #90
    b6cc:	52800820 	mov	w0, #0x41                  	// #65
    b6d0:	97ffff88 	bl	b4f0 <mbedtls_ct_uchar_mask_of_range>
    b6d4:	12001c05 	and	w5, w0, #0xff
/home/build/bsp/optee_os/lib/libmbedtls/mbedtls/library/constant_time.c:405
    b6d8:	2a0403e2 	mov	w2, w4
    b6dc:	52800f41 	mov	w1, #0x7a                  	// #122
    b6e0:	52800c20 	mov	w0, #0x61                  	// #97
    b6e4:	97ffff83 	bl	b4f0 <mbedtls_ct_uchar_mask_of_range>
/home/build/bsp/optee_os/lib/libmbedtls/mbedtls/library/constant_time.c:404
    b6e8:	51010083 	sub	w3, w4, #0x40
/home/build/bsp/optee_os/lib/libmbedtls/mbedtls/library/constant_time.c:405
    b6ec:	12001c01 	and	w1, w0, #0xff
    b6f0:	51011880 	sub	w0, w4, #0x46
/home/build/bsp/optee_os/lib/libmbedtls/mbedtls/library/constant_time.c:404
    b6f4:	0a050063 	and	w3, w3, w5
/home/build/bsp/optee_os/lib/libmbedtls/mbedtls/library/constant_time.c:405
    b6f8:	0a010000 	and	w0, w0, w1
/home/build/bsp/optee_os/lib/libmbedtls/mbedtls/library/constant_time.c:406
    b6fc:	2a0403e2 	mov	w2, w4
    b700:	2a000063 	orr	w3, w3, w0
    b704:	52800721 	mov	w1, #0x39                  	// #57
    b708:	52800600 	mov	w0, #0x30                  	// #48
    b70c:	97ffff79 	bl	b4f0 <mbedtls_ct_uchar_mask_of_range>
/home/build/bsp/optee_os/lib/libmbedtls/mbedtls/library/constant_time.c:407
    b710:	2a0403e2 	mov	w2, w4
/home/build/bsp/optee_os/lib/libmbedtls/mbedtls/library/constant_time.c:406
    b714:	12001c05 	and	w5, w0, #0xff
/home/build/bsp/optee_os/lib/libmbedtls/mbedtls/library/constant_time.c:407
    b718:	52800561 	mov	w1, #0x2b                  	// #43
    b71c:	2a0103e0 	mov	w0, w1
    b720:	97ffff74 	bl	b4f0 <mbedtls_ct_uchar_mask_of_range>
    b724:	12001c02 	and	w2, w0, #0xff
    b728:	11005081 	add	w1, w4, #0x14
/home/build/bsp/optee_os/lib/libmbedtls/mbedtls/library/constant_time.c:406
    b72c:	11001480 	add	w0, w4, #0x5
/home/build/bsp/optee_os/lib/libmbedtls/mbedtls/library/constant_time.c:407
    b730:	0a020021 	and	w1, w1, w2
/home/build/bsp/optee_os/lib/libmbedtls/mbedtls/library/constant_time.c:406
    b734:	0a050000 	and	w0, w0, w5
    b738:	2a010000 	orr	w0, w0, w1
    b73c:	13001c63 	sxtb	w3, w3
/home/build/bsp/optee_os/lib/libmbedtls/mbedtls/library/constant_time.c:407
    b740:	2a000063 	orr	w3, w3, w0
/home/build/bsp/optee_os/lib/libmbedtls/mbedtls/library/constant_time.c:408
    b744:	2a0403e2 	mov	w2, w4
    b748:	528005e1 	mov	w1, #0x2f                  	// #47
    b74c:	11004484 	add	w4, w4, #0x11
    b750:	2a0103e0 	mov	w0, w1
    b754:	97ffff67 	bl	b4f0 <mbedtls_ct_uchar_mask_of_range>
    b758:	12001c00 	and	w0, w0, #0xff
    b75c:	13001c63 	sxtb	w3, w3
    b760:	0a000084 	and	w4, w4, w0
    b764:	2a040063 	orr	w3, w3, w4
/home/build/bsp/optee_os/lib/libmbedtls/mbedtls/library/constant_time.c:411
    b768:	51000460 	sub	w0, w3, #0x1
/home/build/bsp/optee_os/lib/libmbedtls/mbedtls/library/constant_time.c:412
    b76c:	a8c17bfd 	ldp	x29, x30, [sp], #16
    b770:	d65f03c0 	ret

000000000000b774 <mbedtls_mpi_safe_cond_assign>:
mbedtls_mpi_safe_cond_assign():
/home/build/bsp/optee_os/lib/libmbedtls/mbedtls/library/constant_time.c:747
    b774:	a9bc7bfd 	stp	x29, x30, [sp, #-64]!
    b778:	910003fd 	mov	x29, sp
    b77c:	a90153f3 	stp	x19, x20, [sp, #16]
    b780:	aa0103f4 	mov	x20, x1
    b784:	aa0003f3 	mov	x19, x0
    b788:	f9001bf7 	str	x23, [sp, #48]
    b78c:	12001c57 	and	w23, w2, #0xff
/home/build/bsp/optee_os/lib/libmbedtls/mbedtls/library/constant_time.c:753
    b790:	2a1703e0 	mov	w0, w23
/home/build/bsp/optee_os/lib/libmbedtls/mbedtls/library/constant_time.c:747
    b794:	a9025bf5 	stp	x21, x22, [sp, #32]
/home/build/bsp/optee_os/lib/libmbedtls/mbedtls/library/constant_time.c:753
    b798:	97ffff6f 	bl	b554 <mbedtls_ct_mpi_uint_mask>
/home/build/bsp/optee_os/lib/libmbedtls/mbedtls/library/constant_time.c:755
    b79c:	f9400681 	ldr	x1, [x20, #8]
/home/build/bsp/optee_os/lib/libmbedtls/mbedtls/library/constant_time.c:753
    b7a0:	2a0003f5 	mov	w21, w0
/home/build/bsp/optee_os/lib/libmbedtls/mbedtls/library/constant_time.c:755
    b7a4:	aa1303e0 	mov	x0, x19
    b7a8:	97ffee91 	bl	71ec <mbedtls_mpi_grow>
    b7ac:	2a0003f6 	mov	w22, w0
    b7b0:	35000260 	cbnz	w0, b7fc <mbedtls_mpi_safe_cond_assign+0x88>
mbedtls_ct_cond_select_sign():
/home/build/bsp/optee_os/lib/libmbedtls/mbedtls/library/constant_time.c:341 (discriminator 2)
    b7b4:	b9400260 	ldr	w0, [x19]
mbedtls_mpi_safe_cond_assign():
/home/build/bsp/optee_os/lib/libmbedtls/mbedtls/library/constant_time.c:759 (discriminator 2)
    b7b8:	2a1703e3 	mov	w3, w23
mbedtls_ct_cond_select_sign():
/home/build/bsp/optee_os/lib/libmbedtls/mbedtls/library/constant_time.c:340 (discriminator 2)
    b7bc:	b9400284 	ldr	w4, [x20]
mbedtls_mpi_safe_cond_assign():
/home/build/bsp/optee_os/lib/libmbedtls/mbedtls/library/constant_time.c:762 (discriminator 2)
    b7c0:	2a3503f5 	mvn	w21, w21
mbedtls_ct_cond_select_sign():
/home/build/bsp/optee_os/lib/libmbedtls/mbedtls/library/constant_time.c:341 (discriminator 2)
    b7c4:	11000400 	add	w0, w0, #0x1
/home/build/bsp/optee_os/lib/libmbedtls/mbedtls/library/constant_time.c:340 (discriminator 2)
    b7c8:	11000484 	add	w4, w4, #0x1
/home/build/bsp/optee_os/lib/libmbedtls/mbedtls/library/constant_time.c:350 (discriminator 2)
    b7cc:	4a000084 	eor	w4, w4, w0
mbedtls_mpi_safe_cond_assign():
/home/build/bsp/optee_os/lib/libmbedtls/mbedtls/library/constant_time.c:759 (discriminator 2)
    b7d0:	a9408682 	ldp	x2, x1, [x20, #8]
mbedtls_ct_cond_select_sign():
/home/build/bsp/optee_os/lib/libmbedtls/mbedtls/library/constant_time.c:350 (discriminator 2)
    b7d4:	0a170484 	and	w4, w4, w23, lsl #1
    b7d8:	4a000084 	eor	w4, w4, w0
mbedtls_mpi_safe_cond_assign():
/home/build/bsp/optee_os/lib/libmbedtls/mbedtls/library/constant_time.c:759 (discriminator 2)
    b7dc:	f9400a60 	ldr	x0, [x19, #16]
mbedtls_ct_cond_select_sign():
/home/build/bsp/optee_os/lib/libmbedtls/mbedtls/library/constant_time.c:350 (discriminator 2)
    b7e0:	51000484 	sub	w4, w4, #0x1
mbedtls_mpi_safe_cond_assign():
/home/build/bsp/optee_os/lib/libmbedtls/mbedtls/library/constant_time.c:757 (discriminator 2)
    b7e4:	b9000264 	str	w4, [x19]
/home/build/bsp/optee_os/lib/libmbedtls/mbedtls/library/constant_time.c:759 (discriminator 2)
    b7e8:	97fffbeb 	bl	a794 <mbedtls_mpi_core_cond_assign>
/home/build/bsp/optee_os/lib/libmbedtls/mbedtls/library/constant_time.c:761 (discriminator 2)
    b7ec:	f9400664 	ldr	x4, [x19, #8]
    b7f0:	f9400680 	ldr	x0, [x20, #8]
/home/build/bsp/optee_os/lib/libmbedtls/mbedtls/library/constant_time.c:761 (discriminator 1)
    b7f4:	eb00009f 	cmp	x4, x0
    b7f8:	540000e8 	b.hi	b814 <mbedtls_mpi_safe_cond_assign+0xa0>  // b.pmore
/home/build/bsp/optee_os/lib/libmbedtls/mbedtls/library/constant_time.c:767
    b7fc:	2a1603e0 	mov	w0, w22
    b800:	a94153f3 	ldp	x19, x20, [sp, #16]
    b804:	a9425bf5 	ldp	x21, x22, [sp, #32]
    b808:	f9401bf7 	ldr	x23, [sp, #48]
    b80c:	a8c47bfd 	ldp	x29, x30, [sp], #64
    b810:	d65f03c0 	ret
/home/build/bsp/optee_os/lib/libmbedtls/mbedtls/library/constant_time.c:762 (discriminator 3)
    b814:	f9400a63 	ldr	x3, [x19, #16]
    b818:	d37ef402 	lsl	x2, x0, #2
/home/build/bsp/optee_os/lib/libmbedtls/mbedtls/library/constant_time.c:761 (discriminator 3)
    b81c:	91000400 	add	x0, x0, #0x1
/home/build/bsp/optee_os/lib/libmbedtls/mbedtls/library/constant_time.c:762 (discriminator 3)
    b820:	b8626861 	ldr	w1, [x3, x2]
    b824:	0a150021 	and	w1, w1, w21
    b828:	b8226861 	str	w1, [x3, x2]
/home/build/bsp/optee_os/lib/libmbedtls/mbedtls/library/constant_time.c:761 (discriminator 3)
    b82c:	17fffff2 	b	b7f4 <mbedtls_mpi_safe_cond_assign+0x80>

000000000000b830 <mbedtls_mpi_safe_cond_swap>:
mbedtls_mpi_safe_cond_swap():
/home/build/bsp/optee_os/lib/libmbedtls/mbedtls/library/constant_time.c:778
    b830:	a9bd7bfd 	stp	x29, x30, [sp, #-48]!
    b834:	910003fd 	mov	x29, sp
    b838:	a90153f3 	stp	x19, x20, [sp, #16]
    b83c:	a9025bf5 	stp	x21, x22, [sp, #32]
/home/build/bsp/optee_os/lib/libmbedtls/mbedtls/library/constant_time.c:784
    b840:	eb01001f 	cmp	x0, x1
    b844:	540004e0 	b.eq	b8e0 <mbedtls_mpi_safe_cond_swap+0xb0>  // b.none
    b848:	aa0103f4 	mov	x20, x1
    b84c:	aa0003f5 	mov	x21, x0
/home/build/bsp/optee_os/lib/libmbedtls/mbedtls/library/constant_time.c:788
    b850:	f9400421 	ldr	x1, [x1, #8]
    b854:	12001c56 	and	w22, w2, #0xff
    b858:	97ffee65 	bl	71ec <mbedtls_mpi_grow>
    b85c:	2a0003f3 	mov	w19, w0
    b860:	35000360 	cbnz	w0, b8cc <mbedtls_mpi_safe_cond_swap+0x9c>
/home/build/bsp/optee_os/lib/libmbedtls/mbedtls/library/constant_time.c:789 (discriminator 2)
    b864:	f94006a1 	ldr	x1, [x21, #8]
    b868:	aa1403e0 	mov	x0, x20
    b86c:	97ffee60 	bl	71ec <mbedtls_mpi_grow>
    b870:	2a0003f3 	mov	w19, w0
    b874:	350002c0 	cbnz	w0, b8cc <mbedtls_mpi_safe_cond_swap+0x9c>
mbedtls_ct_cond_select_sign():
/home/build/bsp/optee_os/lib/libmbedtls/mbedtls/library/constant_time.c:340 (discriminator 2)
    b878:	b9400285 	ldr	w5, [x20]
mbedtls_mpi_safe_cond_swap():
/home/build/bsp/optee_os/lib/libmbedtls/mbedtls/library/constant_time.c:795 (discriminator 2)
    b87c:	2a1603e3 	mov	w3, w22
mbedtls_ct_cond_select_sign():
/home/build/bsp/optee_os/lib/libmbedtls/mbedtls/library/constant_time.c:341 (discriminator 2)
    b880:	b94002a4 	ldr	w4, [x21]
/home/build/bsp/optee_os/lib/libmbedtls/mbedtls/library/constant_time.c:340 (discriminator 2)
    b884:	110004a5 	add	w5, w5, #0x1
/home/build/bsp/optee_os/lib/libmbedtls/mbedtls/library/constant_time.c:341 (discriminator 2)
    b888:	11000484 	add	w4, w4, #0x1
/home/build/bsp/optee_os/lib/libmbedtls/mbedtls/library/constant_time.c:350 (discriminator 2)
    b88c:	4a0400a5 	eor	w5, w5, w4
    b890:	0a1604a5 	and	w5, w5, w22, lsl #1
    b894:	4a0400a5 	eor	w5, w5, w4
    b898:	510004a5 	sub	w5, w5, #0x1
mbedtls_mpi_safe_cond_swap():
/home/build/bsp/optee_os/lib/libmbedtls/mbedtls/library/constant_time.c:795 (discriminator 2)
    b89c:	f9400a81 	ldr	x1, [x20, #16]
/home/build/bsp/optee_os/lib/libmbedtls/mbedtls/library/constant_time.c:792 (discriminator 2)
    b8a0:	b90002a5 	str	w5, [x21]
/home/build/bsp/optee_os/lib/libmbedtls/mbedtls/library/constant_time.c:795 (discriminator 2)
    b8a4:	f94006a2 	ldr	x2, [x21, #8]
mbedtls_ct_cond_select_sign():
/home/build/bsp/optee_os/lib/libmbedtls/mbedtls/library/constant_time.c:341 (discriminator 2)
    b8a8:	b9400280 	ldr	w0, [x20]
    b8ac:	11000400 	add	w0, w0, #0x1
/home/build/bsp/optee_os/lib/libmbedtls/mbedtls/library/constant_time.c:350 (discriminator 2)
    b8b0:	4a040004 	eor	w4, w0, w4
    b8b4:	0a160484 	and	w4, w4, w22, lsl #1
    b8b8:	4a000084 	eor	w4, w4, w0
mbedtls_mpi_safe_cond_swap():
/home/build/bsp/optee_os/lib/libmbedtls/mbedtls/library/constant_time.c:795 (discriminator 2)
    b8bc:	f9400aa0 	ldr	x0, [x21, #16]
mbedtls_ct_cond_select_sign():
/home/build/bsp/optee_os/lib/libmbedtls/mbedtls/library/constant_time.c:350 (discriminator 2)
    b8c0:	51000484 	sub	w4, w4, #0x1
mbedtls_mpi_safe_cond_swap():
/home/build/bsp/optee_os/lib/libmbedtls/mbedtls/library/constant_time.c:793 (discriminator 2)
    b8c4:	b9000284 	str	w4, [x20]
/home/build/bsp/optee_os/lib/libmbedtls/mbedtls/library/constant_time.c:795 (discriminator 2)
    b8c8:	97fffbbc 	bl	a7b8 <mbedtls_mpi_core_cond_swap>
/home/build/bsp/optee_os/lib/libmbedtls/mbedtls/library/constant_time.c:799
    b8cc:	2a1303e0 	mov	w0, w19
    b8d0:	a94153f3 	ldp	x19, x20, [sp, #16]
    b8d4:	a9425bf5 	ldp	x21, x22, [sp, #32]
    b8d8:	a8c37bfd 	ldp	x29, x30, [sp], #48
    b8dc:	d65f03c0 	ret
/home/build/bsp/optee_os/lib/libmbedtls/mbedtls/library/constant_time.c:785
    b8e0:	52800013 	mov	w19, #0x0                   	// #0
    b8e4:	17fffffa 	b	b8cc <mbedtls_mpi_safe_cond_swap+0x9c>

000000000000b8e8 <mbedtls_mpi_core_lt_ct>:
mbedtls_mpi_core_lt_ct():
/home/build/bsp/optee_os/lib/libmbedtls/mbedtls/library/constant_time.c:807
    b8e8:	a9bc7bfd 	stp	x29, x30, [sp, #-64]!
    b8ec:	910003fd 	mov	x29, sp
    b8f0:	a90153f3 	stp	x19, x20, [sp, #16]
    b8f4:	d1000453 	sub	x19, x2, #0x1
/home/build/bsp/optee_os/lib/libmbedtls/mbedtls/library/constant_time.c:812
    b8f8:	52800014 	mov	w20, #0x0                   	// #0
/home/build/bsp/optee_os/lib/libmbedtls/mbedtls/library/constant_time.c:807
    b8fc:	a9025bf5 	stp	x21, x22, [sp, #32]
    b900:	aa0003f5 	mov	x21, x0
    b904:	aa0103f6 	mov	x22, x1
    b908:	a90363f7 	stp	x23, x24, [sp, #48]
/home/build/bsp/optee_os/lib/libmbedtls/mbedtls/library/constant_time.c:812
    b90c:	52800017 	mov	w23, #0x0                   	// #0
/home/build/bsp/optee_os/lib/libmbedtls/mbedtls/library/constant_time.c:832
    b910:	52800038 	mov	w24, #0x1                   	// #1
/home/build/bsp/optee_os/lib/libmbedtls/mbedtls/library/constant_time.c:814 (discriminator 1)
    b914:	b100067f 	cmn	x19, #0x1
    b918:	540000e1 	b.ne	b934 <mbedtls_mpi_core_lt_ct+0x4c>  // b.any
/home/build/bsp/optee_os/lib/libmbedtls/mbedtls/library/constant_time.c:842
    b91c:	2a1703e0 	mov	w0, w23
    b920:	a94153f3 	ldp	x19, x20, [sp, #16]
    b924:	a9425bf5 	ldp	x21, x22, [sp, #32]
    b928:	a94363f7 	ldp	x23, x24, [sp, #48]
    b92c:	a8c47bfd 	ldp	x29, x30, [sp], #64
    b930:	d65f03c0 	ret
/home/build/bsp/optee_os/lib/libmbedtls/mbedtls/library/constant_time.c:822 (discriminator 3)
    b934:	b8737aa1 	ldr	w1, [x21, x19, lsl #2]
    b938:	b8737ac0 	ldr	w0, [x22, x19, lsl #2]
    b93c:	97ffff10 	bl	b57c <mbedtls_ct_mpi_uint_lt>
/home/build/bsp/optee_os/lib/libmbedtls/mbedtls/library/constant_time.c:823 (discriminator 3)
    b940:	2a000294 	orr	w20, w20, w0
/home/build/bsp/optee_os/lib/libmbedtls/mbedtls/library/constant_time.c:831 (discriminator 3)
    b944:	b8737ac1 	ldr	w1, [x22, x19, lsl #2]
    b948:	b8737aa0 	ldr	w0, [x21, x19, lsl #2]
    b94c:	d1000673 	sub	x19, x19, #0x1
    b950:	97ffff0b 	bl	b57c <mbedtls_ct_mpi_uint_lt>
/home/build/bsp/optee_os/lib/libmbedtls/mbedtls/library/constant_time.c:832 (discriminator 3)
    b954:	4b140301 	sub	w1, w24, w20
/home/build/bsp/optee_os/lib/libmbedtls/mbedtls/library/constant_time.c:833 (discriminator 3)
    b958:	2a000294 	orr	w20, w20, w0
/home/build/bsp/optee_os/lib/libmbedtls/mbedtls/library/constant_time.c:832 (discriminator 3)
    b95c:	0a000021 	and	w1, w1, w0
    b960:	2a0102f7 	orr	w23, w23, w1
/home/build/bsp/optee_os/lib/libmbedtls/mbedtls/library/constant_time.c:814 (discriminator 3)
    b964:	17ffffec 	b	b914 <mbedtls_mpi_core_lt_ct+0x2c>

000000000000b968 <mbedtls_mpi_lt_mpi_ct>:
mbedtls_mpi_lt_mpi_ct():
/home/build/bsp/optee_os/lib/libmbedtls/mbedtls/library/constant_time.c:850
    b968:	a9ba7bfd 	stp	x29, x30, [sp, #-96]!
    b96c:	910003fd 	mov	x29, sp
    b970:	a90153f3 	stp	x19, x20, [sp, #16]
    b974:	a90363f7 	stp	x23, x24, [sp, #48]
    b978:	aa0003f7 	mov	x23, x0
/home/build/bsp/optee_os/lib/libmbedtls/mbedtls/library/constant_time.c:859
    b97c:	f9400413 	ldr	x19, [x0, #8]
/home/build/bsp/optee_os/lib/libmbedtls/mbedtls/library/constant_time.c:850
    b980:	a9025bf5 	stp	x21, x22, [sp, #32]
/home/build/bsp/optee_os/lib/libmbedtls/mbedtls/library/constant_time.c:859
    b984:	f9400420 	ldr	x0, [x1, #8]
/home/build/bsp/optee_os/lib/libmbedtls/mbedtls/library/constant_time.c:850
    b988:	a9046bf9 	stp	x25, x26, [sp, #64]
    b98c:	f9002bfb 	str	x27, [sp, #80]
/home/build/bsp/optee_os/lib/libmbedtls/mbedtls/library/constant_time.c:859
    b990:	eb00027f 	cmp	x19, x0
    b994:	54000621 	b.ne	ba58 <mbedtls_mpi_lt_mpi_ct+0xf0>  // b.any
/home/build/bsp/optee_os/lib/libmbedtls/mbedtls/library/constant_time.c:867
    b998:	b94002e3 	ldr	w3, [x23]
/home/build/bsp/optee_os/lib/libmbedtls/mbedtls/library/constant_time.c:893
    b99c:	5280003a 	mov	w26, #0x1                   	// #1
/home/build/bsp/optee_os/lib/libmbedtls/mbedtls/library/constant_time.c:868
    b9a0:	b9400020 	ldr	w0, [x1]
    b9a4:	aa0103f8 	mov	x24, x1
    b9a8:	aa0203f6 	mov	x22, x2
/home/build/bsp/optee_os/lib/libmbedtls/mbedtls/library/constant_time.c:867
    b9ac:	d1000673 	sub	x19, x19, #0x1
    b9b0:	d3410479 	ubfx	x25, x3, #1, #1
/home/build/bsp/optee_os/lib/libmbedtls/mbedtls/library/constant_time.c:875
    b9b4:	ca000063 	eor	x3, x3, x0
/home/build/bsp/optee_os/lib/libmbedtls/mbedtls/library/constant_time.c:904
    b9b8:	4b19035b 	sub	w27, w26, w25
/home/build/bsp/optee_os/lib/libmbedtls/mbedtls/library/constant_time.c:875
    b9bc:	d3410474 	ubfx	x20, x3, #1, #1
/home/build/bsp/optee_os/lib/libmbedtls/mbedtls/library/constant_time.c:876
    b9c0:	0a430723 	and	w3, w25, w3, lsr #1
/home/build/bsp/optee_os/lib/libmbedtls/mbedtls/library/constant_time.c:876 (discriminator 1)
    b9c4:	b90002c3 	str	w3, [x22]
/home/build/bsp/optee_os/lib/libmbedtls/mbedtls/library/constant_time.c:884 (discriminator 1)
    b9c8:	b100067f 	cmn	x19, #0x1
    b9cc:	54000121 	b.ne	b9f0 <mbedtls_mpi_lt_mpi_ct+0x88>  // b.any
/home/build/bsp/optee_os/lib/libmbedtls/mbedtls/library/constant_time.c:908
    b9d0:	52800000 	mov	w0, #0x0                   	// #0
/home/build/bsp/optee_os/lib/libmbedtls/mbedtls/library/constant_time.c:909
    b9d4:	a94153f3 	ldp	x19, x20, [sp, #16]
    b9d8:	a9425bf5 	ldp	x21, x22, [sp, #32]
    b9dc:	a94363f7 	ldp	x23, x24, [sp, #48]
    b9e0:	a9446bf9 	ldp	x25, x26, [sp, #64]
    b9e4:	f9402bfb 	ldr	x27, [sp, #80]
    b9e8:	a8c67bfd 	ldp	x29, x30, [sp], #96
    b9ec:	d65f03c0 	ret
/home/build/bsp/optee_os/lib/libmbedtls/mbedtls/library/constant_time.c:892 (discriminator 3)
    b9f0:	f9400ae1 	ldr	x1, [x23, #16]
    b9f4:	d37ef675 	lsl	x21, x19, #2
    b9f8:	f9400b00 	ldr	x0, [x24, #16]
    b9fc:	d1000673 	sub	x19, x19, #0x1
    ba00:	b8756821 	ldr	w1, [x1, x21]
    ba04:	b8756800 	ldr	w0, [x0, x21]
    ba08:	97fffedd 	bl	b57c <mbedtls_ct_mpi_uint_lt>
/home/build/bsp/optee_os/lib/libmbedtls/mbedtls/library/constant_time.c:893 (discriminator 3)
    ba0c:	4b140343 	sub	w3, w26, w20
    ba10:	b94002c4 	ldr	w4, [x22]
    ba14:	0a190063 	and	w3, w3, w25
/home/build/bsp/optee_os/lib/libmbedtls/mbedtls/library/constant_time.c:894 (discriminator 3)
    ba18:	2a000294 	orr	w20, w20, w0
/home/build/bsp/optee_os/lib/libmbedtls/mbedtls/library/constant_time.c:893 (discriminator 3)
    ba1c:	0a000063 	and	w3, w3, w0
/home/build/bsp/optee_os/lib/libmbedtls/mbedtls/library/constant_time.c:903 (discriminator 3)
    ba20:	f9400b01 	ldr	x1, [x24, #16]
/home/build/bsp/optee_os/lib/libmbedtls/mbedtls/library/constant_time.c:893 (discriminator 3)
    ba24:	2a030083 	orr	w3, w4, w3
/home/build/bsp/optee_os/lib/libmbedtls/mbedtls/library/constant_time.c:903 (discriminator 3)
    ba28:	f9400ae0 	ldr	x0, [x23, #16]
/home/build/bsp/optee_os/lib/libmbedtls/mbedtls/library/constant_time.c:893 (discriminator 3)
    ba2c:	b90002c3 	str	w3, [x22]
/home/build/bsp/optee_os/lib/libmbedtls/mbedtls/library/constant_time.c:903 (discriminator 3)
    ba30:	b8756821 	ldr	w1, [x1, x21]
    ba34:	b8756800 	ldr	w0, [x0, x21]
    ba38:	97fffed1 	bl	b57c <mbedtls_ct_mpi_uint_lt>
/home/build/bsp/optee_os/lib/libmbedtls/mbedtls/library/constant_time.c:904 (discriminator 3)
    ba3c:	0a000363 	and	w3, w27, w0
    ba40:	4b140341 	sub	w1, w26, w20
/home/build/bsp/optee_os/lib/libmbedtls/mbedtls/library/constant_time.c:905 (discriminator 3)
    ba44:	2a000294 	orr	w20, w20, w0
/home/build/bsp/optee_os/lib/libmbedtls/mbedtls/library/constant_time.c:904 (discriminator 3)
    ba48:	0a010063 	and	w3, w3, w1
    ba4c:	b94002c1 	ldr	w1, [x22]
    ba50:	2a010063 	orr	w3, w3, w1
/home/build/bsp/optee_os/lib/libmbedtls/mbedtls/library/constant_time.c:884 (discriminator 3)
    ba54:	17ffffdc 	b	b9c4 <mbedtls_mpi_lt_mpi_ct+0x5c>
/home/build/bsp/optee_os/lib/libmbedtls/mbedtls/library/constant_time.c:860
    ba58:	12800060 	mov	w0, #0xfffffffc            	// #-4
    ba5c:	17ffffde 	b	b9d4 <mbedtls_mpi_lt_mpi_ct+0x6c>

000000000000ba60 <mbedtls_ct_rsaes_pkcs1_v15_unpadding>:
mbedtls_ct_rsaes_pkcs1_v15_unpadding():
/home/build/bsp/optee_os/lib/libmbedtls/mbedtls/library/constant_time.c:920
    ba60:	a9b87bfd 	stp	x29, x30, [sp, #-128]!
    ba64:	910003fd 	mov	x29, sp
    ba68:	a90153f3 	stp	x19, x20, [sp, #16]
    ba6c:	aa0003f3 	mov	x19, x0
/home/build/bsp/optee_os/lib/libmbedtls/mbedtls/library/constant_time.c:940
    ba70:	d1002c34 	sub	x20, x1, #0xb
/home/build/bsp/optee_os/lib/libmbedtls/mbedtls/library/constant_time.c:920
    ba74:	a9025bf5 	stp	x21, x22, [sp, #32]
/home/build/bsp/optee_os/lib/libmbedtls/mbedtls/library/constant_time.c:940
    ba78:	eb03029f 	cmp	x20, x3
/home/build/bsp/optee_os/lib/libmbedtls/mbedtls/library/constant_time.c:920
    ba7c:	aa0103f5 	mov	x21, x1
    ba80:	a90363f7 	stp	x23, x24, [sp, #48]
/home/build/bsp/optee_os/lib/libmbedtls/mbedtls/library/constant_time.c:940
    ba84:	9a839294 	csel	x20, x20, x3, ls  // ls = plast
/home/build/bsp/optee_os/lib/libmbedtls/mbedtls/library/constant_time.c:920
    ba88:	aa0303f7 	mov	x23, x3
    ba8c:	a9046bf9 	stp	x25, x26, [sp, #64]
    ba90:	aa0203f9 	mov	x25, x2
/home/build/bsp/optee_os/lib/libmbedtls/mbedtls/library/constant_time.c:934
    ba94:	d280001a 	mov	x26, #0x0                   	// #0
/home/build/bsp/optee_os/lib/libmbedtls/mbedtls/library/constant_time.c:920
    ba98:	a90573fb 	stp	x27, x28, [sp, #80]
/home/build/bsp/optee_os/lib/libmbedtls/mbedtls/library/constant_time.c:954
    ba9c:	d2800042 	mov	x2, #0x2                   	// #2
/home/build/bsp/optee_os/lib/libmbedtls/mbedtls/library/constant_time.c:950
    baa0:	39400416 	ldrb	w22, [x0, #1]
    baa4:	39400000 	ldrb	w0, [x0]
    baa8:	521f02d6 	eor	w22, w22, #0x2
/home/build/bsp/optee_os/lib/libmbedtls/mbedtls/library/constant_time.c:920
    baac:	f90037e4 	str	x4, [sp, #104]
/home/build/bsp/optee_os/lib/libmbedtls/mbedtls/library/constant_time.c:950
    bab0:	2a0002d6 	orr	w22, w22, w0
/home/build/bsp/optee_os/lib/libmbedtls/mbedtls/library/constant_time.c:936
    bab4:	52800000 	mov	w0, #0x0                   	// #0
/home/build/bsp/optee_os/lib/libmbedtls/mbedtls/library/constant_time.c:950
    bab8:	12001ed6 	and	w22, w22, #0xff
/home/build/bsp/optee_os/lib/libmbedtls/mbedtls/library/constant_time.c:954 (discriminator 1)
    babc:	eb15005f 	cmp	x2, x21
    bac0:	54000903 	b.cc	bbe0 <mbedtls_ct_rsaes_pkcs1_v15_unpadding+0x180>  // b.lo, b.ul, b.last
/home/build/bsp/optee_os/lib/libmbedtls/mbedtls/library/constant_time.c:961
    bac4:	52800022 	mov	w2, #0x1                   	// #1
    bac8:	52800001 	mov	w1, #0x0                   	// #0
    bacc:	97fffeb3 	bl	b598 <mbedtls_ct_uint_if>
mbedtls_ct_size_gt():
/home/build/bsp/optee_os/lib/libmbedtls/mbedtls/library/constant_time.c:272
    bad0:	d1002341 	sub	x1, x26, #0x8
mbedtls_ct_rsaes_pkcs1_v15_unpadding():
/home/build/bsp/optee_os/lib/libmbedtls/mbedtls/library/constant_time.c:973
    bad4:	51000ea2 	sub	w2, w21, #0x3
    bad8:	4b1a0042 	sub	w2, w2, w26
mbedtls_ct_size_gt():
/home/build/bsp/optee_os/lib/libmbedtls/mbedtls/library/constant_time.c:272
    badc:	d37ffc21 	lsr	x1, x1, #63
    bae0:	2a0102d6 	orr	w22, w22, w1
mbedtls_ct_rsaes_pkcs1_v15_unpadding():
/home/build/bsp/optee_os/lib/libmbedtls/mbedtls/library/constant_time.c:973
    bae4:	2a1403e1 	mov	w1, w20
/home/build/bsp/optee_os/lib/libmbedtls/mbedtls/library/constant_time.c:964
    bae8:	2a16001b 	orr	w27, w0, w22
/home/build/bsp/optee_os/lib/libmbedtls/mbedtls/library/constant_time.c:973
    baec:	2a1b03e0 	mov	w0, w27
    baf0:	97fffeaa 	bl	b598 <mbedtls_ct_uint_if>
mbedtls_ct_size_gt():
/home/build/bsp/optee_os/lib/libmbedtls/mbedtls/library/constant_time.c:272
    baf4:	cb204296 	sub	x22, x20, w0, uxtw
mbedtls_ct_rsaes_pkcs1_v15_unpadding():
/home/build/bsp/optee_os/lib/libmbedtls/mbedtls/library/constant_time.c:987
    baf8:	52800002 	mov	w2, #0x0                   	// #0
    bafc:	52888001 	mov	w1, #0x4400                	// #17408
/home/build/bsp/optee_os/lib/libmbedtls/mbedtls/library/constant_time.c:973
    bb00:	2a0003fc 	mov	w28, w0
mbedtls_ct_size_gt():
/home/build/bsp/optee_os/lib/libmbedtls/mbedtls/library/constant_time.c:272
    bb04:	d37ffed6 	lsr	x22, x22, #63
mbedtls_ct_rsaes_pkcs1_v15_unpadding():
/home/build/bsp/optee_os/lib/libmbedtls/mbedtls/library/constant_time.c:987
    bb08:	2a1603e0 	mov	w0, w22
    bb0c:	97fffea3 	bl	b598 <mbedtls_ct_uint_if>
    bb10:	2a0003e2 	mov	w2, w0
    bb14:	52882001 	mov	w1, #0x4100                	// #16640
    bb18:	2a1b03e0 	mov	w0, w27
    bb1c:	97fffe9f 	bl	b598 <mbedtls_ct_uint_if>
    bb20:	4b0003fa 	neg	w26, w0
/home/build/bsp/optee_os/lib/libmbedtls/mbedtls/library/constant_time.c:999
    bb24:	2a160360 	orr	w0, w27, w22
    bb28:	97fffe87 	bl	b544 <mbedtls_ct_uint_mask>
/home/build/bsp/optee_os/lib/libmbedtls/mbedtls/library/constant_time.c:1001
    bb2c:	2a2003e0 	mvn	w0, w0
/home/build/bsp/optee_os/lib/libmbedtls/mbedtls/library/constant_time.c:1000
    bb30:	d2800161 	mov	x1, #0xb                   	// #11
/home/build/bsp/optee_os/lib/libmbedtls/mbedtls/library/constant_time.c:1000 (discriminator 1)
    bb34:	eb15003f 	cmp	x1, x21
    bb38:	540006e3 	b.cc	bc14 <mbedtls_ct_rsaes_pkcs1_v15_unpadding+0x1b4>  // b.lo, b.ul, b.last
/home/build/bsp/optee_os/lib/libmbedtls/mbedtls/library/constant_time.c:1018
    bb3c:	cb1402b5 	sub	x21, x21, x20
/home/build/bsp/optee_os/lib/libmbedtls/mbedtls/library/constant_time.c:1008
    bb40:	2a1603e0 	mov	w0, w22
    bb44:	2a1c03e2 	mov	w2, w28
    bb48:	2a1403e1 	mov	w1, w20
/home/build/bsp/optee_os/lib/libmbedtls/mbedtls/library/constant_time.c:1018
    bb4c:	8b150273 	add	x19, x19, x21
/home/build/bsp/optee_os/lib/libmbedtls/mbedtls/library/constant_time.c:1008
    bb50:	97fffe92 	bl	b598 <mbedtls_ct_uint_if>
    bb54:	2a0003f6 	mov	w22, w0
mbedtls_ct_mem_move_to_left():
/home/build/bsp/optee_os/lib/libmbedtls/mbedtls/library/constant_time.c:440
    bb58:	b4000274 	cbz	x20, bba4 <mbedtls_ct_rsaes_pkcs1_v15_unpadding+0x144>
/home/build/bsp/optee_os/lib/libmbedtls/mbedtls/library/constant_time.c:448
    bb5c:	d1000698 	sub	x24, x20, #0x1
/home/build/bsp/optee_os/lib/libmbedtls/mbedtls/library/constant_time.c:443
    bb60:	d280001b 	mov	x27, #0x0                   	// #0
mbedtls_ct_size_gt():
/home/build/bsp/optee_os/lib/libmbedtls/mbedtls/library/constant_time.c:272
    bb64:	cb16037c 	sub	x28, x27, x22
mbedtls_ct_mem_move_to_left():
/home/build/bsp/optee_os/lib/libmbedtls/mbedtls/library/constant_time.c:448
    bb68:	d2800015 	mov	x21, #0x0                   	// #0
mbedtls_ct_size_gt():
/home/build/bsp/optee_os/lib/libmbedtls/mbedtls/library/constant_time.c:272
    bb6c:	d37fff9c 	lsr	x28, x28, #63
    bb70:	2a1c03e4 	mov	w4, w28
mbedtls_ct_mem_move_to_left():
/home/build/bsp/optee_os/lib/libmbedtls/mbedtls/library/constant_time.c:448
    bb74:	eb1802bf 	cmp	x21, x24
    bb78:	54000583 	b.cc	bc28 <mbedtls_ct_rsaes_pkcs1_v15_unpadding+0x1c8>  // b.lo, b.ul, b.last
/home/build/bsp/optee_os/lib/libmbedtls/mbedtls/library/constant_time.c:453
    bb7c:	38786a61 	ldrb	w1, [x19, x24]
    bb80:	2a1c03e0 	mov	w0, w28
    bb84:	52800002 	mov	w2, #0x0                   	// #0
/home/build/bsp/optee_os/lib/libmbedtls/mbedtls/library/constant_time.c:443
    bb88:	9100077b 	add	x27, x27, #0x1
/home/build/bsp/optee_os/lib/libmbedtls/mbedtls/library/constant_time.c:453
    bb8c:	12001c21 	and	w1, w1, #0xff
    bb90:	97fffe82 	bl	b598 <mbedtls_ct_uint_if>
    bb94:	12001c00 	and	w0, w0, #0xff
    bb98:	38386a60 	strb	w0, [x19, x24]
/home/build/bsp/optee_os/lib/libmbedtls/mbedtls/library/constant_time.c:443
    bb9c:	eb1b029f 	cmp	x20, x27
    bba0:	54fffe21 	b.ne	bb64 <mbedtls_ct_rsaes_pkcs1_v15_unpadding+0x104>  // b.any
mbedtls_ct_rsaes_pkcs1_v15_unpadding():
/home/build/bsp/optee_os/lib/libmbedtls/mbedtls/library/constant_time.c:1029
    bba4:	b40000b7 	cbz	x23, bbb8 <mbedtls_ct_rsaes_pkcs1_v15_unpadding+0x158>
/home/build/bsp/optee_os/lib/libmbedtls/mbedtls/library/constant_time.c:1030
    bba8:	aa1403e2 	mov	x2, x20
    bbac:	aa1303e1 	mov	x1, x19
    bbb0:	aa1903e0 	mov	x0, x25
    bbb4:	97ffd113 	bl	0 <memcpy>
/home/build/bsp/optee_os/lib/libmbedtls/mbedtls/library/constant_time.c:1037
    bbb8:	f94037e0 	ldr	x0, [sp, #104]
/home/build/bsp/optee_os/lib/libmbedtls/mbedtls/library/constant_time.c:1040
    bbbc:	a94153f3 	ldp	x19, x20, [sp, #16]
    bbc0:	a94363f7 	ldp	x23, x24, [sp, #48]
    bbc4:	a94573fb 	ldp	x27, x28, [sp, #80]
/home/build/bsp/optee_os/lib/libmbedtls/mbedtls/library/constant_time.c:1037
    bbc8:	f9000016 	str	x22, [x0]
/home/build/bsp/optee_os/lib/libmbedtls/mbedtls/library/constant_time.c:1040
    bbcc:	2a1a03e0 	mov	w0, w26
    bbd0:	a9425bf5 	ldp	x21, x22, [sp, #32]
    bbd4:	a9446bf9 	ldp	x25, x26, [sp, #64]
    bbd8:	a8c87bfd 	ldp	x29, x30, [sp], #128
    bbdc:	d65f03c0 	ret
/home/build/bsp/optee_os/lib/libmbedtls/mbedtls/library/constant_time.c:955 (discriminator 3)
    bbe0:	38626a61 	ldrb	w1, [x19, x2]
/home/build/bsp/optee_os/lib/libmbedtls/mbedtls/library/constant_time.c:954 (discriminator 3)
    bbe4:	91000442 	add	x2, x2, #0x1
/home/build/bsp/optee_os/lib/libmbedtls/mbedtls/library/constant_time.c:955 (discriminator 3)
    bbe8:	4b0103e3 	neg	w3, w1
    bbec:	2a030021 	orr	w1, w1, w3
    bbf0:	d3471c21 	ubfx	x1, x1, #7, #1
    bbf4:	52000021 	eor	w1, w1, #0x1
    bbf8:	2a010000 	orr	w0, w0, w1
/home/build/bsp/optee_os/lib/libmbedtls/mbedtls/library/constant_time.c:956 (discriminator 3)
    bbfc:	4b0003e1 	neg	w1, w0
    bc00:	2a010001 	orr	w1, w0, w1
    bc04:	d2790021 	eor	x1, x1, #0x80
    bc08:	d3471c21 	ubfx	x1, x1, #7, #1
    bc0c:	8b01035a 	add	x26, x26, x1
/home/build/bsp/optee_os/lib/libmbedtls/mbedtls/library/constant_time.c:954 (discriminator 3)
    bc10:	17ffffab 	b	babc <mbedtls_ct_rsaes_pkcs1_v15_unpadding+0x5c>
/home/build/bsp/optee_os/lib/libmbedtls/mbedtls/library/constant_time.c:1001 (discriminator 3)
    bc14:	38616a62 	ldrb	w2, [x19, x1]
    bc18:	0a020002 	and	w2, w0, w2
    bc1c:	38216a62 	strb	w2, [x19, x1]
/home/build/bsp/optee_os/lib/libmbedtls/mbedtls/library/constant_time.c:1000 (discriminator 3)
    bc20:	91000421 	add	x1, x1, #0x1
    bc24:	17ffffc4 	b	bb34 <mbedtls_ct_rsaes_pkcs1_v15_unpadding+0xd4>
mbedtls_ct_mem_move_to_left():
/home/build/bsp/optee_os/lib/libmbedtls/mbedtls/library/constant_time.c:449
    bc28:	38756a61 	ldrb	w1, [x19, x21]
/home/build/bsp/optee_os/lib/libmbedtls/mbedtls/library/constant_time.c:450
    bc2c:	8b150265 	add	x5, x19, x21
    bc30:	910006b5 	add	x21, x21, #0x1
/home/build/bsp/optee_os/lib/libmbedtls/mbedtls/library/constant_time.c:451
    bc34:	2a0403e0 	mov	w0, w4
    bc38:	12001c21 	and	w1, w1, #0xff
    bc3c:	b90077e4 	str	w4, [sp, #116]
    bc40:	f9003fe5 	str	x5, [sp, #120]
/home/build/bsp/optee_os/lib/libmbedtls/mbedtls/library/constant_time.c:450
    bc44:	38756a62 	ldrb	w2, [x19, x21]
/home/build/bsp/optee_os/lib/libmbedtls/mbedtls/library/constant_time.c:451
    bc48:	12001c42 	and	w2, w2, #0xff
    bc4c:	97fffe53 	bl	b598 <mbedtls_ct_uint_if>
    bc50:	f9403fe5 	ldr	x5, [sp, #120]
    bc54:	12001c00 	and	w0, w0, #0xff
    bc58:	b94077e4 	ldr	w4, [sp, #116]
    bc5c:	390000a0 	strb	w0, [x5]
    bc60:	17ffffc5 	b	bb74 <mbedtls_ct_rsaes_pkcs1_v15_unpadding+0x114>

000000000000bc64 <mbedtls_get_unaligned_uint16>:
mbedtls_get_unaligned_uint16():
/home/build/bsp/optee_os/lib/libmbedtls/mbedtls/library/alignment.h:57
    bc64:	a9be7bfd 	stp	x29, x30, [sp, #-32]!
    bc68:	f0000021 	adrp	x1, 12000 <_DYNAMIC>
    bc6c:	910003fd 	mov	x29, sp
    bc70:	f9409822 	ldr	x2, [x1, #304]
/home/build/bsp/optee_os/lib/libmbedtls/mbedtls/library/alignment.h:61
    bc74:	f9409821 	ldr	x1, [x1, #304]
/home/build/bsp/optee_os/lib/libmbedtls/mbedtls/library/alignment.h:57
    bc78:	f9400043 	ldr	x3, [x2]
    bc7c:	f9000fe3 	str	x3, [sp, #24]
    bc80:	d2800003 	mov	x3, #0x0                   	// #0
/home/build/bsp/optee_os/lib/libmbedtls/mbedtls/library/alignment.h:59
    bc84:	39400002 	ldrb	w2, [x0]
    bc88:	39400400 	ldrb	w0, [x0, #1]
    bc8c:	39005be2 	strb	w2, [sp, #22]
    bc90:	39005fe0 	strb	w0, [sp, #23]
/home/build/bsp/optee_os/lib/libmbedtls/mbedtls/library/alignment.h:60
    bc94:	79402fe0 	ldrh	w0, [sp, #22]
/home/build/bsp/optee_os/lib/libmbedtls/mbedtls/library/alignment.h:61
    bc98:	f9400fe3 	ldr	x3, [sp, #24]
    bc9c:	f9400022 	ldr	x2, [x1]
    bca0:	eb020063 	subs	x3, x3, x2
    bca4:	d2800002 	mov	x2, #0x0                   	// #0
    bca8:	54000040 	b.eq	bcb0 <mbedtls_get_unaligned_uint16+0x4c>  // b.none
    bcac:	97ffd281 	bl	6b0 <__stack_chk_fail>
    bcb0:	a8c27bfd 	ldp	x29, x30, [sp], #32
    bcb4:	d65f03c0 	ret

000000000000bcb8 <mbedtls_put_unaligned_uint16>:
mbedtls_put_unaligned_uint16():
/home/build/bsp/optee_os/lib/libmbedtls/mbedtls/library/alignment.h:71
    bcb8:	d3483c22 	ubfx	x2, x1, #8, #8
/home/build/bsp/optee_os/lib/libmbedtls/mbedtls/library/alignment.h:72
    bcbc:	39000001 	strb	w1, [x0]
    bcc0:	39000402 	strb	w2, [x0, #1]
/home/build/bsp/optee_os/lib/libmbedtls/mbedtls/library/alignment.h:71
    bcc4:	d10043ff 	sub	sp, sp, #0x10
/home/build/bsp/optee_os/lib/libmbedtls/mbedtls/library/alignment.h:73
    bcc8:	910043ff 	add	sp, sp, #0x10
    bccc:	d65f03c0 	ret

000000000000bcd0 <mbedtls_get_unaligned_uint32>:
mbedtls_get_unaligned_uint32():
/home/build/bsp/optee_os/lib/libmbedtls/mbedtls/library/alignment.h:83
    bcd0:	a9bd7bfd 	stp	x29, x30, [sp, #-48]!
    bcd4:	910003fd 	mov	x29, sp
    bcd8:	f9000bf3 	str	x19, [sp, #16]
    bcdc:	f0000033 	adrp	x19, 12000 <_DYNAMIC>
    bce0:	f9409a61 	ldr	x1, [x19, #304]
    bce4:	f9400022 	ldr	x2, [x1]
    bce8:	f90017e2 	str	x2, [sp, #40]
    bcec:	d2800002 	mov	x2, #0x0                   	// #0
/home/build/bsp/optee_os/lib/libmbedtls/mbedtls/library/alignment.h:85
    bcf0:	aa0003e1 	mov	x1, x0
    bcf4:	d2800082 	mov	x2, #0x4                   	// #4
    bcf8:	910093e0 	add	x0, sp, #0x24
    bcfc:	97ffd0c1 	bl	0 <memcpy>
/home/build/bsp/optee_os/lib/libmbedtls/mbedtls/library/alignment.h:87
    bd00:	f9409a73 	ldr	x19, [x19, #304]
/home/build/bsp/optee_os/lib/libmbedtls/mbedtls/library/alignment.h:86
    bd04:	b94027e0 	ldr	w0, [sp, #36]
/home/build/bsp/optee_os/lib/libmbedtls/mbedtls/library/alignment.h:87
    bd08:	f94017e1 	ldr	x1, [sp, #40]
    bd0c:	f9400262 	ldr	x2, [x19]
    bd10:	eb020021 	subs	x1, x1, x2
    bd14:	d2800002 	mov	x2, #0x0                   	// #0
    bd18:	54000040 	b.eq	bd20 <mbedtls_get_unaligned_uint32+0x50>  // b.none
    bd1c:	97ffd265 	bl	6b0 <__stack_chk_fail>
    bd20:	f9400bf3 	ldr	x19, [sp, #16]
    bd24:	a8c37bfd 	ldp	x29, x30, [sp], #48
    bd28:	d65f03c0 	ret

000000000000bd2c <mbedtls_put_unaligned_uint32>:
mbedtls_put_unaligned_uint32():
/home/build/bsp/optee_os/lib/libmbedtls/mbedtls/library/alignment.h:97
    bd2c:	a9be7bfd 	stp	x29, x30, [sp, #-32]!
/home/build/bsp/optee_os/lib/libmbedtls/mbedtls/library/alignment.h:98
    bd30:	d2800082 	mov	x2, #0x4                   	// #4
/home/build/bsp/optee_os/lib/libmbedtls/mbedtls/library/alignment.h:97
    bd34:	910003fd 	mov	x29, sp
    bd38:	b9001fe1 	str	w1, [sp, #28]
/home/build/bsp/optee_os/lib/libmbedtls/mbedtls/library/alignment.h:98
    bd3c:	910073e1 	add	x1, sp, #0x1c
    bd40:	97ffd0b0 	bl	0 <memcpy>
/home/build/bsp/optee_os/lib/libmbedtls/mbedtls/library/alignment.h:99
    bd44:	a8c27bfd 	ldp	x29, x30, [sp], #32
    bd48:	d65f03c0 	ret

000000000000bd4c <mbedtls_get_unaligned_uint64>:
mbedtls_get_unaligned_uint64():
/home/build/bsp/optee_os/lib/libmbedtls/mbedtls/library/alignment.h:109
    bd4c:	a9bd7bfd 	stp	x29, x30, [sp, #-48]!
    bd50:	910003fd 	mov	x29, sp
    bd54:	f9000bf3 	str	x19, [sp, #16]
    bd58:	f0000033 	adrp	x19, 12000 <_DYNAMIC>
    bd5c:	f9409a61 	ldr	x1, [x19, #304]
    bd60:	f9400022 	ldr	x2, [x1]
    bd64:	f90017e2 	str	x2, [sp, #40]
    bd68:	d2800002 	mov	x2, #0x0                   	// #0
/home/build/bsp/optee_os/lib/libmbedtls/mbedtls/library/alignment.h:111
    bd6c:	aa0003e1 	mov	x1, x0
    bd70:	d2800102 	mov	x2, #0x8                   	// #8
    bd74:	910083e0 	add	x0, sp, #0x20
    bd78:	97ffd0a2 	bl	0 <memcpy>
/home/build/bsp/optee_os/lib/libmbedtls/mbedtls/library/alignment.h:113
    bd7c:	f9409a73 	ldr	x19, [x19, #304]
/home/build/bsp/optee_os/lib/libmbedtls/mbedtls/library/alignment.h:112
    bd80:	f94013e0 	ldr	x0, [sp, #32]
/home/build/bsp/optee_os/lib/libmbedtls/mbedtls/library/alignment.h:113
    bd84:	f94017e1 	ldr	x1, [sp, #40]
    bd88:	f9400262 	ldr	x2, [x19]
    bd8c:	eb020021 	subs	x1, x1, x2
    bd90:	d2800002 	mov	x2, #0x0                   	// #0
    bd94:	54000040 	b.eq	bd9c <mbedtls_get_unaligned_uint64+0x50>  // b.none
    bd98:	97ffd246 	bl	6b0 <__stack_chk_fail>
    bd9c:	f9400bf3 	ldr	x19, [sp, #16]
    bda0:	a8c37bfd 	ldp	x29, x30, [sp], #48
    bda4:	d65f03c0 	ret

000000000000bda8 <mbedtls_put_unaligned_uint64>:
mbedtls_put_unaligned_uint64():
/home/build/bsp/optee_os/lib/libmbedtls/mbedtls/library/alignment.h:123
    bda8:	a9be7bfd 	stp	x29, x30, [sp, #-32]!
/home/build/bsp/optee_os/lib/libmbedtls/mbedtls/library/alignment.h:124
    bdac:	d2800102 	mov	x2, #0x8                   	// #8
/home/build/bsp/optee_os/lib/libmbedtls/mbedtls/library/alignment.h:123
    bdb0:	910003fd 	mov	x29, sp
    bdb4:	f9000fe1 	str	x1, [sp, #24]
/home/build/bsp/optee_os/lib/libmbedtls/mbedtls/library/alignment.h:124
    bdb8:	910063e1 	add	x1, sp, #0x18
    bdbc:	97ffd091 	bl	0 <memcpy>
/home/build/bsp/optee_os/lib/libmbedtls/mbedtls/library/alignment.h:125
    bdc0:	a8c27bfd 	ldp	x29, x30, [sp], #32
    bdc4:	d65f03c0 	ret

000000000000bdc8 <mbedtls_xor>:
mbedtls_xor():
/home/build/bsp/optee_os/lib/libmbedtls/mbedtls/library/common.h:125
    bdc8:	a9bb7bfd 	stp	x29, x30, [sp, #-80]!
    bdcc:	910003fd 	mov	x29, sp
    bdd0:	a90153f3 	stp	x19, x20, [sp, #16]
    bdd4:	aa0303f4 	mov	x20, x3
/home/build/bsp/optee_os/lib/libmbedtls/mbedtls/library/common.h:128
    bdd8:	d2800013 	mov	x19, #0x0                   	// #0
/home/build/bsp/optee_os/lib/libmbedtls/mbedtls/library/common.h:125
    bddc:	a9025bf5 	stp	x21, x22, [sp, #32]
    bde0:	aa0003f5 	mov	x21, x0
    bde4:	aa0103f6 	mov	x22, x1
    bde8:	a90363f7 	stp	x23, x24, [sp, #48]
    bdec:	aa0203f7 	mov	x23, x2
    bdf0:	f90023f9 	str	x25, [sp, #64]
/home/build/bsp/optee_os/lib/libmbedtls/mbedtls/library/common.h:128 (discriminator 1)
    bdf4:	91001279 	add	x25, x19, #0x4
    bdf8:	eb19029f 	cmp	x20, x25
    bdfc:	54000122 	b.cs	be20 <mbedtls_xor+0x58>  // b.hs, b.nlast
/home/build/bsp/optee_os/lib/libmbedtls/mbedtls/library/common.h:133 (discriminator 1)
    be00:	eb14027f 	cmp	x19, x20
    be04:	54000223 	b.cc	be48 <mbedtls_xor+0x80>  // b.lo, b.ul, b.last
/home/build/bsp/optee_os/lib/libmbedtls/mbedtls/library/common.h:136
    be08:	a94153f3 	ldp	x19, x20, [sp, #16]
    be0c:	a9425bf5 	ldp	x21, x22, [sp, #32]
    be10:	a94363f7 	ldp	x23, x24, [sp, #48]
    be14:	f94023f9 	ldr	x25, [sp, #64]
    be18:	a8c57bfd 	ldp	x29, x30, [sp], #80
    be1c:	d65f03c0 	ret
/home/build/bsp/optee_os/lib/libmbedtls/mbedtls/library/common.h:129 (discriminator 2)
    be20:	8b1302c0 	add	x0, x22, x19
    be24:	97ffffab 	bl	bcd0 <mbedtls_get_unaligned_uint32>
    be28:	2a0003f8 	mov	w24, w0
    be2c:	8b1302e0 	add	x0, x23, x19
    be30:	97ffffa8 	bl	bcd0 <mbedtls_get_unaligned_uint32>
/home/build/bsp/optee_os/lib/libmbedtls/mbedtls/library/common.h:130 (discriminator 2)
    be34:	4a000301 	eor	w1, w24, w0
    be38:	8b1302a0 	add	x0, x21, x19
    be3c:	aa1903f3 	mov	x19, x25
    be40:	97ffffbb 	bl	bd2c <mbedtls_put_unaligned_uint32>
/home/build/bsp/optee_os/lib/libmbedtls/mbedtls/library/common.h:128 (discriminator 2)
    be44:	17ffffec 	b	bdf4 <mbedtls_xor+0x2c>
/home/build/bsp/optee_os/lib/libmbedtls/mbedtls/library/common.h:134 (discriminator 2)
    be48:	38736ac0 	ldrb	w0, [x22, x19]
    be4c:	38736ae1 	ldrb	w1, [x23, x19]
    be50:	4a010000 	eor	w0, w0, w1
    be54:	38336aa0 	strb	w0, [x21, x19]
/home/build/bsp/optee_os/lib/libmbedtls/mbedtls/library/common.h:133 (discriminator 2)
    be58:	91000673 	add	x19, x19, #0x1
    be5c:	17ffffe9 	b	be00 <mbedtls_xor+0x38>

000000000000be60 <mbedtls_platform_zeroize>:
mbedtls_platform_zeroize():
/home/build/bsp/optee_os/lib/libmbedtls/mbedtls/library/platform_util.c:106
    be60:	aa0103e2 	mov	x2, x1
/home/build/bsp/optee_os/lib/libmbedtls/mbedtls/library/platform_util.c:109
    be64:	b40000c1 	cbz	x1, be7c <mbedtls_platform_zeroize+0x1c>
/home/build/bsp/optee_os/lib/libmbedtls/mbedtls/library/platform_util.c:126
    be68:	f0000021 	adrp	x1, 12000 <_DYNAMIC>
    be6c:	f942c023 	ldr	x3, [x1, #1408]
    be70:	52800001 	mov	w1, #0x0                   	// #0
    be74:	aa0303f0 	mov	x16, x3
    be78:	d61f0200 	br	x16
/home/build/bsp/optee_os/lib/libmbedtls/mbedtls/library/platform_util.c:129
    be7c:	d65f03c0 	ret

000000000000be80 <_assert_trap>:
_assert_trap():
/home/build/bsp/optee_os/lib/libutils/isoc/include/assert.h:18
    be80:	a9bf7bfd 	stp	x29, x30, [sp, #-16]!
    be84:	910003fd 	mov	x29, sp
/home/build/bsp/optee_os/lib/libutils/isoc/include/assert.h:19
    be88:	97ffebad 	bl	6d3c <_assert_log>
/home/build/bsp/optee_os/lib/libutils/isoc/include/assert.h:20
    be8c:	97ffebbd 	bl	6d80 <_assert_break>

000000000000be90 <bget_buf_size.part.0>:
bget_buf_size():
/home/build/bsp/optee_os/lib/libutils/isoc/bget_malloc.c:192
    be90:	a9bf7bfd 	stp	x29, x30, [sp, #-16]!
/home/build/bsp/optee_os/lib/libutils/isoc/bget_malloc.c:209
    be94:	d0000023 	adrp	x3, 11000 <__func__.0+0x4cb>
    be98:	b0000021 	adrp	x1, 10000 <__func__.0+0x28>
/home/build/bsp/optee_os/lib/libutils/isoc/bget_malloc.c:192
    be9c:	910003fd 	mov	x29, sp
/home/build/bsp/optee_os/lib/libutils/isoc/bget_malloc.c:209
    bea0:	b0000020 	adrp	x0, 10000 <__func__.0+0x28>
    bea4:	9109ec63 	add	x3, x3, #0x27b
    bea8:	913f0821 	add	x1, x1, #0xfc2
    beac:	913f8800 	add	x0, x0, #0xfe2
    beb0:	52801a22 	mov	w2, #0xd1                  	// #209
    beb4:	97fffff3 	bl	be80 <_assert_trap>

000000000000beb8 <raw_malloc_return_hook.constprop.0>:
raw_malloc_return_hook():
/home/build/bsp/optee_os/lib/libutils/isoc/bget_malloc.c:279
    beb8:	f9401043 	ldr	x3, [x2, #32]
    bebc:	b9406c44 	ldr	w4, [x2, #108]
    bec0:	eb04007f 	cmp	x3, x4
    bec4:	5400004d 	b.le	becc <raw_malloc_return_hook.constprop.0+0x14>
/home/build/bsp/optee_os/lib/libutils/isoc/bget_malloc.c:280
    bec8:	b9006c43 	str	w3, [x2, #108]
/home/build/bsp/optee_os/lib/libutils/isoc/bget_malloc.c:282
    becc:	b5000100 	cbnz	x0, beec <raw_malloc_return_hook.constprop.0+0x34>
/home/build/bsp/optee_os/lib/libutils/isoc/bget_malloc.c:283
    bed0:	b9407444 	ldr	w4, [x2, #116]
    bed4:	11000484 	add	w4, w4, #0x1
    bed8:	b9007444 	str	w4, [x2, #116]
/home/build/bsp/optee_os/lib/libutils/isoc/bget_malloc.c:285
    bedc:	b9407844 	ldr	w4, [x2, #120]
    bee0:	eb01009f 	cmp	x4, x1
    bee4:	54000042 	b.cs	beec <raw_malloc_return_hook.constprop.0+0x34>  // b.hs, b.nlast
/home/build/bsp/optee_os/lib/libutils/isoc/bget_malloc.c:287
    bee8:	290f0c41 	stp	w1, w3, [x2, #120]
/home/build/bsp/optee_os/lib/libutils/isoc/bget_malloc.c:293
    beec:	d65f03c0 	ret

000000000000bef0 <bget>:
bget():
/home/build/bsp/optee_os/lib/libutils/isoc/bget.c:612
    bef0:	a9bf7bfd 	stp	x29, x30, [sp, #-16]!
    bef4:	910003fd 	mov	x29, sp
/home/build/bsp/optee_os/lib/libutils/isoc/bget.c:625
    bef8:	f100005f 	cmp	x2, #0x0
    befc:	5400014c 	b.gt	bf24 <bget+0x34>
/home/build/bsp/optee_os/lib/libutils/isoc/bget.c:625 (discriminator 1)
    bf00:	d0000023 	adrp	x3, 11000 <__func__.0+0x4cb>
    bf04:	9109ec63 	add	x3, x3, #0x27b
    bf08:	b0000021 	adrp	x1, 10000 <__func__.0+0x28>
    bf0c:	d0000020 	adrp	x0, 11000 <__func__.0+0x4cb>
    bf10:	91003863 	add	x3, x3, #0xe
    bf14:	913fb021 	add	x1, x1, #0xfec
    bf18:	9109c000 	add	x0, x0, #0x270
    bf1c:	52804e22 	mov	w2, #0x271                 	// #625
/home/build/bsp/optee_os/lib/libutils/isoc/bget.c:690 (discriminator 1)
    bf20:	97ffffd8 	bl	be80 <_assert_trap>
/home/build/bsp/optee_os/lib/libutils/isoc/bget.c:628 (discriminator 2)
    bf24:	f100001f 	cmp	x0, #0x0
    bf28:	5400024b 	b.lt	bf70 <bget+0x80>  // b.tstop
/home/build/bsp/optee_os/lib/libutils/isoc/bget.c:628 (discriminator 1)
    bf2c:	54000080 	b.eq	bf3c <bget+0x4c>  // b.none
/home/build/bsp/optee_os/lib/libutils/isoc/bget.c:628 (discriminator 3)
    bf30:	cb0003e4 	neg	x4, x0
    bf34:	ea24001f 	bics	xzr, x0, x4
    bf38:	540001c1 	b.ne	bf70 <bget+0x80>  // b.any
/home/build/bsp/optee_os/lib/libutils/isoc/bget.c:630
    bf3c:	91004028 	add	x8, x1, #0x10
    bf40:	f2400c3f 	tst	x1, #0xf
    bf44:	54000161 	b.ne	bf70 <bget+0x80>  // b.any
/home/build/bsp/optee_os/lib/libutils/isoc/bget.c:640
    bf48:	d2800205 	mov	x5, #0x10                  	// #16
    bf4c:	eb05005f 	cmp	x2, x5
    bf50:	9a85a042 	csel	x2, x2, x5, ge  // ge = tcont
    bf54:	b1003c44 	adds	x4, x2, #0xf
    bf58:	540000c4 	b.mi	bf70 <bget+0x80>  // b.first
    bf5c:	eb02009f 	cmp	x4, x2
    bf60:	54000083 	b.cc	bf70 <bget+0x80>  // b.lo, b.ul, b.last
/home/build/bsp/optee_os/lib/libutils/isoc/bget.c:643
    bf64:	927cec84 	and	x4, x4, #0xfffffffffffffff0
/home/build/bsp/optee_os/lib/libutils/isoc/bget.c:648
    bf68:	b1004084 	adds	x4, x4, #0x10
    bf6c:	54000067 	b.vc	bf78 <bget+0x88>
/home/build/bsp/optee_os/lib/libutils/isoc/bget.c:629
    bf70:	d2800000 	mov	x0, #0x0                   	// #0
    bf74:	14000093 	b	c1c0 <bget+0x2d0>
/home/build/bsp/optee_os/lib/libutils/isoc/bget.c:650
    bf78:	ab010084 	adds	x4, x4, x1
    bf7c:	54ffffa6 	b.vs	bf70 <bget+0x80>
    bf80:	f100401f 	cmp	x0, #0x10
buf_get_pos():
/home/build/bsp/optee_os/lib/libutils/isoc/bget.c:599
    bf84:	b27be7e9 	mov	x9, #0x7fffffffffffffe0    	// #9223372036854775776
    bf88:	9a85a000 	csel	x0, x0, x5, ge  // ge = tcont
bget():
/home/build/bsp/optee_os/lib/libutils/isoc/bget.c:660
    bf8c:	f9400862 	ldr	x2, [x3, #16]
buf_get_pos():
/home/build/bsp/optee_os/lib/libutils/isoc/bget.c:594
    bf90:	cb0003e0 	neg	x0, x0
bget():
/home/build/bsp/optee_os/lib/libutils/isoc/bget.c:684
    bf94:	eb02007f 	cmp	x3, x2
    bf98:	54fffec0 	b.eq	bf70 <bget+0x80>  // b.none
buf_get_pos():
/home/build/bsp/optee_os/lib/libutils/isoc/bget.c:585
    bf9c:	f9400446 	ldr	x6, [x2, #8]
    bfa0:	eb06009f 	cmp	x4, x6
    bfa4:	5400112c 	b.gt	c1c8 <bget+0x2d8>
/home/build/bsp/optee_os/lib/libutils/isoc/bget.c:592
    bfa8:	cb040045 	sub	x5, x2, x4
/home/build/bsp/optee_os/lib/libutils/isoc/bget.c:595
    bfac:	8b010047 	add	x7, x2, x1
/home/build/bsp/optee_os/lib/libutils/isoc/bget.c:592
    bfb0:	8b0800a5 	add	x5, x5, x8
    bfb4:	8b0600a5 	add	x5, x5, x6
/home/build/bsp/optee_os/lib/libutils/isoc/bget.c:594
    bfb8:	8a050005 	and	x5, x0, x5
/home/build/bsp/optee_os/lib/libutils/isoc/bget.c:595
    bfbc:	cb0700a5 	sub	x5, x5, x7
/home/build/bsp/optee_os/lib/libutils/isoc/bget.c:597
    bfc0:	f10040a7 	subs	x7, x5, #0x10
    bfc4:	54000080 	b.eq	bfd4 <bget+0xe4>  // b.none
/home/build/bsp/optee_os/lib/libutils/isoc/bget.c:599
    bfc8:	d100c0a5 	sub	x5, x5, #0x30
    bfcc:	eb0900bf 	cmp	x5, x9
    bfd0:	54000fc2 	b.cs	c1c8 <bget+0x2d8>  // b.hs, b.nlast
bget():
/home/build/bsp/optee_os/lib/libutils/isoc/bget.c:690
    bfd4:	f8666841 	ldr	x1, [x2, x6]
/home/build/bsp/optee_os/lib/libutils/isoc/bget.c:687
    bfd8:	8b070040 	add	x0, x2, x7
/home/build/bsp/optee_os/lib/libutils/isoc/bget.c:688
    bfdc:	8b060045 	add	x5, x2, x6
/home/build/bsp/optee_os/lib/libutils/isoc/bget.c:690
    bfe0:	eb06003f 	cmp	x1, x6
    bfe4:	54000140 	b.eq	c00c <bget+0x11c>  // b.none
/home/build/bsp/optee_os/lib/libutils/isoc/bget.c:690 (discriminator 1)
    bfe8:	d0000023 	adrp	x3, 11000 <__func__.0+0x4cb>
    bfec:	9109ec63 	add	x3, x3, #0x27b
    bff0:	b0000021 	adrp	x1, 10000 <__func__.0+0x28>
    bff4:	d0000020 	adrp	x0, 11000 <__func__.0+0x4cb>
    bff8:	91003863 	add	x3, x3, #0xe
    bffc:	913fb021 	add	x1, x1, #0xfec
    c000:	91001400 	add	x0, x0, #0x5
    c004:	52805642 	mov	w2, #0x2b2                 	// #690
    c008:	17ffffc6 	b	bf20 <bget+0x30>
/home/build/bsp/optee_os/lib/libutils/isoc/bget.c:698
    c00c:	f9400c41 	ldr	x1, [x2, #24]
/home/build/bsp/optee_os/lib/libutils/isoc/bget.c:696
    c010:	f826685f 	str	xzr, [x2, x6]
/home/build/bsp/optee_os/lib/libutils/isoc/bget.c:698
    c014:	f9400828 	ldr	x8, [x1, #16]
    c018:	eb02011f 	cmp	x8, x2
    c01c:	54000140 	b.eq	c044 <bget+0x154>  // b.none
/home/build/bsp/optee_os/lib/libutils/isoc/bget.c:698 (discriminator 1)
    c020:	b0000023 	adrp	x3, 11000 <__func__.0+0x4cb>
    c024:	9109ec63 	add	x3, x3, #0x27b
    c028:	90000021 	adrp	x1, 10000 <__func__.0+0x28>
    c02c:	b0000020 	adrp	x0, 11000 <__func__.0+0x4cb>
    c030:	91003863 	add	x3, x3, #0xe
    c034:	913fb021 	add	x1, x1, #0xfec
    c038:	91009400 	add	x0, x0, #0x25
    c03c:	52805742 	mov	w2, #0x2ba                 	// #698
    c040:	17ffffb8 	b	bf20 <bget+0x30>
/home/build/bsp/optee_os/lib/libutils/isoc/bget.c:699
    c044:	f9400848 	ldr	x8, [x2, #16]
    c048:	f9400d09 	ldr	x9, [x8, #24]
    c04c:	eb02013f 	cmp	x9, x2
    c050:	54000140 	b.eq	c078 <bget+0x188>  // b.none
/home/build/bsp/optee_os/lib/libutils/isoc/bget.c:699 (discriminator 1)
    c054:	b0000023 	adrp	x3, 11000 <__func__.0+0x4cb>
    c058:	9109ec63 	add	x3, x3, #0x27b
    c05c:	90000021 	adrp	x1, 10000 <__func__.0+0x28>
    c060:	b0000020 	adrp	x0, 11000 <__func__.0+0x4cb>
    c064:	91003863 	add	x3, x3, #0xe
    c068:	913fb021 	add	x1, x1, #0xfec
    c06c:	91010000 	add	x0, x0, #0x40
    c070:	52805762 	mov	w2, #0x2bb                 	// #699
    c074:	17ffffab 	b	bf20 <bget+0x30>
/home/build/bsp/optee_os/lib/libutils/isoc/bget.c:701
    c078:	b5000227 	cbnz	x7, c0bc <bget+0x1cc>
/home/build/bsp/optee_os/lib/libutils/isoc/bget.c:706
    c07c:	f9000828 	str	x8, [x1, #16]
/home/build/bsp/optee_os/lib/libutils/isoc/bget.c:707
    c080:	f9400847 	ldr	x7, [x2, #16]
    c084:	f9000ce1 	str	x1, [x7, #24]
/home/build/bsp/optee_os/lib/libutils/isoc/bget.c:710
    c088:	cb0603e7 	neg	x7, x6
    c08c:	f9000447 	str	x7, [x2, #8]
/home/build/bsp/optee_os/lib/libutils/isoc/bget.c:721
    c090:	f9400402 	ldr	x2, [x0, #8]
    c094:	b7f801a2 	tbnz	x2, #63, c0c8 <bget+0x1d8>
/home/build/bsp/optee_os/lib/libutils/isoc/bget.c:721 (discriminator 1)
    c098:	b0000023 	adrp	x3, 11000 <__func__.0+0x4cb>
    c09c:	9109ec63 	add	x3, x3, #0x27b
    c0a0:	90000021 	adrp	x1, 10000 <__func__.0+0x28>
    c0a4:	b0000020 	adrp	x0, 11000 <__func__.0+0x4cb>
    c0a8:	91003863 	add	x3, x3, #0xe
    c0ac:	913fb021 	add	x1, x1, #0xfec
    c0b0:	91016c00 	add	x0, x0, #0x5b
    c0b4:	52805a22 	mov	w2, #0x2d1                 	// #721
    c0b8:	17ffff9a 	b	bf20 <bget+0x30>
/home/build/bsp/optee_os/lib/libutils/isoc/bget.c:716
    c0bc:	cb0600e6 	sub	x6, x7, x6
    c0c0:	a9001807 	stp	x7, x6, [x0]
/home/build/bsp/optee_os/lib/libutils/isoc/bget.c:718
    c0c4:	17fffff2 	b	c08c <bget+0x19c>
/home/build/bsp/optee_os/lib/libutils/isoc/bget.c:727
    c0c8:	cb0203e2 	neg	x2, x2
    c0cc:	cb040042 	sub	x2, x2, x4
    c0d0:	f100805f 	cmp	x2, #0x20
    c0d4:	54000669 	b.ls	c1a0 <bget+0x2b0>  // b.plast
/home/build/bsp/optee_os/lib/libutils/isoc/bget.c:733
    c0d8:	8b040001 	add	x1, x0, x4
/home/build/bsp/optee_os/lib/libutils/isoc/bget.c:734
    c0dc:	f9000422 	str	x2, [x1, #8]
/home/build/bsp/optee_os/lib/libutils/isoc/bget.c:735
    c0e0:	f824681f 	str	xzr, [x0, x4]
/home/build/bsp/optee_os/lib/libutils/isoc/bget.c:736
    c0e4:	f9400404 	ldr	x4, [x0, #8]
    c0e8:	8b020082 	add	x2, x4, x2
    c0ec:	f9000402 	str	x2, [x0, #8]
/home/build/bsp/optee_os/lib/libutils/isoc/bget.c:738
    c0f0:	f9400c62 	ldr	x2, [x3, #24]
    c0f4:	f9400844 	ldr	x4, [x2, #16]
    c0f8:	eb03009f 	cmp	x4, x3
    c0fc:	54000140 	b.eq	c124 <bget+0x234>  // b.none
/home/build/bsp/optee_os/lib/libutils/isoc/bget.c:738 (discriminator 1)
    c100:	b0000023 	adrp	x3, 11000 <__func__.0+0x4cb>
    c104:	9109ec63 	add	x3, x3, #0x27b
    c108:	90000021 	adrp	x1, 10000 <__func__.0+0x28>
    c10c:	b0000020 	adrp	x0, 11000 <__func__.0+0x4cb>
    c110:	91003863 	add	x3, x3, #0xe
    c114:	913fb021 	add	x1, x1, #0xfec
    c118:	9101b800 	add	x0, x0, #0x6e
    c11c:	52805c42 	mov	w2, #0x2e2                 	// #738
    c120:	17ffff80 	b	bf20 <bget+0x30>
/home/build/bsp/optee_os/lib/libutils/isoc/bget.c:740
    c124:	f9400864 	ldr	x4, [x3, #16]
    c128:	f9400c84 	ldr	x4, [x4, #24]
    c12c:	eb03009f 	cmp	x4, x3
    c130:	54000140 	b.eq	c158 <bget+0x268>  // b.none
/home/build/bsp/optee_os/lib/libutils/isoc/bget.c:740 (discriminator 1)
    c134:	b0000023 	adrp	x3, 11000 <__func__.0+0x4cb>
    c138:	9109ec63 	add	x3, x3, #0x27b
    c13c:	90000021 	adrp	x1, 10000 <__func__.0+0x28>
    c140:	b0000020 	adrp	x0, 11000 <__func__.0+0x4cb>
    c144:	91003863 	add	x3, x3, #0xe
    c148:	913fb021 	add	x1, x1, #0xfec
    c14c:	9102a400 	add	x0, x0, #0xa9
    c150:	52805c82 	mov	w2, #0x2e4                 	// #740
    c154:	17ffff73 	b	bf20 <bget+0x30>
/home/build/bsp/optee_os/lib/libutils/isoc/bget.c:743
    c158:	a9010823 	stp	x3, x2, [x1, #16]
/home/build/bsp/optee_os/lib/libutils/isoc/bget.c:744
    c15c:	f9000c61 	str	x1, [x3, #24]
/home/build/bsp/optee_os/lib/libutils/isoc/bget.c:745
    c160:	f9400c22 	ldr	x2, [x1, #24]
    c164:	f9000841 	str	x1, [x2, #16]
/home/build/bsp/optee_os/lib/libutils/isoc/bget.c:747
    c168:	f9400422 	ldr	x2, [x1, #8]
    c16c:	8b020021 	add	x1, x1, x2
    c170:	eb0100bf 	cmp	x5, x1
    c174:	54000140 	b.eq	c19c <bget+0x2ac>  // b.none
/home/build/bsp/optee_os/lib/libutils/isoc/bget.c:747 (discriminator 1)
    c178:	b0000023 	adrp	x3, 11000 <__func__.0+0x4cb>
    c17c:	9109ec63 	add	x3, x3, #0x27b
    c180:	90000021 	adrp	x1, 10000 <__func__.0+0x28>
    c184:	b0000020 	adrp	x0, 11000 <__func__.0+0x4cb>
    c188:	91003863 	add	x3, x3, #0xe
    c18c:	913fb021 	add	x1, x1, #0xfec
    c190:	91039000 	add	x0, x0, #0xe4
    c194:	52805d62 	mov	w2, #0x2eb                 	// #747
    c198:	17ffff62 	b	bf20 <bget+0x30>
/home/build/bsp/optee_os/lib/libutils/isoc/bget.c:748
    c19c:	f90000a2 	str	x2, [x5]
/home/build/bsp/optee_os/lib/libutils/isoc/bget.c:752
    c1a0:	f9400402 	ldr	x2, [x0, #8]
/home/build/bsp/optee_os/lib/libutils/isoc/bget.c:755
    c1a4:	91004000 	add	x0, x0, #0x10
/home/build/bsp/optee_os/lib/libutils/isoc/bget.c:752
    c1a8:	f9401061 	ldr	x1, [x3, #32]
    c1ac:	cb020021 	sub	x1, x1, x2
    c1b0:	f9001061 	str	x1, [x3, #32]
/home/build/bsp/optee_os/lib/libutils/isoc/bget.c:753
    c1b4:	f9401461 	ldr	x1, [x3, #40]
    c1b8:	91000421 	add	x1, x1, #0x1
    c1bc:	f9001461 	str	x1, [x3, #40]
/home/build/bsp/optee_os/lib/libutils/isoc/bget.c:837
    c1c0:	a8c17bfd 	ldp	x29, x30, [sp], #16
    c1c4:	d65f03c0 	ret
/home/build/bsp/optee_os/lib/libutils/isoc/bget.c:758
    c1c8:	f9400842 	ldr	x2, [x2, #16]
    c1cc:	17ffff72 	b	bf94 <bget+0xa4>

000000000000c1d0 <bgetz>:
bgetz():
/home/build/bsp/optee_os/lib/libutils/isoc/bget.c:848
    c1d0:	a9be7bfd 	stp	x29, x30, [sp, #-32]!
    c1d4:	910003fd 	mov	x29, sp
    c1d8:	f9000bf3 	str	x19, [sp, #16]
    c1dc:	aa0203f3 	mov	x19, x2
/home/build/bsp/optee_os/lib/libutils/isoc/bget.c:849
    c1e0:	97ffff44 	bl	bef0 <bget>
    c1e4:	aa0003e3 	mov	x3, x0
/home/build/bsp/optee_os/lib/libutils/isoc/bget.c:851
    c1e8:	b4000300 	cbz	x0, c248 <bgetz+0x78>
/home/build/bsp/optee_os/lib/libutils/isoc/bget.c:856
    c1ec:	f85f8000 	ldur	x0, [x0, #-8]
/home/build/bsp/optee_os/lib/libutils/isoc/bget.c:857
    c1f0:	b50001e0 	cbnz	x0, c22c <bgetz+0x5c>
/home/build/bsp/optee_os/lib/libutils/isoc/bget.c:861
    c1f4:	a97e0061 	ldp	x1, x0, [x3, #-32]
    c1f8:	d1008021 	sub	x1, x1, #0x20
/home/build/bsp/optee_os/lib/libutils/isoc/bget.c:863
    c1fc:	cb000021 	sub	x1, x1, x0
/home/build/bsp/optee_os/lib/libutils/isoc/bget.c:865
    c200:	eb13003f 	cmp	x1, x19
    c204:	5400018a 	b.ge	c234 <bgetz+0x64>  // b.tcont
/home/build/bsp/optee_os/lib/libutils/isoc/bget.c:865 (discriminator 1)
    c208:	b0000023 	adrp	x3, 11000 <__func__.0+0x4cb>
    c20c:	9109ec63 	add	x3, x3, #0x27b
    c210:	90000021 	adrp	x1, 10000 <__func__.0+0x28>
    c214:	b0000020 	adrp	x0, 11000 <__func__.0+0x4cb>
    c218:	91004c63 	add	x3, x3, #0x13
    c21c:	913fb021 	add	x1, x1, #0xfec
    c220:	91042800 	add	x0, x0, #0x10a
    c224:	52806c22 	mov	w2, #0x361                 	// #865
    c228:	97ffff16 	bl	be80 <_assert_trap>
/home/build/bsp/optee_os/lib/libutils/isoc/bget.c:863
    c22c:	928001e1 	mov	x1, #0xfffffffffffffff0    	// #-16
    c230:	17fffff3 	b	c1fc <bgetz+0x2c>
memset_unchecked():
/home/build/bsp/optee_os/lib/libutils/isoc/bget_malloc.c:116
    c234:	93407c22 	sxtw	x2, w1
    c238:	aa0303e0 	mov	x0, x3
    c23c:	52800001 	mov	w1, #0x0                   	// #0
    c240:	9400032a 	bl	cee8 <memset>
    c244:	aa0003e3 	mov	x3, x0
bgetz():
/home/build/bsp/optee_os/lib/libutils/isoc/bget.c:869
    c248:	aa0303e0 	mov	x0, x3
    c24c:	f9400bf3 	ldr	x19, [sp, #16]
    c250:	a8c27bfd 	ldp	x29, x30, [sp], #32
    c254:	d65f03c0 	ret

000000000000c258 <brel>:
brel():
/home/build/bsp/optee_os/lib/libutils/isoc/bget.c:923
    c258:	a9be7bfd 	stp	x29, x30, [sp, #-32]!
    c25c:	2a0203e6 	mov	w6, w2
    c260:	aa0003e3 	mov	x3, x0
    c264:	910003fd 	mov	x29, sp
/home/build/bsp/optee_os/lib/libutils/isoc/bget.c:930
    c268:	f9401822 	ldr	x2, [x1, #48]
/home/build/bsp/optee_os/lib/libutils/isoc/bget.c:923
    c26c:	a90153f3 	stp	x19, x20, [sp, #16]
/home/build/bsp/optee_os/lib/libutils/isoc/bget.c:930
    c270:	91000442 	add	x2, x2, #0x1
    c274:	f9001822 	str	x2, [x1, #48]
/home/build/bsp/optee_os/lib/libutils/isoc/bget.c:932
    c278:	b5000140 	cbnz	x0, c2a0 <brel+0x48>
/home/build/bsp/optee_os/lib/libutils/isoc/bget.c:932 (discriminator 1)
    c27c:	b0000023 	adrp	x3, 11000 <__func__.0+0x4cb>
    c280:	9109ec63 	add	x3, x3, #0x27b
    c284:	90000021 	adrp	x1, 10000 <__func__.0+0x28>
    c288:	b0000020 	adrp	x0, 11000 <__func__.0+0x4cb>
    c28c:	91006463 	add	x3, x3, #0x19
    c290:	913fb021 	add	x1, x1, #0xfec
    c294:	91046000 	add	x0, x0, #0x118
    c298:	52807482 	mov	w2, #0x3a4                 	// #932
/home/build/bsp/optee_os/lib/libutils/isoc/bget.c:965 (discriminator 1)
    c29c:	97fffef9 	bl	be80 <_assert_trap>
/home/build/bsp/optee_os/lib/libutils/isoc/bget.c:962
    c2a0:	f85f8004 	ldur	x4, [x0, #-8]
    c2a4:	d1004000 	sub	x0, x0, #0x10
/home/build/bsp/optee_os/lib/libutils/isoc/bget.c:965
    c2a8:	b7f80144 	tbnz	x4, #63, c2d0 <brel+0x78>
/home/build/bsp/optee_os/lib/libutils/isoc/bget.c:965 (discriminator 1)
    c2ac:	b0000023 	adrp	x3, 11000 <__func__.0+0x4cb>
    c2b0:	9109ec63 	add	x3, x3, #0x27b
    c2b4:	90000021 	adrp	x1, 10000 <__func__.0+0x28>
    c2b8:	b0000020 	adrp	x0, 11000 <__func__.0+0x4cb>
    c2bc:	91006463 	add	x3, x3, #0x19
    c2c0:	913fb021 	add	x1, x1, #0xfec
    c2c4:	91049000 	add	x0, x0, #0x124
    c2c8:	528078a2 	mov	w2, #0x3c5                 	// #965
    c2cc:	17fffff4 	b	c29c <brel+0x44>
/home/build/bsp/optee_os/lib/libutils/isoc/bget.c:970
    c2d0:	cb040002 	sub	x2, x0, x4
    c2d4:	f9400042 	ldr	x2, [x2]
    c2d8:	b4000142 	cbz	x2, c300 <brel+0xa8>
/home/build/bsp/optee_os/lib/libutils/isoc/bget.c:970 (discriminator 1)
    c2dc:	b0000023 	adrp	x3, 11000 <__func__.0+0x4cb>
    c2e0:	9109ec63 	add	x3, x3, #0x27b
    c2e4:	90000021 	adrp	x1, 10000 <__func__.0+0x28>
    c2e8:	b0000020 	adrp	x0, 11000 <__func__.0+0x4cb>
    c2ec:	91006463 	add	x3, x3, #0x19
    c2f0:	913fb021 	add	x1, x1, #0xfec
    c2f4:	9104d000 	add	x0, x0, #0x134
    c2f8:	52807942 	mov	w2, #0x3ca                 	// #970
    c2fc:	17ffffe8 	b	c29c <brel+0x44>
/home/build/bsp/optee_os/lib/libutils/isoc/bget.c:973
    c300:	f9401025 	ldr	x5, [x1, #32]
    c304:	8b050085 	add	x5, x4, x5
    c308:	f9001025 	str	x5, [x1, #32]
/home/build/bsp/optee_os/lib/libutils/isoc/bget.c:974
    c30c:	b6f80145 	tbz	x5, #63, c334 <brel+0xdc>
/home/build/bsp/optee_os/lib/libutils/isoc/bget.c:974 (discriminator 1)
    c310:	b0000023 	adrp	x3, 11000 <__func__.0+0x4cb>
    c314:	9109ec63 	add	x3, x3, #0x27b
    c318:	90000021 	adrp	x1, 10000 <__func__.0+0x28>
    c31c:	b0000020 	adrp	x0, 11000 <__func__.0+0x4cb>
    c320:	91006463 	add	x3, x3, #0x19
    c324:	913fb021 	add	x1, x1, #0xfec
    c328:	91058000 	add	x0, x0, #0x160
    c32c:	528079c2 	mov	w2, #0x3ce                 	// #974
    c330:	17ffffdb 	b	c29c <brel+0x44>
/home/build/bsp/optee_os/lib/libutils/isoc/bget.c:979
    c334:	f85f0065 	ldur	x5, [x3, #-16]
    c338:	cb0403e2 	neg	x2, x4
    c33c:	b4000425 	cbz	x5, c3c0 <brel+0x168>
/home/build/bsp/optee_os/lib/libutils/isoc/bget.c:994
    c340:	cb050013 	sub	x19, x0, x5
    c344:	f9400661 	ldr	x1, [x19, #8]
    c348:	eb0100bf 	cmp	x5, x1
    c34c:	54000140 	b.eq	c374 <brel+0x11c>  // b.none
/home/build/bsp/optee_os/lib/libutils/isoc/bget.c:994 (discriminator 1)
    c350:	b0000023 	adrp	x3, 11000 <__func__.0+0x4cb>
    c354:	9109ec63 	add	x3, x3, #0x27b
    c358:	90000021 	adrp	x1, 10000 <__func__.0+0x28>
    c35c:	b0000020 	adrp	x0, 11000 <__func__.0+0x4cb>
    c360:	91006463 	add	x3, x3, #0x19
    c364:	913fb021 	add	x1, x1, #0xfec
    c368:	9105dc00 	add	x0, x0, #0x177
    c36c:	52807c42 	mov	w2, #0x3e2                 	// #994
    c370:	17ffffcb 	b	c29c <brel+0x44>
/home/build/bsp/optee_os/lib/libutils/isoc/bget.c:996
    c374:	cb0400a5 	sub	x5, x5, x4
    c378:	f9000665 	str	x5, [x19, #8]
/home/build/bsp/optee_os/lib/libutils/isoc/bget.c:1019
    c37c:	f9400661 	ldr	x1, [x19, #8]
    c380:	8b010274 	add	x20, x19, x1
/home/build/bsp/optee_os/lib/libutils/isoc/bget.c:1020
    c384:	f9400683 	ldr	x3, [x20, #8]
    c388:	f100007f 	cmp	x3, #0x0
    c38c:	54000a2d 	b.le	c4d0 <brel+0x278>
/home/build/bsp/optee_os/lib/libutils/isoc/bget.c:1025
    c390:	f8636a84 	ldr	x4, [x20, x3]
    c394:	eb04007f 	cmp	x3, x4
    c398:	540005c0 	b.eq	c450 <brel+0x1f8>  // b.none
/home/build/bsp/optee_os/lib/libutils/isoc/bget.c:1025 (discriminator 1)
    c39c:	b0000023 	adrp	x3, 11000 <__func__.0+0x4cb>
    c3a0:	9109ec63 	add	x3, x3, #0x27b
    c3a4:	90000021 	adrp	x1, 10000 <__func__.0+0x28>
    c3a8:	b0000020 	adrp	x0, 11000 <__func__.0+0x4cb>
    c3ac:	91006463 	add	x3, x3, #0x19
    c3b0:	913fb021 	add	x1, x1, #0xfec
    c3b4:	9106c000 	add	x0, x0, #0x1b0
    c3b8:	52808022 	mov	w2, #0x401                 	// #1025
    c3bc:	17ffffb8 	b	c29c <brel+0x44>
/home/build/bsp/optee_os/lib/libutils/isoc/bget.c:1002
    c3c0:	f9400c27 	ldr	x7, [x1, #24]
    c3c4:	f94008e5 	ldr	x5, [x7, #16]
    c3c8:	eb0100bf 	cmp	x5, x1
    c3cc:	54000140 	b.eq	c3f4 <brel+0x19c>  // b.none
/home/build/bsp/optee_os/lib/libutils/isoc/bget.c:1002 (discriminator 1)
    c3d0:	b0000023 	adrp	x3, 11000 <__func__.0+0x4cb>
    c3d4:	9109ec63 	add	x3, x3, #0x27b
    c3d8:	90000021 	adrp	x1, 10000 <__func__.0+0x28>
    c3dc:	b0000020 	adrp	x0, 11000 <__func__.0+0x4cb>
    c3e0:	91006463 	add	x3, x3, #0x19
    c3e4:	913fb021 	add	x1, x1, #0xfec
    c3e8:	9101b800 	add	x0, x0, #0x6e
    c3ec:	52807d42 	mov	w2, #0x3ea                 	// #1002
    c3f0:	17ffffab 	b	c29c <brel+0x44>
/home/build/bsp/optee_os/lib/libutils/isoc/bget.c:1003
    c3f4:	f94008a1 	ldr	x1, [x5, #16]
    c3f8:	f9400c21 	ldr	x1, [x1, #24]
    c3fc:	eb0100bf 	cmp	x5, x1
    c400:	54000140 	b.eq	c428 <brel+0x1d0>  // b.none
/home/build/bsp/optee_os/lib/libutils/isoc/bget.c:1003 (discriminator 1)
    c404:	b0000023 	adrp	x3, 11000 <__func__.0+0x4cb>
    c408:	9109ec63 	add	x3, x3, #0x27b
    c40c:	90000021 	adrp	x1, 10000 <__func__.0+0x28>
    c410:	b0000020 	adrp	x0, 11000 <__func__.0+0x4cb>
    c414:	91006463 	add	x3, x3, #0x19
    c418:	913fb021 	add	x1, x1, #0xfec
    c41c:	9102a400 	add	x0, x0, #0xa9
    c420:	52807d62 	mov	w2, #0x3eb                 	// #1003
    c424:	17ffff9e 	b	c29c <brel+0x44>
/home/build/bsp/optee_os/lib/libutils/isoc/bget.c:1005
    c428:	a9011c05 	stp	x5, x7, [x0, #16]
/home/build/bsp/optee_os/lib/libutils/isoc/bget.c:928
    c42c:	aa0003f3 	mov	x19, x0
/home/build/bsp/optee_os/lib/libutils/isoc/bget.c:1006
    c430:	f9000ca0 	str	x0, [x5, #24]
/home/build/bsp/optee_os/lib/libutils/isoc/bget.c:1007
    c434:	f9400c01 	ldr	x1, [x0, #24]
    c438:	f9000820 	str	x0, [x1, #16]
/home/build/bsp/optee_os/lib/libutils/isoc/bget.c:1011
    c43c:	928003e1 	mov	x1, #0xffffffffffffffe0    	// #-32
/home/build/bsp/optee_os/lib/libutils/isoc/bget.c:1008
    c440:	f9000402 	str	x2, [x0, #8]
/home/build/bsp/optee_os/lib/libutils/isoc/bget.c:1011
    c444:	cb040022 	sub	x2, x1, x4
/home/build/bsp/optee_os/lib/libutils/isoc/bget.c:1010
    c448:	91004060 	add	x0, x3, #0x10
    c44c:	17ffffcc 	b	c37c <brel+0x124>
/home/build/bsp/optee_os/lib/libutils/isoc/bget.c:1026
    c450:	f9400e85 	ldr	x5, [x20, #24]
    c454:	f94008a7 	ldr	x7, [x5, #16]
    c458:	eb1400ff 	cmp	x7, x20
    c45c:	54000140 	b.eq	c484 <brel+0x22c>  // b.none
/home/build/bsp/optee_os/lib/libutils/isoc/bget.c:1026 (discriminator 1)
    c460:	b0000023 	adrp	x3, 11000 <__func__.0+0x4cb>
    c464:	9109ec63 	add	x3, x3, #0x27b
    c468:	90000021 	adrp	x1, 10000 <__func__.0+0x28>
    c46c:	b0000020 	adrp	x0, 11000 <__func__.0+0x4cb>
    c470:	91006463 	add	x3, x3, #0x19
    c474:	913fb021 	add	x1, x1, #0xfec
    c478:	9107a400 	add	x0, x0, #0x1e9
    c47c:	52808042 	mov	w2, #0x402                 	// #1026
    c480:	17ffff87 	b	c29c <brel+0x44>
/home/build/bsp/optee_os/lib/libutils/isoc/bget.c:1027
    c484:	f94008e4 	ldr	x4, [x7, #16]
    c488:	f9400c88 	ldr	x8, [x4, #24]
    c48c:	eb07011f 	cmp	x8, x7
    c490:	54000140 	b.eq	c4b8 <brel+0x260>  // b.none
/home/build/bsp/optee_os/lib/libutils/isoc/bget.c:1027 (discriminator 1)
    c494:	b0000023 	adrp	x3, 11000 <__func__.0+0x4cb>
    c498:	9109ec63 	add	x3, x3, #0x27b
    c49c:	90000021 	adrp	x1, 10000 <__func__.0+0x28>
    c4a0:	b0000020 	adrp	x0, 11000 <__func__.0+0x4cb>
    c4a4:	91006463 	add	x3, x3, #0x19
    c4a8:	913fb021 	add	x1, x1, #0xfec
    c4ac:	91081800 	add	x0, x0, #0x206
    c4b0:	52808062 	mov	w2, #0x403                 	// #1027
    c4b4:	17ffff7a 	b	c29c <brel+0x44>
/home/build/bsp/optee_os/lib/libutils/isoc/bget.c:1030
    c4b8:	8b030021 	add	x1, x1, x3
/home/build/bsp/optee_os/lib/libutils/isoc/bget.c:1028
    c4bc:	f90008a4 	str	x4, [x5, #16]
/home/build/bsp/optee_os/lib/libutils/isoc/bget.c:1039
    c4c0:	8b010274 	add	x20, x19, x1
/home/build/bsp/optee_os/lib/libutils/isoc/bget.c:1041
    c4c4:	91008042 	add	x2, x2, #0x20
/home/build/bsp/optee_os/lib/libutils/isoc/bget.c:1029
    c4c8:	f9000c85 	str	x5, [x4, #24]
/home/build/bsp/optee_os/lib/libutils/isoc/bget.c:1030
    c4cc:	f9000661 	str	x1, [x19, #8]
/home/build/bsp/optee_os/lib/libutils/isoc/bget.c:1043
    c4d0:	34000066 	cbz	w6, c4dc <brel+0x284>
memset_unchecked():
/home/build/bsp/optee_os/lib/libutils/isoc/bget_malloc.c:116
    c4d4:	52800aa1 	mov	w1, #0x55                  	// #85
    c4d8:	94000284 	bl	cee8 <memset>
brel():
/home/build/bsp/optee_os/lib/libutils/isoc/bget.c:1046
    c4dc:	f9400680 	ldr	x0, [x20, #8]
    c4e0:	b7f80140 	tbnz	x0, #63, c508 <brel+0x2b0>
/home/build/bsp/optee_os/lib/libutils/isoc/bget.c:1046 (discriminator 1)
    c4e4:	b0000023 	adrp	x3, 11000 <__func__.0+0x4cb>
    c4e8:	9109ec63 	add	x3, x3, #0x27b
    c4ec:	90000021 	adrp	x1, 10000 <__func__.0+0x28>
    c4f0:	b0000020 	adrp	x0, 11000 <__func__.0+0x4cb>
    c4f4:	91006463 	add	x3, x3, #0x19
    c4f8:	913fb021 	add	x1, x1, #0xfec
    c4fc:	91088c00 	add	x0, x0, #0x223
    c500:	528082c2 	mov	w2, #0x416                 	// #1046
    c504:	17ffff66 	b	c29c <brel+0x44>
/home/build/bsp/optee_os/lib/libutils/isoc/bget.c:1051
    c508:	f9400660 	ldr	x0, [x19, #8]
    c50c:	f9000280 	str	x0, [x20]
/home/build/bsp/optee_os/lib/libutils/isoc/bget.c:1078
    c510:	a94153f3 	ldp	x19, x20, [sp, #16]
    c514:	a8c27bfd 	ldp	x29, x30, [sp], #32
    c518:	d65f03c0 	ret

000000000000c51c <bgetr>:
bgetr():
/home/build/bsp/optee_os/lib/libutils/isoc/bget.c:882
    c51c:	a9bc7bfd 	stp	x29, x30, [sp, #-64]!
    c520:	910003fd 	mov	x29, sp
    c524:	a90153f3 	stp	x19, x20, [sp, #16]
    c528:	aa0303f4 	mov	x20, x3
/home/build/bsp/optee_os/lib/libutils/isoc/bget.c:887
    c52c:	aa0403e3 	mov	x3, x4
/home/build/bsp/optee_os/lib/libutils/isoc/bget.c:882
    c530:	a9025bf5 	stp	x21, x22, [sp, #32]
    c534:	aa0003f5 	mov	x21, x0
    c538:	aa0103e0 	mov	x0, x1
    c53c:	aa0203e1 	mov	x1, x2
/home/build/bsp/optee_os/lib/libutils/isoc/bget.c:887
    c540:	aa1403e2 	mov	x2, x20
/home/build/bsp/optee_os/lib/libutils/isoc/bget.c:882
    c544:	f9001bf7 	str	x23, [sp, #48]
    c548:	aa0403f7 	mov	x23, x4
/home/build/bsp/optee_os/lib/libutils/isoc/bget.c:887
    c54c:	97fffe69 	bl	bef0 <bget>
    c550:	aa0003f6 	mov	x22, x0
    c554:	b4000400 	cbz	x0, c5d4 <bgetr+0xb8>
/home/build/bsp/optee_os/lib/libutils/isoc/bget.c:890
    c558:	b40003f5 	cbz	x21, c5d4 <bgetr+0xb8>
/home/build/bsp/optee_os/lib/libutils/isoc/bget.c:904
    c55c:	f85f82a1 	ldur	x1, [x21, #-8]
    c560:	928001f3 	mov	x19, #0xfffffffffffffff0    	// #-16
    c564:	cb010273 	sub	x19, x19, x1
/home/build/bsp/optee_os/lib/libutils/isoc/bget.c:905
    c568:	f100027f 	cmp	x19, #0x0
    c56c:	5400014c 	b.gt	c594 <bgetr+0x78>
/home/build/bsp/optee_os/lib/libutils/isoc/bget.c:905 (discriminator 1)
    c570:	b0000023 	adrp	x3, 11000 <__func__.0+0x4cb>
    c574:	9109ec63 	add	x3, x3, #0x27b
    c578:	90000021 	adrp	x1, 10000 <__func__.0+0x28>
    c57c:	90000020 	adrp	x0, 10000 <__func__.0+0x28>
    c580:	91007863 	add	x3, x3, #0x1e
    c584:	913fb021 	add	x1, x1, #0xfec
    c588:	913f8800 	add	x0, x0, #0xfe2
    c58c:	52807122 	mov	w2, #0x389                 	// #905
    c590:	97fffe3c 	bl	be80 <_assert_trap>
/home/build/bsp/optee_os/lib/libutils/isoc/bget.c:906
    c594:	eb13029f 	cmp	x20, x19
    c598:	93407e81 	sxtw	x1, w20
    c59c:	93407e62 	sxtw	x2, w19
memcpy_unchecked():
/home/build/bsp/optee_os/lib/libutils/isoc/bget_malloc.c:122
    c5a0:	9a81a042 	csel	x2, x2, x1, ge  // ge = tcont
    c5a4:	aa1503e1 	mov	x1, x21
    c5a8:	97ffce96 	bl	0 <memcpy>
bgetr():
/home/build/bsp/optee_os/lib/libutils/isoc/bget.c:910
    c5ac:	eb13029f 	cmp	x20, x19
    c5b0:	540000ad 	b.le	c5c4 <bgetr+0xa8>
memset_unchecked():
/home/build/bsp/optee_os/lib/libutils/isoc/bget_malloc.c:116
    c5b4:	cb130282 	sub	x2, x20, x19
    c5b8:	8b1302c0 	add	x0, x22, x19
    c5bc:	52800001 	mov	w1, #0x0                   	// #0
    c5c0:	9400024a 	bl	cee8 <memset>
bgetr():
/home/build/bsp/optee_os/lib/libutils/isoc/bget.c:913
    c5c4:	aa1703e1 	mov	x1, x23
    c5c8:	aa1503e0 	mov	x0, x21
    c5cc:	52800002 	mov	w2, #0x0                   	// #0
    c5d0:	97ffff22 	bl	c258 <brel>
/home/build/bsp/optee_os/lib/libutils/isoc/bget.c:915
    c5d4:	aa1603e0 	mov	x0, x22
    c5d8:	a94153f3 	ldp	x19, x20, [sp, #16]
    c5dc:	a9425bf5 	ldp	x21, x22, [sp, #32]
    c5e0:	f9401bf7 	ldr	x23, [sp, #48]
    c5e4:	a8c47bfd 	ldp	x29, x30, [sp], #64
    c5e8:	d65f03c0 	ret

000000000000c5ec <bpool>:
bpool():
/home/build/bsp/optee_os/lib/libutils/isoc/bget.c:1104
    c5ec:	a9bf7bfd 	stp	x29, x30, [sp, #-16]!
/home/build/bsp/optee_os/lib/libutils/isoc/bget.c:1109
    c5f0:	927cec21 	and	x1, x1, #0xfffffffffffffff0
/home/build/bsp/optee_os/lib/libutils/isoc/bget.c:1128
    c5f4:	f1004021 	subs	x1, x1, #0x10
/home/build/bsp/optee_os/lib/libutils/isoc/bget.c:1104
    c5f8:	910003fd 	mov	x29, sp
/home/build/bsp/optee_os/lib/libutils/isoc/bget.c:1128
    c5fc:	54000145 	b.pl	c624 <bpool+0x38>  // b.nfrst
/home/build/bsp/optee_os/lib/libutils/isoc/bget.c:1128 (discriminator 1)
    c600:	b0000023 	adrp	x3, 11000 <__func__.0+0x4cb>
    c604:	9109ec63 	add	x3, x3, #0x27b
    c608:	90000021 	adrp	x1, 10000 <__func__.0+0x28>
    c60c:	b0000020 	adrp	x0, 11000 <__func__.0+0x4cb>
    c610:	91009063 	add	x3, x3, #0x24
    c614:	913fb021 	add	x1, x1, #0xfec
    c618:	9108d000 	add	x0, x0, #0x234
    c61c:	52808d02 	mov	w2, #0x468                 	// #1128
/home/build/bsp/optee_os/lib/libutils/isoc/bget.c:1138 (discriminator 1)
    c620:	97fffe18 	bl	be80 <_assert_trap>
/home/build/bsp/optee_os/lib/libutils/isoc/bget.c:1138
    c624:	f9400c44 	ldr	x4, [x2, #24]
    c628:	f9400883 	ldr	x3, [x4, #16]
/home/build/bsp/optee_os/lib/libutils/isoc/bget.c:1134
    c62c:	f900001f 	str	xzr, [x0]
/home/build/bsp/optee_os/lib/libutils/isoc/bget.c:1138
    c630:	eb02007f 	cmp	x3, x2
    c634:	54000140 	b.eq	c65c <bpool+0x70>  // b.none
/home/build/bsp/optee_os/lib/libutils/isoc/bget.c:1138 (discriminator 1)
    c638:	b0000023 	adrp	x3, 11000 <__func__.0+0x4cb>
    c63c:	9109ec63 	add	x3, x3, #0x27b
    c640:	90000021 	adrp	x1, 10000 <__func__.0+0x28>
    c644:	b0000020 	adrp	x0, 11000 <__func__.0+0x4cb>
    c648:	91009063 	add	x3, x3, #0x24
    c64c:	913fb021 	add	x1, x1, #0xfec
    c650:	9101b800 	add	x0, x0, #0x6e
    c654:	52808e42 	mov	w2, #0x472                 	// #1138
    c658:	17fffff2 	b	c620 <bpool+0x34>
/home/build/bsp/optee_os/lib/libutils/isoc/bget.c:1139
    c65c:	f9400862 	ldr	x2, [x3, #16]
    c660:	f9400c42 	ldr	x2, [x2, #24]
    c664:	eb02007f 	cmp	x3, x2
    c668:	54000140 	b.eq	c690 <bpool+0xa4>  // b.none
/home/build/bsp/optee_os/lib/libutils/isoc/bget.c:1139 (discriminator 1)
    c66c:	b0000023 	adrp	x3, 11000 <__func__.0+0x4cb>
    c670:	9109ec63 	add	x3, x3, #0x27b
    c674:	90000021 	adrp	x1, 10000 <__func__.0+0x28>
    c678:	b0000020 	adrp	x0, 11000 <__func__.0+0x4cb>
    c67c:	91009063 	add	x3, x3, #0x24
    c680:	913fb021 	add	x1, x1, #0xfec
    c684:	9102a400 	add	x0, x0, #0xa9
    c688:	52808e62 	mov	w2, #0x473                 	// #1139
    c68c:	17ffffe5 	b	c620 <bpool+0x34>
/home/build/bsp/optee_os/lib/libutils/isoc/bget.c:1141
    c690:	a9011003 	stp	x3, x4, [x0, #16]
/home/build/bsp/optee_os/lib/libutils/isoc/bget.c:1142
    c694:	f9000c60 	str	x0, [x3, #24]
/home/build/bsp/optee_os/lib/libutils/isoc/bget.c:1143
    c698:	f9400c02 	ldr	x2, [x0, #24]
    c69c:	f9000840 	str	x0, [x2, #16]
/home/build/bsp/optee_os/lib/libutils/isoc/bget.c:1159
    c6a0:	8b010002 	add	x2, x0, x1
/home/build/bsp/optee_os/lib/libutils/isoc/bget.c:1154
    c6a4:	f9000401 	str	x1, [x0, #8]
/home/build/bsp/optee_os/lib/libutils/isoc/bget.c:1160
    c6a8:	f8216801 	str	x1, [x0, x1]
/home/build/bsp/optee_os/lib/libutils/isoc/bget.c:1163
    c6ac:	d2f00000 	mov	x0, #0x8000000000000000    	// #-9223372036854775808
    c6b0:	f9000440 	str	x0, [x2, #8]
/home/build/bsp/optee_os/lib/libutils/isoc/bget.c:1164
    c6b4:	a8c17bfd 	ldp	x29, x30, [sp], #16
    c6b8:	d65f03c0 	ret

000000000000c6bc <bstats>:
bstats():
/home/build/bsp/optee_os/lib/libutils/isoc/bget.c:1177
    c6bc:	f94014a7 	ldr	x7, [x5, #40]
/home/build/bsp/optee_os/lib/libutils/isoc/bget.c:1175
    c6c0:	f94008a6 	ldr	x6, [x5, #16]
/home/build/bsp/optee_os/lib/libutils/isoc/bget.c:1177
    c6c4:	f9000067 	str	x7, [x3]
/home/build/bsp/optee_os/lib/libutils/isoc/bget.c:1178
    c6c8:	f94018a3 	ldr	x3, [x5, #48]
    c6cc:	f9000083 	str	x3, [x4]
/home/build/bsp/optee_os/lib/libutils/isoc/bget.c:1179
    c6d0:	f94010a3 	ldr	x3, [x5, #32]
    c6d4:	f9000003 	str	x3, [x0]
/home/build/bsp/optee_os/lib/libutils/isoc/bget.c:1180
    c6d8:	f900003f 	str	xzr, [x1]
/home/build/bsp/optee_os/lib/libutils/isoc/bget.c:1181
    c6dc:	92800000 	mov	x0, #0xffffffffffffffff    	// #-1
    c6e0:	f9000040 	str	x0, [x2]
/home/build/bsp/optee_os/lib/libutils/isoc/bget.c:1182
    c6e4:	eb0600bf 	cmp	x5, x6
    c6e8:	54000041 	b.ne	c6f0 <bstats+0x34>  // b.any
    c6ec:	d65f03c0 	ret
/home/build/bsp/optee_os/lib/libutils/isoc/bget.c:1183
    c6f0:	f94004c3 	ldr	x3, [x6, #8]
    c6f4:	f100007f 	cmp	x3, #0x0
    c6f8:	5400018c 	b.gt	c728 <bstats+0x6c>
/home/build/bsp/optee_os/lib/libutils/isoc/bget.c:1174 (discriminator 1)
    c6fc:	a9bf7bfd 	stp	x29, x30, [sp, #-16]!
/home/build/bsp/optee_os/lib/libutils/isoc/bget.c:1183 (discriminator 1)
    c700:	b0000023 	adrp	x3, 11000 <__func__.0+0x4cb>
    c704:	9109ec63 	add	x3, x3, #0x27b
/home/build/bsp/optee_os/lib/libutils/isoc/bget.c:1174 (discriminator 1)
    c708:	910003fd 	mov	x29, sp
/home/build/bsp/optee_os/lib/libutils/isoc/bget.c:1183 (discriminator 1)
    c70c:	90000021 	adrp	x1, 10000 <__func__.0+0x28>
    c710:	b0000020 	adrp	x0, 11000 <__func__.0+0x4cb>
    c714:	9100a863 	add	x3, x3, #0x2a
    c718:	913fb021 	add	x1, x1, #0xfec
    c71c:	9109a400 	add	x0, x0, #0x269
    c720:	528093e2 	mov	w2, #0x49f                 	// #1183
    c724:	97fffdd7 	bl	be80 <_assert_trap>
/home/build/bsp/optee_os/lib/libutils/isoc/bget.c:1184
    c728:	f9400020 	ldr	x0, [x1]
    c72c:	8b030000 	add	x0, x0, x3
    c730:	f9000020 	str	x0, [x1]
/home/build/bsp/optee_os/lib/libutils/isoc/bget.c:1185
    c734:	f9400043 	ldr	x3, [x2]
    c738:	f94004c0 	ldr	x0, [x6, #8]
    c73c:	eb03001f 	cmp	x0, x3
    c740:	5400004d 	b.le	c748 <bstats+0x8c>
/home/build/bsp/optee_os/lib/libutils/isoc/bget.c:1186
    c744:	f9000040 	str	x0, [x2]
/home/build/bsp/optee_os/lib/libutils/isoc/bget.c:1188
    c748:	f94008c6 	ldr	x6, [x6, #16]
    c74c:	17ffffe6 	b	c6e4 <bstats+0x28>

000000000000c750 <malloc_reset_stats>:
gen_malloc_reset_stats():
/home/build/bsp/optee_os/lib/libutils/isoc/bget_malloc.c:299
    c750:	d0000020 	adrp	x0, 12000 <_DYNAMIC>
    c754:	91162000 	add	x0, x0, #0x588
    c758:	b9006c1f 	str	wzr, [x0, #108]
/home/build/bsp/optee_os/lib/libutils/isoc/bget_malloc.c:300
    c75c:	b900741f 	str	wzr, [x0, #116]
/home/build/bsp/optee_os/lib/libutils/isoc/bget_malloc.c:301
    c760:	f9003c1f 	str	xzr, [x0, #120]
malloc_reset_stats():
/home/build/bsp/optee_os/lib/libutils/isoc/bget_malloc.c:309
    c764:	d65f03c0 	ret

000000000000c768 <raw_memalign>:
raw_memalign():
/home/build/bsp/optee_os/lib/libutils/isoc/bget_malloc.c:427
    c768:	b40003e2 	cbz	x2, c7e4 <raw_memalign+0x7c>
/home/build/bsp/optee_os/lib/libutils/isoc/bget_malloc.c:423 (discriminator 1)
    c76c:	a9be7bfd 	stp	x29, x30, [sp, #-32]!
    c770:	aa0003e5 	mov	x5, x0
    c774:	910003fd 	mov	x29, sp
    c778:	a90153f3 	stp	x19, x20, [sp, #16]
    c77c:	aa0303f3 	mov	x19, x3
/home/build/bsp/optee_os/lib/libutils/isoc/bget_malloc.c:427 (discriminator 1)
    c780:	cb0203e3 	neg	x3, x2
    c784:	8a020060 	and	x0, x3, x2
    c788:	ea23005f 	bics	xzr, x2, x3
    c78c:	54000241 	b.ne	c7d4 <raw_memalign+0x6c>  // b.any
    c790:	aa0403f4 	mov	x20, x4
/home/build/bsp/optee_os/lib/libutils/isoc/bget_malloc.c:433
    c794:	ab010262 	adds	x2, x19, x1
    c798:	540001a4 	b.mi	c7cc <raw_memalign+0x64>  // b.first
    c79c:	eb01005f 	cmp	x2, x1
    c7a0:	54000163 	b.cc	c7cc <raw_memalign+0x64>  // b.lo, b.ul, b.last
/home/build/bsp/optee_os/lib/libutils/isoc/bget_malloc.c:438
    c7a4:	f100005f 	cmp	x2, #0x0
/home/build/bsp/optee_os/lib/libutils/isoc/bget_malloc.c:440
    c7a8:	aa0403e3 	mov	x3, x4
    c7ac:	9a9f1442 	csinc	x2, x2, xzr, ne  // ne = any
    c7b0:	aa0503e1 	mov	x1, x5
    c7b4:	97fffdcf 	bl	bef0 <bget>
/home/build/bsp/optee_os/lib/libutils/isoc/bget_malloc.c:442
    c7b8:	aa1403e2 	mov	x2, x20
    c7bc:	aa1303e1 	mov	x1, x19
/home/build/bsp/optee_os/lib/libutils/isoc/bget_malloc.c:443
    c7c0:	a94153f3 	ldp	x19, x20, [sp, #16]
    c7c4:	a8c27bfd 	ldp	x29, x30, [sp], #32
/home/build/bsp/optee_os/lib/libutils/isoc/bget_malloc.c:442
    c7c8:	17fffdbc 	b	beb8 <raw_malloc_return_hook.constprop.0>
/home/build/bsp/optee_os/lib/libutils/isoc/bget_malloc.c:424
    c7cc:	d2800000 	mov	x0, #0x0                   	// #0
    c7d0:	17fffffa 	b	c7b8 <raw_memalign+0x50>
/home/build/bsp/optee_os/lib/libutils/isoc/bget_malloc.c:443
    c7d4:	d2800000 	mov	x0, #0x0                   	// #0
    c7d8:	a94153f3 	ldp	x19, x20, [sp, #16]
    c7dc:	a8c27bfd 	ldp	x29, x30, [sp], #32
    c7e0:	d65f03c0 	ret
    c7e4:	d2800000 	mov	x0, #0x0                   	// #0
    c7e8:	d65f03c0 	ret

000000000000c7ec <raw_malloc>:
raw_malloc():
/home/build/bsp/optee_os/lib/libutils/isoc/bget_malloc.c:452
    c7ec:	aa0303e4 	mov	x4, x3
    c7f0:	aa0203e3 	mov	x3, x2
    c7f4:	d2800202 	mov	x2, #0x10                  	// #16
    c7f8:	17ffffdc 	b	c768 <raw_memalign>

000000000000c7fc <raw_free>:
raw_free():
/home/build/bsp/optee_os/lib/libutils/isoc/bget_malloc.c:456
    c7fc:	12001c42 	and	w2, w2, #0xff
/home/build/bsp/optee_os/lib/libutils/isoc/bget_malloc.c:459
    c800:	b4000040 	cbz	x0, c808 <raw_free+0xc>
/home/build/bsp/optee_os/lib/libutils/isoc/bget_malloc.c:460
    c804:	17fffe95 	b	c258 <brel>
/home/build/bsp/optee_os/lib/libutils/isoc/bget_malloc.c:461
    c808:	d65f03c0 	ret

000000000000c80c <raw_calloc>:
raw_calloc():
/home/build/bsp/optee_os/lib/libutils/isoc/bget_malloc.c:465
    c80c:	a9be7bfd 	stp	x29, x30, [sp, #-32]!
    c810:	910003fd 	mov	x29, sp
    c814:	a90153f3 	stp	x19, x20, [sp, #16]
/home/build/bsp/optee_os/lib/libutils/isoc/bget_malloc.c:472
    c818:	9b037c54 	mul	x20, x2, x3
    c81c:	9bc37c42 	umulh	x2, x2, x3
/home/build/bsp/optee_os/lib/libutils/isoc/bget_malloc.c:465
    c820:	aa0403f3 	mov	x19, x4
/home/build/bsp/optee_os/lib/libutils/isoc/bget_malloc.c:472
    c824:	f100005f 	cmp	x2, #0x0
    c828:	9a9f07e2 	cset	x2, ne  // ne = any
    c82c:	b7f80254 	tbnz	x20, #63, c874 <raw_calloc+0x68>
    c830:	b5000222 	cbnz	x2, c874 <raw_calloc+0x68>
/home/build/bsp/optee_os/lib/libutils/isoc/bget_malloc.c:474
    c834:	8b010282 	add	x2, x20, x1
    c838:	d2f00003 	mov	x3, #0x8000000000000000    	// #-9223372036854775808
    c83c:	8b030043 	add	x3, x2, x3
    c840:	eb01007f 	cmp	x3, x1
    c844:	54000183 	b.cc	c874 <raw_calloc+0x68>  // b.lo, b.ul, b.last
/home/build/bsp/optee_os/lib/libutils/isoc/bget_malloc.c:479
    c848:	f100005f 	cmp	x2, #0x0
/home/build/bsp/optee_os/lib/libutils/isoc/bget_malloc.c:481
    c84c:	aa0003e1 	mov	x1, x0
    c850:	aa0403e3 	mov	x3, x4
    c854:	9a9f1442 	csinc	x2, x2, xzr, ne  // ne = any
    c858:	d2800000 	mov	x0, #0x0                   	// #0
    c85c:	97fffe5d 	bl	c1d0 <bgetz>
/home/build/bsp/optee_os/lib/libutils/isoc/bget_malloc.c:483
    c860:	aa1303e2 	mov	x2, x19
    c864:	aa1403e1 	mov	x1, x20
/home/build/bsp/optee_os/lib/libutils/isoc/bget_malloc.c:484
    c868:	a94153f3 	ldp	x19, x20, [sp, #16]
    c86c:	a8c27bfd 	ldp	x29, x30, [sp], #32
/home/build/bsp/optee_os/lib/libutils/isoc/bget_malloc.c:483
    c870:	17fffd92 	b	beb8 <raw_malloc_return_hook.constprop.0>
/home/build/bsp/optee_os/lib/libutils/isoc/bget_malloc.c:466
    c874:	d2800000 	mov	x0, #0x0                   	// #0
    c878:	17fffffa 	b	c860 <raw_calloc+0x54>

000000000000c87c <raw_realloc>:
raw_realloc():
/home/build/bsp/optee_os/lib/libutils/isoc/bget_malloc.c:488
    c87c:	a9bc7bfd 	stp	x29, x30, [sp, #-64]!
    c880:	910003fd 	mov	x29, sp
    c884:	a90153f3 	stp	x19, x20, [sp, #16]
/home/build/bsp/optee_os/lib/libutils/isoc/bget_malloc.c:493
    c888:	ab010073 	adds	x19, x3, x1
/home/build/bsp/optee_os/lib/libutils/isoc/bget_malloc.c:488
    c88c:	a9025bf5 	stp	x21, x22, [sp, #32]
    c890:	a90363f7 	stp	x23, x24, [sp, #48]
    c894:	aa0303f7 	mov	x23, x3
    c898:	aa0403f8 	mov	x24, x4
/home/build/bsp/optee_os/lib/libutils/isoc/bget_malloc.c:493
    c89c:	54000124 	b.mi	c8c0 <raw_realloc+0x44>  // b.first
    c8a0:	eb01027f 	cmp	x19, x1
    c8a4:	540000e3 	b.cc	c8c0 <raw_realloc+0x44>  // b.lo, b.ul, b.last
/home/build/bsp/optee_os/lib/libutils/isoc/bget_malloc.c:495
    c8a8:	8b020273 	add	x19, x19, x2
    c8ac:	aa0003f5 	mov	x21, x0
    c8b0:	d2f00000 	mov	x0, #0x8000000000000000    	// #-9223372036854775808
    c8b4:	8b000260 	add	x0, x19, x0
    c8b8:	eb02001f 	cmp	x0, x2
    c8bc:	54000142 	b.cs	c8e4 <raw_realloc+0x68>  // b.hs, b.nlast
/home/build/bsp/optee_os/lib/libutils/isoc/bget_malloc.c:489
    c8c0:	d2800014 	mov	x20, #0x0                   	// #0
/home/build/bsp/optee_os/lib/libutils/isoc/bget_malloc.c:523
    c8c4:	aa1803e2 	mov	x2, x24
    c8c8:	aa1703e1 	mov	x1, x23
    c8cc:	aa1403e0 	mov	x0, x20
/home/build/bsp/optee_os/lib/libutils/isoc/bget_malloc.c:524
    c8d0:	a94153f3 	ldp	x19, x20, [sp, #16]
    c8d4:	a9425bf5 	ldp	x21, x22, [sp, #32]
    c8d8:	a94363f7 	ldp	x23, x24, [sp, #48]
    c8dc:	a8c47bfd 	ldp	x29, x30, [sp], #64
/home/build/bsp/optee_os/lib/libutils/isoc/bget_malloc.c:523
    c8e0:	17fffd76 	b	beb8 <raw_malloc_return_hook.constprop.0>
/home/build/bsp/optee_os/lib/libutils/isoc/bget_malloc.c:502
    c8e4:	f100027f 	cmp	x19, #0x0
/home/build/bsp/optee_os/lib/libutils/isoc/bget_malloc.c:504
    c8e8:	aa0403e3 	mov	x3, x4
/home/build/bsp/optee_os/lib/libutils/isoc/bget_malloc.c:502
    c8ec:	9a9f1673 	csinc	x19, x19, xzr, ne  // ne = any
/home/build/bsp/optee_os/lib/libutils/isoc/bget_malloc.c:504
    c8f0:	d2800001 	mov	x1, #0x0                   	// #0
    c8f4:	aa1303e2 	mov	x2, x19
    c8f8:	d2800000 	mov	x0, #0x0                   	// #0
    c8fc:	97fffd7d 	bl	bef0 <bget>
/home/build/bsp/optee_os/lib/libutils/isoc/bget_malloc.c:506
    c900:	f100001f 	cmp	x0, #0x0
/home/build/bsp/optee_os/lib/libutils/isoc/bget_malloc.c:504
    c904:	aa0003f4 	mov	x20, x0
/home/build/bsp/optee_os/lib/libutils/isoc/bget_malloc.c:506
    c908:	fa401aa4 	ccmp	x21, #0x0, #0x4, ne  // ne = any
    c90c:	54fffdc0 	b.eq	c8c4 <raw_realloc+0x48>  // b.none
bget_buf_size():
/home/build/bsp/optee_os/lib/libutils/isoc/bget_malloc.c:208
    c910:	f85f82a1 	ldur	x1, [x21, #-8]
    c914:	928001f6 	mov	x22, #0xfffffffffffffff0    	// #-16
    c918:	cb0102d6 	sub	x22, x22, x1
/home/build/bsp/optee_os/lib/libutils/isoc/bget_malloc.c:209
    c91c:	f10002df 	cmp	x22, #0x0
    c920:	5400004c 	b.gt	c928 <raw_realloc+0xac>
    c924:	97fffd5b 	bl	be90 <bget_buf_size.part.0>
raw_realloc():
/home/build/bsp/optee_os/lib/libutils/isoc/bget_malloc.c:510
    c928:	eb16027f 	cmp	x19, x22
    c92c:	540001ad 	b.le	c960 <raw_realloc+0xe4>
memcpy_unchecked():
/home/build/bsp/optee_os/lib/libutils/isoc/bget_malloc.c:122
    c930:	aa1603e2 	mov	x2, x22
    c934:	aa1503e1 	mov	x1, x21
    c938:	97ffcdb2 	bl	0 <memcpy>
memset_unchecked():
/home/build/bsp/optee_os/lib/libutils/isoc/bget_malloc.c:116
    c93c:	cb160262 	sub	x2, x19, x22
    c940:	8b160280 	add	x0, x20, x22
    c944:	52800001 	mov	w1, #0x0                   	// #0
    c948:	94000168 	bl	cee8 <memset>
raw_realloc():
/home/build/bsp/optee_os/lib/libutils/isoc/bget_malloc.c:520
    c94c:	aa1803e1 	mov	x1, x24
    c950:	aa1503e0 	mov	x0, x21
    c954:	52800002 	mov	w2, #0x0                   	// #0
    c958:	97fffe40 	bl	c258 <brel>
    c95c:	17ffffda 	b	c8c4 <raw_realloc+0x48>
memcpy_unchecked():
/home/build/bsp/optee_os/lib/libutils/isoc/bget_malloc.c:122
    c960:	aa1303e2 	mov	x2, x19
    c964:	aa1503e1 	mov	x1, x21
    c968:	97ffcda6 	bl	0 <memcpy>
    c96c:	17fffff8 	b	c94c <raw_realloc+0xd0>

000000000000c970 <malloc>:
malloc():
/home/build/bsp/optee_os/lib/libutils/isoc/bget_malloc.c:791
    c970:	aa0003e2 	mov	x2, x0
    c974:	d0000023 	adrp	x3, 12000 <_DYNAMIC>
    c978:	d2800001 	mov	x1, #0x0                   	// #0
    c97c:	91162063 	add	x3, x3, #0x588
    c980:	d2800000 	mov	x0, #0x0                   	// #0
    c984:	17ffff9a 	b	c7ec <raw_malloc>

000000000000c988 <calloc>:
calloc():
/home/build/bsp/optee_os/lib/libutils/isoc/bget_malloc.c:809
    c988:	aa0103e3 	mov	x3, x1
    c98c:	aa0003e2 	mov	x2, x0
    c990:	d0000024 	adrp	x4, 12000 <_DYNAMIC>
    c994:	d2800001 	mov	x1, #0x0                   	// #0
    c998:	91162084 	add	x4, x4, #0x588
    c99c:	d2800000 	mov	x0, #0x0                   	// #0
    c9a0:	17ffff9b 	b	c80c <raw_calloc>

000000000000c9a4 <realloc>:
realloc_unlocked():
/home/build/bsp/optee_os/lib/libutils/isoc/bget_malloc.c:817
    c9a4:	aa0103e3 	mov	x3, x1
    c9a8:	d0000024 	adrp	x4, 12000 <_DYNAMIC>
    c9ac:	d2800002 	mov	x2, #0x0                   	// #0
    c9b0:	91162084 	add	x4, x4, #0x588
    c9b4:	d2800001 	mov	x1, #0x0                   	// #0
    c9b8:	17ffffb1 	b	c87c <raw_realloc>

000000000000c9bc <memalign>:
memalign():
/home/build/bsp/optee_os/lib/libutils/isoc/bget_malloc.c:835
    c9bc:	aa0103e3 	mov	x3, x1
    c9c0:	aa0003e2 	mov	x2, x0
    c9c4:	d0000024 	adrp	x4, 12000 <_DYNAMIC>
    c9c8:	d2800001 	mov	x1, #0x0                   	// #0
    c9cc:	91162084 	add	x4, x4, #0x588
    c9d0:	d2800000 	mov	x0, #0x0                   	// #0
    c9d4:	17ffff65 	b	c768 <raw_memalign>

000000000000c9d8 <aligned_alloc>:
aligned_alloc():
/home/build/bsp/optee_os/lib/libutils/isoc/bget_malloc.c:843
    c9d8:	9ac00822 	udiv	x2, x1, x0
    c9dc:	9b008442 	msub	x2, x2, x0, x1
    c9e0:	b5000042 	cbnz	x2, c9e8 <aligned_alloc+0x10>
/home/build/bsp/optee_os/lib/libutils/isoc/bget_malloc.c:846
    c9e4:	17fffff6 	b	c9bc <memalign>
/home/build/bsp/optee_os/lib/libutils/isoc/bget_malloc.c:847
    c9e8:	d2800000 	mov	x0, #0x0                   	// #0
    c9ec:	d65f03c0 	ret

000000000000c9f0 <free>:
free_helper():
/home/build/bsp/optee_os/lib/libutils/isoc/bget_malloc.c:800
    c9f0:	52800002 	mov	w2, #0x0                   	// #0
    c9f4:	d0000021 	adrp	x1, 12000 <_DYNAMIC>
    c9f8:	91162021 	add	x1, x1, #0x588
    c9fc:	17ffff80 	b	c7fc <raw_free>

000000000000ca00 <free_wipe>:
    ca00:	52800022 	mov	w2, #0x1                   	// #1
    ca04:	d0000021 	adrp	x1, 12000 <_DYNAMIC>
    ca08:	91162021 	add	x1, x1, #0x588
    ca0c:	17ffff7c 	b	c7fc <raw_free>

000000000000ca10 <raw_malloc_get_ctx_size>:
raw_malloc_get_ctx_size():
/home/build/bsp/optee_os/lib/libutils/isoc/bget_malloc.c:902
    ca10:	d2801000 	mov	x0, #0x80                  	// #128
    ca14:	d65f03c0 	ret

000000000000ca18 <raw_malloc_init_ctx>:
raw_malloc_init_ctx():
/home/build/bsp/optee_os/lib/libutils/isoc/bget_malloc.c:906
    ca18:	4f000400 	movi	v0.4s, #0x0
    ca1c:	ad000000 	stp	q0, q0, [x0]
/home/build/bsp/optee_os/lib/libutils/isoc/bget_malloc.c:908
    ca20:	a9010000 	stp	x0, x0, [x0, #16]
/home/build/bsp/optee_os/lib/libutils/isoc/bget_malloc.c:906
    ca24:	ad010000 	stp	q0, q0, [x0, #32]
    ca28:	ad020000 	stp	q0, q0, [x0, #64]
    ca2c:	ad030000 	stp	q0, q0, [x0, #96]
/home/build/bsp/optee_os/lib/libutils/isoc/bget_malloc.c:909
    ca30:	d65f03c0 	ret

000000000000ca34 <raw_malloc_add_pool>:
raw_malloc_add_pool():
/home/build/bsp/optee_os/lib/libutils/isoc/bget_malloc.c:912
    ca34:	a9bd7bfd 	stp	x29, x30, [sp, #-48]!
    ca38:	910003fd 	mov	x29, sp
    ca3c:	a90153f3 	stp	x19, x20, [sp, #16]
/home/build/bsp/optee_os/lib/libutils/isoc/bget_malloc.c:915
    ca40:	8b020034 	add	x20, x1, x2
/home/build/bsp/optee_os/lib/libutils/isoc/bget_malloc.c:919
    ca44:	91003c21 	add	x1, x1, #0xf
/home/build/bsp/optee_os/lib/libutils/isoc/bget_malloc.c:920
    ca48:	927cee94 	and	x20, x20, #0xfffffffffffffff0
/home/build/bsp/optee_os/lib/libutils/isoc/bget_malloc.c:912
    ca4c:	a9025bf5 	stp	x21, x22, [sp, #32]
/home/build/bsp/optee_os/lib/libutils/isoc/bget_malloc.c:919
    ca50:	927cec35 	and	x21, x1, #0xfffffffffffffff0
/home/build/bsp/optee_os/lib/libutils/isoc/bget_malloc.c:922
    ca54:	eb1402bf 	cmp	x21, x20
    ca58:	54000508 	b.hi	caf8 <raw_malloc_add_pool+0xc4>  // b.pmore
/home/build/bsp/optee_os/lib/libutils/isoc/bget_malloc.c:922 (discriminator 1)
    ca5c:	cb150294 	sub	x20, x20, x21
    ca60:	f100be9f 	cmp	x20, #0x2f
    ca64:	540004a9 	b.ls	caf8 <raw_malloc_add_pool+0xc4>  // b.plast
    ca68:	aa0003f3 	mov	x19, x0
/home/build/bsp/optee_os/lib/libutils/isoc/bget_malloc.c:928
    ca6c:	f9402000 	ldr	x0, [x0, #64]
    ca70:	b5000060 	cbnz	x0, ca7c <raw_malloc_add_pool+0x48>
/home/build/bsp/optee_os/lib/libutils/isoc/bget_malloc.c:928 (discriminator 1)
    ca74:	f10ffe9f 	cmp	x20, #0x3ff
    ca78:	54000409 	b.ls	caf8 <raw_malloc_add_pool+0xc4>  // b.plast
/home/build/bsp/optee_os/lib/libutils/isoc/bget_malloc.c:934
    ca7c:	aa1303e2 	mov	x2, x19
    ca80:	aa1403e1 	mov	x1, x20
    ca84:	aa1503e0 	mov	x0, x21
    ca88:	97fffed9 	bl	c5ec <bpool>
/home/build/bsp/optee_os/lib/libutils/isoc/bget_malloc.c:935
    ca8c:	a943da60 	ldp	x0, x22, [x19, #56]
realloc_unlocked():
/home/build/bsp/optee_os/lib/libutils/isoc/bget_malloc.c:817
    ca90:	aa1303e4 	mov	x4, x19
    ca94:	d2800002 	mov	x2, #0x0                   	// #0
    ca98:	d2800001 	mov	x1, #0x0                   	// #0
raw_malloc_add_pool():
/home/build/bsp/optee_os/lib/libutils/isoc/bget_malloc.c:935
    ca9c:	910006d6 	add	x22, x22, #0x1
realloc_unlocked():
/home/build/bsp/optee_os/lib/libutils/isoc/bget_malloc.c:817
    caa0:	d37ceec3 	lsl	x3, x22, #4
    caa4:	97ffff76 	bl	c87c <raw_realloc>
raw_malloc_add_pool():
/home/build/bsp/optee_os/lib/libutils/isoc/bget_malloc.c:937
    caa8:	b5000140 	cbnz	x0, cad0 <raw_malloc_add_pool+0x9c>
/home/build/bsp/optee_os/lib/libutils/isoc/bget_malloc.c:937 (discriminator 1)
    caac:	b0000023 	adrp	x3, 11000 <__func__.0+0x4cb>
    cab0:	9109ec63 	add	x3, x3, #0x27b
    cab4:	90000021 	adrp	x1, 10000 <__func__.0+0x28>
    cab8:	b0000020 	adrp	x0, 11000 <__func__.0+0x4cb>
    cabc:	9100c463 	add	x3, x3, #0x31
    cac0:	913f0821 	add	x1, x1, #0xfc2
    cac4:	9109e400 	add	x0, x0, #0x279
    cac8:	52807522 	mov	w2, #0x3a9                 	// #937
    cacc:	97fffced 	bl	be80 <_assert_trap>
/home/build/bsp/optee_os/lib/libutils/isoc/bget_malloc.c:939
    cad0:	f9402261 	ldr	x1, [x19, #64]
/home/build/bsp/optee_os/lib/libutils/isoc/bget_malloc.c:938
    cad4:	f9001e60 	str	x0, [x19, #56]
/home/build/bsp/optee_os/lib/libutils/isoc/bget_malloc.c:939
    cad8:	d37cec22 	lsl	x2, x1, #4
    cadc:	8b011001 	add	x1, x0, x1, lsl #4
    cae0:	f8226815 	str	x21, [x0, x2]
/home/build/bsp/optee_os/lib/libutils/isoc/bget_malloc.c:942
    cae4:	b9407260 	ldr	w0, [x19, #112]
/home/build/bsp/optee_os/lib/libutils/isoc/bget_malloc.c:940
    cae8:	f9000434 	str	x20, [x1, #8]
/home/build/bsp/optee_os/lib/libutils/isoc/bget_malloc.c:942
    caec:	0b140000 	add	w0, w0, w20
/home/build/bsp/optee_os/lib/libutils/isoc/bget_malloc.c:944
    caf0:	f9002276 	str	x22, [x19, #64]
/home/build/bsp/optee_os/lib/libutils/isoc/bget_malloc.c:942
    caf4:	b9007260 	str	w0, [x19, #112]
/home/build/bsp/optee_os/lib/libutils/isoc/bget_malloc.c:945
    caf8:	a94153f3 	ldp	x19, x20, [sp, #16]
    cafc:	a9425bf5 	ldp	x21, x22, [sp, #32]
    cb00:	a8c37bfd 	ldp	x29, x30, [sp], #48
    cb04:	d65f03c0 	ret

000000000000cb08 <raw_malloc_buffer_overlaps_heap>:
raw_malloc_buffer_overlaps_heap():
/home/build/bsp/optee_os/lib/libutils/isoc/bget_malloc.c:951
    cb08:	ab020022 	adds	x2, x1, x2
/home/build/bsp/optee_os/lib/libutils/isoc/bget_malloc.c:949
    cb0c:	aa0003e6 	mov	x6, x0
/home/build/bsp/optee_os/lib/libutils/isoc/bget_malloc.c:956
    cb10:	f9402008 	ldr	x8, [x0, #64]
    cb14:	9a9f37e9 	cset	x9, cs  // cs = hs, nlast
    cb18:	d2800005 	mov	x5, #0x0                   	// #0
/home/build/bsp/optee_os/lib/libutils/isoc/bget_malloc.c:956 (discriminator 1)
    cb1c:	eb05011f 	cmp	x8, x5
    cb20:	54000061 	b.ne	cb2c <raw_malloc_buffer_overlaps_heap+0x24>  // b.any
/home/build/bsp/optee_os/lib/libutils/isoc/bget_malloc.c:968
    cb24:	52800000 	mov	w0, #0x0                   	// #0
/home/build/bsp/optee_os/lib/libutils/isoc/bget_malloc.c:969
    cb28:	d65f03c0 	ret
/home/build/bsp/optee_os/lib/libutils/isoc/bget_malloc.c:957
    cb2c:	f9401cc3 	ldr	x3, [x6, #56]
    cb30:	d37ceca0 	lsl	x0, x5, #4
    cb34:	8b051064 	add	x4, x3, x5, lsl #4
    cb38:	f8606867 	ldr	x7, [x3, x0]
/home/build/bsp/optee_os/lib/libutils/isoc/bget_malloc.c:958
    cb3c:	f9400483 	ldr	x3, [x4, #8]
/home/build/bsp/optee_os/lib/libutils/isoc/bget_malloc.c:960
    cb40:	ab070064 	adds	x4, x3, x7
    cb44:	1a9f37e3 	cset	w3, cs  // cs = hs, nlast
    cb48:	2a090060 	orr	w0, w3, w9
    cb4c:	35fffee0 	cbnz	w0, cb28 <raw_malloc_buffer_overlaps_heap+0x20>
/home/build/bsp/optee_os/lib/libutils/isoc/bget_malloc.c:963
    cb50:	eb07003f 	cmp	x1, x7
    cb54:	1a9f37e3 	cset	w3, cs  // cs = hs, nlast
    cb58:	eb04003f 	cmp	x1, x4
    cb5c:	1a9f27e0 	cset	w0, cc  // cc = lo, ul, last
    cb60:	6a000060 	ands	w0, w3, w0
    cb64:	54fffe21 	b.ne	cb28 <raw_malloc_buffer_overlaps_heap+0x20>  // b.any
/home/build/bsp/optee_os/lib/libutils/isoc/bget_malloc.c:964 (discriminator 1)
    cb68:	eb07005f 	cmp	x2, x7
    cb6c:	1a9f97e3 	cset	w3, hi  // hi = pmore
    cb70:	eb04005f 	cmp	x2, x4
    cb74:	1a9f27e0 	cset	w0, cc  // cc = lo, ul, last
/home/build/bsp/optee_os/lib/libutils/isoc/bget_malloc.c:963 (discriminator 1)
    cb78:	6a000060 	ands	w0, w3, w0
    cb7c:	54fffd61 	b.ne	cb28 <raw_malloc_buffer_overlaps_heap+0x20>  // b.any
/home/build/bsp/optee_os/lib/libutils/isoc/bget_malloc.c:956 (discriminator 2)
    cb80:	910004a5 	add	x5, x5, #0x1
    cb84:	17ffffe6 	b	cb1c <raw_malloc_buffer_overlaps_heap+0x14>

000000000000cb88 <raw_malloc_buffer_is_within_alloced>:
raw_malloc_buffer_is_within_alloced():
/home/build/bsp/optee_os/lib/libutils/isoc/bget_malloc.c:982
    cb88:	ab020022 	adds	x2, x1, x2
    cb8c:	54000a22 	b.cs	ccd0 <raw_malloc_buffer_is_within_alloced+0x148>  // b.hs, b.nlast
bpool_foreach_iterator_init():
/home/build/bsp/optee_os/lib/libutils/isoc/bget_malloc.c:362
    cb90:	f9401c08 	ldr	x8, [x0, #56]
    cb94:	aa0003e7 	mov	x7, x0
raw_malloc_buffer_is_within_alloced():
/home/build/bsp/optee_os/lib/libutils/isoc/bget_malloc.c:974
    cb98:	d2800006 	mov	x6, #0x0                   	// #0
bpool_foreach_pool():
/home/build/bsp/optee_os/lib/libutils/isoc/bget_malloc.c:371
    cb9c:	d2f0000a 	mov	x10, #0x8000000000000000    	// #-9223372036854775808
    cba0:	928001eb 	mov	x11, #0xfffffffffffffff0    	// #-16
bpool_foreach_iterator_init():
/home/build/bsp/optee_os/lib/libutils/isoc/bget_malloc.c:362
    cba4:	f9400104 	ldr	x4, [x8]
raw_malloc_buffer_is_within_alloced():
/home/build/bsp/optee_os/lib/libutils/isoc/bget_malloc.c:974
    cba8:	aa0403e5 	mov	x5, x4
bpool_foreach_pool():
/home/build/bsp/optee_os/lib/libutils/isoc/bget_malloc.c:369
    cbac:	f9400483 	ldr	x3, [x4, #8]
/home/build/bsp/optee_os/lib/libutils/isoc/bget_malloc.c:371
    cbb0:	eb0a007f 	cmp	x3, x10
    cbb4:	54000860 	b.eq	ccc0 <raw_malloc_buffer_is_within_alloced+0x138>  // b.none
raw_malloc_buffer_is_within_alloced():
/home/build/bsp/optee_os/lib/libutils/isoc/bget_malloc.c:973
    cbb8:	a9bf7bfd 	stp	x29, x30, [sp, #-16]!
    cbbc:	910003fd 	mov	x29, sp
    cbc0:	1400000d 	b	cbf4 <raw_malloc_buffer_is_within_alloced+0x6c>
bpool_foreach_pool():
/home/build/bsp/optee_os/lib/libutils/isoc/bget_malloc.c:388
    cbc4:	910040a5 	add	x5, x5, #0x10
raw_malloc_buffer_is_within_alloced():
/home/build/bsp/optee_os/lib/libutils/isoc/bget_malloc.c:991
    cbc8:	8b0300a3 	add	x3, x5, x3
/home/build/bsp/optee_os/lib/libutils/isoc/bget_malloc.c:992
    cbcc:	eb03005f 	cmp	x2, x3
    cbd0:	1a9f87e3 	cset	w3, ls  // ls = plast
    cbd4:	eb05003f 	cmp	x1, x5
    cbd8:	1a9f37e0 	cset	w0, cs  // cs = hs, nlast
    cbdc:	6a000060 	ands	w0, w3, w0
    cbe0:	54000661 	b.ne	ccac <raw_malloc_buffer_is_within_alloced+0x124>  // b.any
bpool_foreach_pool():
/home/build/bsp/optee_os/lib/libutils/isoc/bget_malloc.c:369
    cbe4:	f9400483 	ldr	x3, [x4, #8]
raw_malloc_buffer_is_within_alloced():
/home/build/bsp/optee_os/lib/libutils/isoc/bget_malloc.c:974
    cbe8:	aa0403e5 	mov	x5, x4
bpool_foreach_pool():
/home/build/bsp/optee_os/lib/libutils/isoc/bget_malloc.c:371
    cbec:	eb0a007f 	cmp	x3, x10
    cbf0:	54000540 	b.eq	cc98 <raw_malloc_buffer_is_within_alloced+0x110>  // b.none
/home/build/bsp/optee_os/lib/libutils/isoc/bget_malloc.c:374
    cbf4:	b6f80123 	tbz	x3, #63, cc18 <raw_malloc_buffer_is_within_alloced+0x90>
/home/build/bsp/optee_os/lib/libutils/isoc/bget_malloc.c:376
    cbf8:	cb0303e9 	neg	x9, x3
/home/build/bsp/optee_os/lib/libutils/isoc/bget_malloc.c:378
    cbfc:	52800000 	mov	w0, #0x0                   	// #0
/home/build/bsp/optee_os/lib/libutils/isoc/bget_malloc.c:391
    cc00:	8b090084 	add	x4, x4, x9
bpool_foreach():
/home/build/bsp/optee_os/lib/libutils/isoc/bget_malloc.c:403
    cc04:	35ffff00 	cbnz	w0, cbe4 <raw_malloc_buffer_is_within_alloced+0x5c>
bget_buf_size():
/home/build/bsp/optee_os/lib/libutils/isoc/bget_malloc.c:208
    cc08:	cb030163 	sub	x3, x11, x3
/home/build/bsp/optee_os/lib/libutils/isoc/bget_malloc.c:209
    cc0c:	f100007f 	cmp	x3, #0x0
    cc10:	54fffdac 	b.gt	cbc4 <raw_malloc_buffer_is_within_alloced+0x3c>
    cc14:	97fffc9f 	bl	be90 <bget_buf_size.part.0>
bpool_foreach_pool():
/home/build/bsp/optee_os/lib/libutils/isoc/bget_malloc.c:384
    cc18:	f9400c80 	ldr	x0, [x4, #24]
    cc1c:	f9400800 	ldr	x0, [x0, #16]
    cc20:	eb04001f 	cmp	x0, x4
    cc24:	54000140 	b.eq	cc4c <raw_malloc_buffer_is_within_alloced+0xc4>  // b.none
    cc28:	b0000023 	adrp	x3, 11000 <__func__.0+0x4cb>
    cc2c:	9109ec63 	add	x3, x3, #0x27b
    cc30:	90000021 	adrp	x1, 10000 <__func__.0+0x28>
    cc34:	b0000020 	adrp	x0, 11000 <__func__.0+0x4cb>
    cc38:	91011463 	add	x3, x3, #0x45
    cc3c:	913f0821 	add	x1, x1, #0xfc2
    cc40:	91009400 	add	x0, x0, #0x25
    cc44:	52803002 	mov	w2, #0x180                 	// #384
    cc48:	97fffc8e 	bl	be80 <_assert_trap>
/home/build/bsp/optee_os/lib/libutils/isoc/bget_malloc.c:385
    cc4c:	f9400880 	ldr	x0, [x4, #16]
    cc50:	f9400c00 	ldr	x0, [x0, #24]
    cc54:	eb04001f 	cmp	x0, x4
    cc58:	54000140 	b.eq	cc80 <raw_malloc_buffer_is_within_alloced+0xf8>  // b.none
    cc5c:	b0000023 	adrp	x3, 11000 <__func__.0+0x4cb>
    cc60:	9109ec63 	add	x3, x3, #0x27b
    cc64:	90000021 	adrp	x1, 10000 <__func__.0+0x28>
    cc68:	b0000020 	adrp	x0, 11000 <__func__.0+0x4cb>
    cc6c:	91011463 	add	x3, x3, #0x45
    cc70:	913f0821 	add	x1, x1, #0xfc2
    cc74:	91010000 	add	x0, x0, #0x40
    cc78:	52803022 	mov	w2, #0x181                 	// #385
    cc7c:	97fffc81 	bl	be80 <_assert_trap>
    cc80:	aa0303e9 	mov	x9, x3
/home/build/bsp/optee_os/lib/libutils/isoc/bget_malloc.c:381
    cc84:	52800020 	mov	w0, #0x1                   	// #1
    cc88:	17ffffde 	b	cc00 <raw_malloc_buffer_is_within_alloced+0x78>
bpool_foreach():
/home/build/bsp/optee_os/lib/libutils/isoc/bget_malloc.c:412
    cc8c:	d37cecc0 	lsl	x0, x6, #4
    cc90:	f8606904 	ldr	x4, [x8, x0]
    cc94:	17ffffd4 	b	cbe4 <raw_malloc_buffer_is_within_alloced+0x5c>
/home/build/bsp/optee_os/lib/libutils/isoc/bget_malloc.c:408
    cc98:	f94020e0 	ldr	x0, [x7, #64]
    cc9c:	910004c6 	add	x6, x6, #0x1
    cca0:	eb0000df 	cmp	x6, x0
    cca4:	54ffff43 	b.cc	cc8c <raw_malloc_buffer_is_within_alloced+0x104>  // b.lo, b.ul, b.last
raw_malloc_buffer_is_within_alloced():
/home/build/bsp/optee_os/lib/libutils/isoc/bget_malloc.c:983
    cca8:	52800000 	mov	w0, #0x0                   	// #0
/home/build/bsp/optee_os/lib/libutils/isoc/bget_malloc.c:997
    ccac:	a8c17bfd 	ldp	x29, x30, [sp], #16
    ccb0:	d65f03c0 	ret
bpool_foreach():
/home/build/bsp/optee_os/lib/libutils/isoc/bget_malloc.c:412
    ccb4:	d37cecc0 	lsl	x0, x6, #4
    ccb8:	f8606904 	ldr	x4, [x8, x0]
    ccbc:	17ffffbb 	b	cba8 <raw_malloc_buffer_is_within_alloced+0x20>
/home/build/bsp/optee_os/lib/libutils/isoc/bget_malloc.c:408
    ccc0:	f94020e0 	ldr	x0, [x7, #64]
    ccc4:	910004c6 	add	x6, x6, #0x1
    ccc8:	eb0000df 	cmp	x6, x0
    cccc:	54ffff43 	b.cc	ccb4 <raw_malloc_buffer_is_within_alloced+0x12c>  // b.lo, b.ul, b.last
raw_malloc_buffer_is_within_alloced():
/home/build/bsp/optee_os/lib/libutils/isoc/bget_malloc.c:983
    ccd0:	52800000 	mov	w0, #0x0                   	// #0
/home/build/bsp/optee_os/lib/libutils/isoc/bget_malloc.c:997
    ccd4:	d65f03c0 	ret

000000000000ccd8 <raw_malloc_get_stats>:
raw_malloc_get_stats():
/home/build/bsp/optee_os/lib/libutils/isoc/bget_malloc.c:1001
    ccd8:	a9be7bfd 	stp	x29, x30, [sp, #-32]!
    ccdc:	aa0103e3 	mov	x3, x1
memcpy_unchecked():
/home/build/bsp/optee_os/lib/libutils/isoc/bget_malloc.c:122
    cce0:	d2800702 	mov	x2, #0x38                  	// #56
raw_malloc_get_stats():
/home/build/bsp/optee_os/lib/libutils/isoc/bget_malloc.c:1001
    cce4:	910003fd 	mov	x29, sp
    cce8:	f9000bf3 	str	x19, [sp, #16]
    ccec:	aa0003f3 	mov	x19, x0
memcpy_unchecked():
/home/build/bsp/optee_os/lib/libutils/isoc/bget_malloc.c:122
    ccf0:	91012001 	add	x1, x0, #0x48
    ccf4:	aa0303e0 	mov	x0, x3
    ccf8:	97ffccc2 	bl	0 <memcpy>
    ccfc:	aa0003e3 	mov	x3, x0
raw_malloc_get_stats():
/home/build/bsp/optee_os/lib/libutils/isoc/bget_malloc.c:1003
    cd00:	f9401260 	ldr	x0, [x19, #32]
/home/build/bsp/optee_os/lib/libutils/isoc/bget_malloc.c:1004
    cd04:	f9400bf3 	ldr	x19, [sp, #16]
/home/build/bsp/optee_os/lib/libutils/isoc/bget_malloc.c:1003
    cd08:	b9002060 	str	w0, [x3, #32]
/home/build/bsp/optee_os/lib/libutils/isoc/bget_malloc.c:1004
    cd0c:	a8c27bfd 	ldp	x29, x30, [sp], #32
    cd10:	d65f03c0 	ret

000000000000cd14 <malloc_get_stats>:
gen_malloc_get_stats():
/home/build/bsp/optee_os/lib/libutils/isoc/bget_malloc.c:316
    cd14:	aa0003e1 	mov	x1, x0
    cd18:	d0000020 	adrp	x0, 12000 <_DYNAMIC>
    cd1c:	91162000 	add	x0, x0, #0x588
    cd20:	17ffffee 	b	ccd8 <raw_malloc_get_stats>

000000000000cd24 <malloc_add_pool>:
gen_malloc_add_pool():
/home/build/bsp/optee_os/lib/libutils/isoc/bget_malloc.c:872
    cd24:	aa0103e2 	mov	x2, x1
    cd28:	aa0003e1 	mov	x1, x0
    cd2c:	d0000020 	adrp	x0, 12000 <_DYNAMIC>
    cd30:	91162000 	add	x0, x0, #0x588
    cd34:	17ffff40 	b	ca34 <raw_malloc_add_pool>

000000000000cd38 <malloc_buffer_is_within_alloced>:
gen_malloc_buffer_is_within_alloced():
/home/build/bsp/optee_os/lib/libutils/isoc/bget_malloc.c:882
    cd38:	aa0103e2 	mov	x2, x1
    cd3c:	aa0003e1 	mov	x1, x0
    cd40:	d0000020 	adrp	x0, 12000 <_DYNAMIC>
    cd44:	91162000 	add	x0, x0, #0x588
    cd48:	17ffff90 	b	cb88 <raw_malloc_buffer_is_within_alloced>

000000000000cd4c <malloc_buffer_overlaps_heap>:
gen_malloc_buffer_overlaps_heap():
/home/build/bsp/optee_os/lib/libutils/isoc/bget_malloc.c:894
    cd4c:	aa0103e2 	mov	x2, x1
    cd50:	aa0003e1 	mov	x1, x0
    cd54:	d0000020 	adrp	x0, 12000 <_DYNAMIC>
    cd58:	91162000 	add	x0, x0, #0x588
    cd5c:	17ffff6b 	b	cb08 <raw_malloc_buffer_overlaps_heap>

000000000000cd60 <snprintf>:
snprintf():
/home/build/bsp/optee_os/lib/libutils/isoc/snprintf.c:10
    cd60:	a9ad7bfd 	stp	x29, x30, [sp, #-304]!
    cd64:	910003fd 	mov	x29, sp
    cd68:	a90153f3 	stp	x19, x20, [sp, #16]
    cd6c:	d0000033 	adrp	x19, 12000 <_DYNAMIC>
    cd70:	aa0003f4 	mov	x20, x0
    cd74:	f9409a60 	ldr	x0, [x19, #304]
    cd78:	a9025bf5 	stp	x21, x22, [sp, #32]
    cd7c:	aa0103f5 	mov	x21, x1
    cd80:	3d8023e0 	str	q0, [sp, #128]
    cd84:	aa0203f6 	mov	x22, x2
/home/build/bsp/optee_os/lib/libutils/isoc/snprintf.c:15
    cd88:	d2800402 	mov	x2, #0x20                  	// #32
/home/build/bsp/optee_os/lib/libutils/isoc/snprintf.c:10
    cd8c:	3d8027e1 	str	q1, [sp, #144]
    cd90:	3d802be2 	str	q2, [sp, #160]
    cd94:	3d802fe3 	str	q3, [sp, #176]
    cd98:	3d8033e4 	str	q4, [sp, #192]
    cd9c:	3d8037e5 	str	q5, [sp, #208]
    cda0:	3d803be6 	str	q6, [sp, #224]
    cda4:	3d803fe7 	str	q7, [sp, #240]
    cda8:	a91093e3 	stp	x3, x4, [sp, #264]
/home/build/bsp/optee_os/lib/libutils/isoc/snprintf.c:15
    cdac:	9100c3e3 	add	x3, sp, #0x30
/home/build/bsp/optee_os/lib/libutils/isoc/snprintf.c:10
    cdb0:	a9119be5 	stp	x5, x6, [sp, #280]
    cdb4:	f90097e7 	str	x7, [sp, #296]
    cdb8:	f9400001 	ldr	x1, [x0]
    cdbc:	f9003fe1 	str	x1, [sp, #120]
    cdc0:	d2800001 	mov	x1, #0x0                   	// #0
/home/build/bsp/optee_os/lib/libutils/isoc/snprintf.c:14
    cdc4:	9104c3e0 	add	x0, sp, #0x130
    cdc8:	a90583e0 	stp	x0, x0, [sp, #88]
    cdcc:	910403e0 	add	x0, sp, #0x100
/home/build/bsp/optee_os/lib/libutils/isoc/snprintf.c:15
    cdd0:	910163e1 	add	x1, sp, #0x58
/home/build/bsp/optee_os/lib/libutils/isoc/snprintf.c:14
    cdd4:	f90037e0 	str	x0, [sp, #104]
    cdd8:	128004e0 	mov	w0, #0xffffffd8            	// #-40
    cddc:	b90073e0 	str	w0, [sp, #112]
    cde0:	12800fe0 	mov	w0, #0xffffff80            	// #-128
    cde4:	b90077e0 	str	w0, [sp, #116]
/home/build/bsp/optee_os/lib/libutils/isoc/snprintf.c:15
    cde8:	aa0303e0 	mov	x0, x3
    cdec:	97ffcc85 	bl	0 <memcpy>
    cdf0:	aa0003e3 	mov	x3, x0
    cdf4:	aa1603e2 	mov	x2, x22
    cdf8:	aa1503e1 	mov	x1, x21
    cdfc:	aa1403e0 	mov	x0, x20
    ce00:	52800004 	mov	w4, #0x0                   	// #0
    ce04:	97ffce37 	bl	6e0 <__vsnprintf>
/home/build/bsp/optee_os/lib/libutils/isoc/snprintf.c:19
    ce08:	f9409a73 	ldr	x19, [x19, #304]
    ce0c:	f9403fe1 	ldr	x1, [sp, #120]
    ce10:	f9400262 	ldr	x2, [x19]
    ce14:	eb020021 	subs	x1, x1, x2
    ce18:	d2800002 	mov	x2, #0x0                   	// #0
    ce1c:	54000040 	b.eq	ce24 <snprintf+0xc4>  // b.none
    ce20:	97ffce24 	bl	6b0 <__stack_chk_fail>
    ce24:	a94153f3 	ldp	x19, x20, [sp, #16]
    ce28:	a9425bf5 	ldp	x21, x22, [sp, #32]
    ce2c:	a8d37bfd 	ldp	x29, x30, [sp], #304
    ce30:	d65f03c0 	ret

000000000000ce34 <vsnprintf>:
vsnprintf():
/home/build/bsp/optee_os/lib/libutils/isoc/snprintf.c:22
    ce34:	a9bb7bfd 	stp	x29, x30, [sp, #-80]!
/home/build/bsp/optee_os/lib/libutils/isoc/snprintf.c:23
    ce38:	9100c3e4 	add	x4, sp, #0x30
/home/build/bsp/optee_os/lib/libutils/isoc/snprintf.c:22
    ce3c:	910003fd 	mov	x29, sp
    ce40:	a90153f3 	stp	x19, x20, [sp, #16]
    ce44:	aa0003f3 	mov	x19, x0
    ce48:	aa0103f4 	mov	x20, x1
/home/build/bsp/optee_os/lib/libutils/isoc/snprintf.c:23
    ce4c:	aa0403e0 	mov	x0, x4
/home/build/bsp/optee_os/lib/libutils/isoc/snprintf.c:22
    ce50:	aa0303e1 	mov	x1, x3
    ce54:	f90013f5 	str	x21, [sp, #32]
    ce58:	aa0203f5 	mov	x21, x2
/home/build/bsp/optee_os/lib/libutils/isoc/snprintf.c:23
    ce5c:	d2800402 	mov	x2, #0x20                  	// #32
    ce60:	97ffcc68 	bl	0 <memcpy>
    ce64:	aa1503e2 	mov	x2, x21
    ce68:	aa0003e3 	mov	x3, x0
    ce6c:	aa1403e1 	mov	x1, x20
    ce70:	aa1303e0 	mov	x0, x19
    ce74:	52800004 	mov	w4, #0x0                   	// #0
    ce78:	97ffce1a 	bl	6e0 <__vsnprintf>
/home/build/bsp/optee_os/lib/libutils/isoc/snprintf.c:24
    ce7c:	a94153f3 	ldp	x19, x20, [sp, #16]
    ce80:	f94013f5 	ldr	x21, [sp, #32]
    ce84:	a8c57bfd 	ldp	x29, x30, [sp], #80
    ce88:	d65f03c0 	ret

000000000000ce8c <memmove>:
memmove():
/home/build/bsp/optee_os/lib/libutils/isoc/newlib/memmove.c:96
    ce8c:	eb01001f 	cmp	x0, x1
    ce90:	54000289 	b.ls	cee0 <memmove+0x54>  // b.plast
/home/build/bsp/optee_os/lib/libutils/isoc/newlib/memmove.c:96 (discriminator 1)
    ce94:	8b020023 	add	x3, x1, x2
    ce98:	eb00007f 	cmp	x3, x0
    ce9c:	54000229 	b.ls	cee0 <memmove+0x54>  // b.plast
/home/build/bsp/optee_os/lib/libutils/isoc/newlib/memmove.c:99
    cea0:	8b020004 	add	x4, x0, x2
/home/build/bsp/optee_os/lib/libutils/isoc/newlib/memmove.c:100
    cea4:	aa2203e2 	mvn	x2, x2
    cea8:	d2800001 	mov	x1, #0x0                   	// #0
    ceac:	d1000421 	sub	x1, x1, #0x1
    ceb0:	eb01005f 	cmp	x2, x1
    ceb4:	54000041 	b.ne	cebc <memmove+0x30>  // b.any
/home/build/bsp/optee_os/lib/libutils/isoc/newlib/memmove.c:157
    ceb8:	d65f03c0 	ret
/home/build/bsp/optee_os/lib/libutils/isoc/newlib/memmove.c:101
    cebc:	38616865 	ldrb	w5, [x3, x1]
    cec0:	38216885 	strb	w5, [x4, x1]
    cec4:	17fffffa 	b	ceac <memmove+0x20>
/home/build/bsp/optee_os/lib/libutils/isoc/newlib/memmove.c:104
    cec8:	38636824 	ldrb	w4, [x1, x3]
    cecc:	38236804 	strb	w4, [x0, x3]
    ced0:	91000463 	add	x3, x3, #0x1
/home/build/bsp/optee_os/lib/libutils/isoc/newlib/memmove.c:103
    ced4:	eb03005f 	cmp	x2, x3
    ced8:	54ffff81 	b.ne	cec8 <memmove+0x3c>  // b.any
    cedc:	17fffff7 	b	ceb8 <memmove+0x2c>
    cee0:	d2800003 	mov	x3, #0x0                   	// #0
    cee4:	17fffffc 	b	ced4 <memmove+0x48>

000000000000cee8 <memset>:
memset():
/home/build/bsp/optee_os/lib/libutils/isoc/newlib/memset.c:125
    cee8:	d2800003 	mov	x3, #0x0                   	// #0
    ceec:	eb03005f 	cmp	x2, x3
    cef0:	54000041 	b.ne	cef8 <memset+0x10>  // b.any
/home/build/bsp/optee_os/lib/libutils/isoc/newlib/memset.c:129
    cef4:	d65f03c0 	ret
/home/build/bsp/optee_os/lib/libutils/isoc/newlib/memset.c:126
    cef8:	38236801 	strb	w1, [x0, x3]
    cefc:	91000463 	add	x3, x3, #0x1
    cf00:	17fffffb 	b	ceec <memset+0x4>

000000000000cf04 <strcmp>:
strcmp():
/home/build/bsp/optee_os/lib/libutils/isoc/newlib/strcmp.c:99
    cf04:	d2800002 	mov	x2, #0x0                   	// #0
    cf08:	38626803 	ldrb	w3, [x0, x2]
    cf0c:	38626824 	ldrb	w4, [x1, x2]
    cf10:	34000083 	cbz	w3, cf20 <strcmp+0x1c>
/home/build/bsp/optee_os/lib/libutils/isoc/newlib/strcmp.c:99 (discriminator 1)
    cf14:	91000442 	add	x2, x2, #0x1
    cf18:	6b04007f 	cmp	w3, w4
    cf1c:	54ffff60 	b.eq	cf08 <strcmp+0x4>  // b.none
/home/build/bsp/optee_os/lib/libutils/isoc/newlib/strcmp.c:142
    cf20:	4b040060 	sub	w0, w3, w4
    cf24:	d65f03c0 	ret

000000000000cf28 <strlcpy>:
strlcpy():
/home/build/bsp/optee_os/lib/libutils/ext/strlcpy.c:49
    cf28:	aa0103e3 	mov	x3, x1
/home/build/bsp/optee_os/lib/libutils/ext/strlcpy.c:53
    cf2c:	b4000142 	cbz	x2, cf54 <strlcpy+0x2c>
/home/build/bsp/optee_os/lib/libutils/ext/strlcpy.c:53 (discriminator 1)
    cf30:	f1000442 	subs	x2, x2, #0x1
    cf34:	540000e0 	b.eq	cf50 <strlcpy+0x28>  // b.none
/home/build/bsp/optee_os/lib/libutils/ext/strlcpy.c:55
    cf38:	38401464 	ldrb	w4, [x3], #1
    cf3c:	38001404 	strb	w4, [x0], #1
    cf40:	35ffff84 	cbnz	w4, cf30 <strlcpy+0x8>
/home/build/bsp/optee_os/lib/libutils/ext/strlcpy.c:68
    cf44:	cb010060 	sub	x0, x3, x1
    cf48:	d1000400 	sub	x0, x0, #0x1
/home/build/bsp/optee_os/lib/libutils/ext/strlcpy.c:69
    cf4c:	d65f03c0 	ret
/home/build/bsp/optee_os/lib/libutils/ext/strlcpy.c:63
    cf50:	3900001f 	strb	wzr, [x0]
/home/build/bsp/optee_os/lib/libutils/ext/strlcpy.c:64 (discriminator 1)
    cf54:	38401460 	ldrb	w0, [x3], #1
    cf58:	35ffffe0 	cbnz	w0, cf54 <strlcpy+0x2c>
    cf5c:	17fffffa 	b	cf44 <strlcpy+0x1c>

000000000000cf60 <mempool_alloc_pool>:
mempool_alloc_pool():
/home/build/bsp/optee_os/lib/libutils/ext/mempool.c:121
    cf60:	a9bd7bfd 	stp	x29, x30, [sp, #-48]!
    cf64:	910003fd 	mov	x29, sp
    cf68:	f90013f5 	str	x21, [sp, #32]
    cf6c:	aa0003f5 	mov	x21, x0
/home/build/bsp/optee_os/lib/libutils/ext/mempool.c:122
    cf70:	d2800020 	mov	x0, #0x1                   	// #1
/home/build/bsp/optee_os/lib/libutils/ext/mempool.c:121
    cf74:	a90153f3 	stp	x19, x20, [sp, #16]
    cf78:	aa0103f3 	mov	x19, x1
/home/build/bsp/optee_os/lib/libutils/ext/mempool.c:122
    cf7c:	d2800301 	mov	x1, #0x18                  	// #24
    cf80:	97fffe82 	bl	c988 <calloc>
/home/build/bsp/optee_os/lib/libutils/ext/mempool.c:125
    cf84:	f2400abf 	tst	x21, #0x7
    cf88:	54000140 	b.eq	cfb0 <mempool_alloc_pool+0x50>  // b.none
_assert_trap():
/home/build/bsp/optee_os/lib/libutils/isoc/include/assert.h:19
    cf8c:	b0000023 	adrp	x3, 11000 <__func__.0+0x4cb>
    cf90:	b0000021 	adrp	x1, 11000 <__func__.0+0x4cb>
    cf94:	b0000020 	adrp	x0, 11000 <__func__.0+0x4cb>
    cf98:	910d7063 	add	x3, x3, #0x35c
    cf9c:	910b4c21 	add	x1, x1, #0x2d3
    cfa0:	910bb800 	add	x0, x0, #0x2ee
    cfa4:	52800fa2 	mov	w2, #0x7d                  	// #125
    cfa8:	97ffe765 	bl	6d3c <_assert_log>
/home/build/bsp/optee_os/lib/libutils/isoc/include/assert.h:20
    cfac:	97ffe775 	bl	6d80 <_assert_break>
    cfb0:	aa0003f4 	mov	x20, x0
mempool_alloc_pool():
/home/build/bsp/optee_os/lib/libutils/ext/mempool.c:127
    cfb4:	b4000300 	cbz	x0, d014 <mempool_alloc_pool+0xb4>
/home/build/bsp/optee_os/lib/libutils/ext/mempool.c:129
    cfb8:	a9005413 	stp	x19, x21, [x0]
init_mpool():
/home/build/bsp/optee_os/lib/libutils/ext/mempool.c:75
    cfbc:	97fffe95 	bl	ca10 <raw_malloc_get_ctx_size>
/home/build/bsp/optee_os/lib/libutils/ext/mempool.c:76
    cfc0:	f9400681 	ldr	x1, [x20, #8]
    cfc4:	8b010273 	add	x19, x19, x1
    cfc8:	cb000273 	sub	x19, x19, x0
    cfcc:	927cee73 	and	x19, x19, #0xfffffffffffffff0
/home/build/bsp/optee_os/lib/libutils/ext/mempool.c:85
    cfd0:	eb13003f 	cmp	x1, x19
    cfd4:	54000143 	b.cc	cffc <mempool_alloc_pool+0x9c>  // b.lo, b.ul, b.last
_assert_trap():
/home/build/bsp/optee_os/lib/libutils/isoc/include/assert.h:19
    cfd8:	b0000023 	adrp	x3, 11000 <__func__.0+0x4cb>
    cfdc:	910d7063 	add	x3, x3, #0x35c
    cfe0:	b0000021 	adrp	x1, 11000 <__func__.0+0x4cb>
    cfe4:	b0000020 	adrp	x0, 11000 <__func__.0+0x4cb>
    cfe8:	91004c63 	add	x3, x3, #0x13
    cfec:	910b4c21 	add	x1, x1, #0x2d3
    cff0:	910c5400 	add	x0, x0, #0x315
    cff4:	52800aa2 	mov	w2, #0x55                  	// #85
    cff8:	17ffffec 	b	cfa8 <mempool_alloc_pool+0x48>
init_mpool():
/home/build/bsp/optee_os/lib/libutils/ext/mempool.c:86
    cffc:	f9000a93 	str	x19, [x20, #16]
/home/build/bsp/optee_os/lib/libutils/ext/mempool.c:87
    d000:	aa1303e0 	mov	x0, x19
    d004:	97fffe85 	bl	ca18 <raw_malloc_init_ctx>
/home/build/bsp/optee_os/lib/libutils/ext/mempool.c:88
    d008:	a9408281 	ldp	x1, x0, [x20, #8]
    d00c:	cb010262 	sub	x2, x19, x1
    d010:	97fffe89 	bl	ca34 <raw_malloc_add_pool>
mempool_alloc_pool():
/home/build/bsp/optee_os/lib/libutils/ext/mempool.c:139
    d014:	aa1403e0 	mov	x0, x20
    d018:	a94153f3 	ldp	x19, x20, [sp, #16]
    d01c:	f94013f5 	ldr	x21, [sp, #32]
    d020:	a8c37bfd 	ldp	x29, x30, [sp], #48
    d024:	d65f03c0 	ret

000000000000d028 <mempool_alloc>:
mempool_alloc():
/home/build/bsp/optee_os/lib/libutils/ext/mempool.c:142
    d028:	a9be7bfd 	stp	x29, x30, [sp, #-32]!
/home/build/bsp/optee_os/lib/libutils/ext/mempool.c:147
    d02c:	aa0103e2 	mov	x2, x1
/home/build/bsp/optee_os/lib/libutils/ext/mempool.c:142
    d030:	910003fd 	mov	x29, sp
/home/build/bsp/optee_os/lib/libutils/ext/mempool.c:147
    d034:	f9400803 	ldr	x3, [x0, #16]
    d038:	d2800000 	mov	x0, #0x0                   	// #0
/home/build/bsp/optee_os/lib/libutils/ext/mempool.c:142
    d03c:	a90153f3 	stp	x19, x20, [sp, #16]
    d040:	aa0103f4 	mov	x20, x1
/home/build/bsp/optee_os/lib/libutils/ext/mempool.c:147
    d044:	d2800001 	mov	x1, #0x0                   	// #0
    d048:	97fffde9 	bl	c7ec <raw_malloc>
    d04c:	aa0003f3 	mov	x19, x0
/home/build/bsp/optee_os/lib/libutils/ext/mempool.c:148
    d050:	b5000160 	cbnz	x0, d07c <mempool_alloc+0x54>
/home/build/bsp/optee_os/lib/libutils/ext/mempool.c:162
    d054:	90000020 	adrp	x0, 11000 <__func__.0+0x4cb>
    d058:	910d7000 	add	x0, x0, #0x35c
    d05c:	90000024 	adrp	x4, 11000 <__func__.0+0x4cb>
    d060:	aa1403e5 	mov	x5, x20
    d064:	910c9084 	add	x4, x4, #0x324
    d068:	91007800 	add	x0, x0, #0x1e
    d06c:	52800023 	mov	w3, #0x1                   	// #1
    d070:	52800022 	mov	w2, #0x1                   	// #1
    d074:	52801441 	mov	w1, #0xa2                  	// #162
    d078:	97ffcd54 	bl	5c8 <trace_printf>
/home/build/bsp/optee_os/lib/libutils/ext/mempool.c:165
    d07c:	aa1303e0 	mov	x0, x19
    d080:	a94153f3 	ldp	x19, x20, [sp, #16]
    d084:	a8c27bfd 	ldp	x29, x30, [sp], #32
    d088:	d65f03c0 	ret

000000000000d08c <mempool_calloc>:
mempool_calloc():
/home/build/bsp/optee_os/lib/libutils/ext/mempool.c:168
    d08c:	a9be7bfd 	stp	x29, x30, [sp, #-32]!
/home/build/bsp/optee_os/lib/libutils/ext/mempool.c:172
    d090:	9bc27c23 	umulh	x3, x1, x2
/home/build/bsp/optee_os/lib/libutils/ext/mempool.c:168
    d094:	910003fd 	mov	x29, sp
    d098:	a90153f3 	stp	x19, x20, [sp, #16]
/home/build/bsp/optee_os/lib/libutils/ext/mempool.c:172
    d09c:	9b027c34 	mul	x20, x1, x2
    d0a0:	b5000123 	cbnz	x3, d0c4 <mempool_calloc+0x38>
/home/build/bsp/optee_os/lib/libutils/ext/mempool.c:175
    d0a4:	aa1403e1 	mov	x1, x20
    d0a8:	97ffffe0 	bl	d028 <mempool_alloc>
    d0ac:	aa0003f3 	mov	x19, x0
/home/build/bsp/optee_os/lib/libutils/ext/mempool.c:176
    d0b0:	b50000e0 	cbnz	x0, d0cc <mempool_calloc+0x40>
/home/build/bsp/optee_os/lib/libutils/ext/mempool.c:180
    d0b4:	aa1303e0 	mov	x0, x19
    d0b8:	a94153f3 	ldp	x19, x20, [sp, #16]
    d0bc:	a8c27bfd 	ldp	x29, x30, [sp], #32
    d0c0:	d65f03c0 	ret
/home/build/bsp/optee_os/lib/libutils/ext/mempool.c:173
    d0c4:	d2800013 	mov	x19, #0x0                   	// #0
    d0c8:	17fffffb 	b	d0b4 <mempool_calloc+0x28>
/home/build/bsp/optee_os/lib/libutils/ext/mempool.c:177
    d0cc:	aa1403e2 	mov	x2, x20
    d0d0:	52800001 	mov	w1, #0x0                   	// #0
    d0d4:	97ffff85 	bl	cee8 <memset>
    d0d8:	17fffff7 	b	d0b4 <mempool_calloc+0x28>

000000000000d0dc <mempool_free>:
mempool_free():
/home/build/bsp/optee_os/lib/libutils/ext/mempool.c:183
    d0dc:	aa0003e3 	mov	x3, x0
    d0e0:	aa0103e0 	mov	x0, x1
/home/build/bsp/optee_os/lib/libutils/ext/mempool.c:184
    d0e4:	b4000081 	cbz	x1, d0f4 <mempool_free+0x18>
/home/build/bsp/optee_os/lib/libutils/ext/mempool.c:185
    d0e8:	f9400861 	ldr	x1, [x3, #16]
    d0ec:	52800002 	mov	w2, #0x0                   	// #0
    d0f0:	17fffdc3 	b	c7fc <raw_free>
/home/build/bsp/optee_os/lib/libutils/ext/mempool.c:188
    d0f4:	d65f03c0 	ret

000000000000d0f8 <consttime_memcmp>:
consttime_memcmp():
/home/build/bsp/optee_os/lib/libutils/ext/consttime_memcmp.c:36
    d0f8:	d10043ff 	sub	sp, sp, #0x10
/home/build/bsp/optee_os/lib/libutils/ext/consttime_memcmp.c:41
    d0fc:	52802003 	mov	w3, #0x100                 	// #256
/home/build/bsp/optee_os/lib/libutils/ext/consttime_memcmp.c:43
    d100:	d2800005 	mov	x5, #0x0                   	// #0
/home/build/bsp/optee_os/lib/libutils/ext/consttime_memcmp.c:39
    d104:	52800006 	mov	w6, #0x0                   	// #0
/home/build/bsp/optee_os/lib/libutils/ext/consttime_memcmp.c:41
    d108:	b9000fe3 	str	w3, [sp, #12]
/home/build/bsp/optee_os/lib/libutils/ext/consttime_memcmp.c:40
    d10c:	52800003 	mov	w3, #0x0                   	// #0
/home/build/bsp/optee_os/lib/libutils/ext/consttime_memcmp.c:43 (discriminator 1)
    d110:	eb0200bf 	cmp	x5, x2
    d114:	540000a1 	b.ne	d128 <consttime_memcmp+0x30>  // b.any
/home/build/bsp/optee_os/lib/libutils/ext/consttime_memcmp.c:50
    d118:	53087c63 	lsr	w3, w3, #8
/home/build/bsp/optee_os/lib/libutils/ext/consttime_memcmp.c:51
    d11c:	4b462060 	sub	w0, w3, w6, lsr #8
    d120:	910043ff 	add	sp, sp, #0x10
    d124:	d65f03c0 	ret
/home/build/bsp/optee_os/lib/libutils/ext/consttime_memcmp.c:45 (discriminator 2)
    d128:	38656808 	ldrb	w8, [x0, x5]
    d12c:	38656824 	ldrb	w4, [x1, x5]
    d130:	910004a5 	add	x5, x5, #0x1
/home/build/bsp/optee_os/lib/libutils/ext/consttime_memcmp.c:44 (discriminator 2)
    d134:	b9400fe9 	ldr	w9, [sp, #12]
/home/build/bsp/optee_os/lib/libutils/ext/consttime_memcmp.c:45 (discriminator 2)
    d138:	4b040107 	sub	w7, w8, w4
/home/build/bsp/optee_os/lib/libutils/ext/consttime_memcmp.c:47 (discriminator 2)
    d13c:	4b080084 	sub	w4, w4, w8
/home/build/bsp/optee_os/lib/libutils/ext/consttime_memcmp.c:44 (discriminator 2)
    d140:	0a0900e7 	and	w7, w7, w9
    d144:	2a0700c6 	orr	w6, w6, w7
/home/build/bsp/optee_os/lib/libutils/ext/consttime_memcmp.c:46 (discriminator 2)
    d148:	b9400fe7 	ldr	w7, [sp, #12]
    d14c:	0a070084 	and	w4, w4, w7
/home/build/bsp/optee_os/lib/libutils/ext/consttime_memcmp.c:48 (discriminator 2)
    d150:	b9400fe7 	ldr	w7, [sp, #12]
/home/build/bsp/optee_os/lib/libutils/ext/consttime_memcmp.c:46 (discriminator 2)
    d154:	2a040063 	orr	w3, w3, w4
/home/build/bsp/optee_os/lib/libutils/ext/consttime_memcmp.c:48 (discriminator 2)
    d158:	2a0300c4 	orr	w4, w6, w3
    d15c:	0a2400e4 	bic	w4, w7, w4
    d160:	b9000fe4 	str	w4, [sp, #12]
/home/build/bsp/optee_os/lib/libutils/ext/consttime_memcmp.c:43 (discriminator 2)
    d164:	17ffffeb 	b	d110 <consttime_memcmp+0x18>
